(itravian_raidmap
raidlist
p0
(dp1
S'raids'
p2
(lp3
(itravian_raidmap
raid
p4
(dp5
S'popolazione'
p6
I220
sS'tribu'
p7
S'Teutoni'
p8
sS'done'
p9
I0
sS'yp'
p10
I136
sS'xp'
p11
I74
sS'id'
p12
S''
p13
sS'giocatore'
p14
S'Ciccio_Ciccio'
p15
sba(itravian_raidmap
raid
p16
(dp17
g6
I484
sg7
S'Teutoni'
p18
sg9
I0
sg10
I164
sg11
I43
sg12
g13
sg14
S'jenny81'
p19
sba(itravian_raidmap
raid
p20
(dp21
g6
I60
sg7
S'Romani'
p22
sg9
I0
sg10
I136
sg11
I63
sg12
g13
sg14
S'sole'
p23
sba(itravian_raidmap
raid
p24
(dp25
g6
I526
sg7
S'Teutoni'
p26
sg9
I0
sg10
I154
sg11
I77
sg12
g13
sg14
S'SIOBAN'
p27
sba(itravian_raidmap
raid
p28
(dp29
g6
I27
sg7
S'Teutoni'
p30
sg9
I0
sg10
I195
sg11
I10
sg12
g13
sg14
S'walter'
p31
sba(itravian_raidmap
raid
p32
(dp33
g6
I437
sg7
S'Teutoni'
p34
sg9
I0
sg10
I179
sg11
I86
sg12
g13
sg14
S'merryterry'
p35
sba(itravian_raidmap
raid
p36
(dp37
g6
I251
sg7
S'Romani'
p38
sg9
I0
sg10
I149
sg11
I79
sg12
g13
sg14
S'skyzzoh'
p39
sba(itravian_raidmap
raid
p40
(dp41
g6
I219
sg7
S'Teutoni'
p42
sg9
I0
sg10
I186
sg11
I114
sg12
g13
sg14
S'Robertos82'
p43
sba(itravian_raidmap
raid
p44
(dp45
g6
I746
sg7
S'Teutoni'
p46
sg9
I0
sg10
I193
sg11
I46
sg12
g13
sg14
S'giangi81'
p47
sba(itravian_raidmap
raid
p48
(dp49
g6
I745
sg7
S'Teutoni'
p50
sg9
I0
sg10
I194
sg11
I45
sg12
g13
sg14
S'giangi81'
p51
sba(itravian_raidmap
raid
p52
(dp53
g6
I746
sg7
S'Teutoni'
p54
sg9
I0
sg10
I195
sg11
I46
sg12
g13
sg14
S'giangi81'
p55
sba(itravian_raidmap
raid
p56
(dp57
g6
I316
sg7
S'Teutoni'
p58
sg9
I0
sg10
I193
sg11
I113
sg12
g13
sg14
S'Rum'
p59
sba(itravian_raidmap
raid
p60
(dp61
g6
I242
sg7
S'Teutoni'
p62
sg9
I0
sg10
I228
sg11
I14
sg12
g13
sg14
S'framax'
p63
sba(itravian_raidmap
raid
p64
(dp65
g6
I414
sg7
S'Romani'
p66
sg9
I0
sg10
I165
sg11
I56
sg12
g13
sg14
S'sailor3'
p67
sba(itravian_raidmap
raid
p68
(dp69
g6
I185
sg7
S'Romani'
p70
sg9
I0
sg10
I166
sg11
I78
sg12
g13
sg14
S'Linneo78'
p71
sba(itravian_raidmap
raid
p72
(dp73
g6
I378
sg7
S'Romani'
p74
sg9
I0
sg10
I180
sg11
I23
sg12
g13
sg14
S'Rosis'
p75
sba(itravian_raidmap
raid
p76
(dp77
g6
I97
sg7
S'Teutoni'
p78
sg9
I0
sg10
I242
sg11
I25
sg12
g13
sg14
S'sicur'
p79
sba(itravian_raidmap
raid
p80
(dp81
g6
I621
sg7
S'Romani'
p82
sg9
I0
sg10
I158
sg11
I73
sg12
g13
sg14
S'stella3'
p83
sba(itravian_raidmap
raid
p84
(dp85
g6
I413
sg7
S'Romani'
p86
sg9
I0
sg10
I179
sg11
I47
sg12
g13
sg14
S'sam92'
p87
sba(itravian_raidmap
raid
p88
(dp89
g6
I370
sg7
S'Teutoni'
p90
sg9
I0
sg10
I232
sg11
I51
sg12
g13
sg14
S'wytone'
p91
sba(itravian_raidmap
raid
p92
(dp93
g6
I263
sg7
S'Romani'
p94
sg9
I0
sg10
I189
sg11
I34
sg12
g13
sg14
S'walleygator'
p95
sba(itravian_raidmap
raid
p96
(dp97
g6
I273
sg7
S'Romani'
p98
sg9
I0
sg10
I190
sg11
I29
sg12
g13
sg14
S'peppus'
p99
sba(itravian_raidmap
raid
p100
(dp101
g6
I263
sg7
S'Romani'
p102
sg9
I0
sg10
I191
sg11
I35
sg12
g13
sg14
S'walleygator'
p103
sba(itravian_raidmap
raid
p104
(dp105
g6
I500
sg7
S'Romani'
p106
sg9
I0
sg10
I168
sg11
I77
sg12
g13
sg14
S'Talitha'
p107
sba(itravian_raidmap
raid
p108
(dp109
g6
I376
sg7
S'Romani'
p110
sg9
I0
sg10
I186
sg11
I46
sg12
g13
sg14
S'cavalli'
p111
sba(itravian_raidmap
raid
p112
(dp113
g6
I194
sg7
S'Teutoni'
p114
sg9
I0
sg10
I216
sg11
I127
sg12
g13
sg14
S'came-barca'
p115
sba(itravian_raidmap
raid
p116
(dp117
g6
I651
sg7
S'Romani'
p118
sg9
I0
sg10
I181
sg11
I20
sg12
g13
sg14
S'Simone_alex'
p119
sba(itravian_raidmap
raid
p120
(dp121
g6
I616
sg7
S'Romani'
p122
sg9
I0
sg10
I180
sg11
I49
sg12
g13
sg14
S'brunda'
p123
sba(itravian_raidmap
raid
p124
(dp125
g6
I116
sg7
S'Teutoni'
p126
sg9
I0
sg10
I249
sg11
I75
sg12
g13
sg14
S'dragonlegend'
p127
sba(itravian_raidmap
raid
p128
(dp129
g6
I152
sg7
S'Teutoni'
p130
sg9
I0
sg10
I256
sg11
I56
sg12
g13
sg14
S'dadolandia'
p131
sba(itravian_raidmap
raid
p132
(dp133
g6
I135
sg7
S'Romani'
p134
sg9
I0
sg10
I205
sg11
I42
sg12
g13
sg14
S'cynthia90'
p135
sba(itravian_raidmap
raid
p136
(dp137
g6
I306
sg7
S'Romani'
p138
sg9
I0
sg10
I179
sg11
I96
sg12
g13
sg14
S'Catello Salerno'
p139
sba(itravian_raidmap
raid
p140
(dp141
g6
I569
sg7
S'Romani'
p142
sg9
I0
sg10
I176
sg11
I79
sg12
g13
sg14
S'ZAPOTEC'
p143
sba(itravian_raidmap
raid
p144
(dp145
g6
I54
sg7
S'Teutoni'
p146
sg9
I0
sg10
I239
sg11
I122
sg12
g13
sg14
S'ferdi'
p147
sba(itravian_raidmap
raid
p148
(dp149
g6
I530
sg7
S'Romani'
p150
sg9
I0
sg10
I179
sg11
I79
sg12
g13
sg14
S'conquistadoras'
p151
sba(itravian_raidmap
raid
p152
(dp153
g6
I627
sg7
S'Galli'
p154
sg9
I0
sg10
I138
sg11
I75
sg12
g13
sg14
S'Akira'
p155
sba(itravian_raidmap
raid
p156
(dp157
g6
I246
sg7
S'Teutoni'
p158
sg9
I0
sg10
I256
sg11
I71
sg12
g13
sg14
S'totos89'
p159
sba(itravian_raidmap
raid
p160
(dp161
g6
I510
sg7
S'Teutoni'
p162
sg9
I0
sg10
I256
sg11
I39
sg12
g13
sg14
S'SINATRA'
p163
sba(itravian_raidmap
raid
p164
(dp165
g6
I746
sg7
S'Romani'
p166
sg9
I0
sg10
I195
sg11
I4
sg12
g13
sg14
S'sans_savansss'
p167
sba(itravian_raidmap
raid
p168
(dp169
g6
I146
sg7
S'Romani'
p170
sg9
I0
sg10
I202
sg11
I85
sg12
g13
sg14
S'duro17'
p171
sba(itravian_raidmap
raid
p172
(dp173
g6
I747
sg7
S'Teutoni'
p174
sg9
I0
sg10
I242
sg11
I70
sg12
g13
sg14
S'dbshad87'
p175
sba(itravian_raidmap
raid
p176
(dp177
g6
I746
sg7
S'Romani'
p178
sg9
I0
sg10
I197
sg11
I16
sg12
g13
sg14
S'sans_savansss'
p179
sba(itravian_raidmap
raid
p180
(dp181
g6
I690
sg7
S'Romani'
p182
sg9
I0
sg10
I200
sg11
I-2
sg12
g13
sg14
S'lenders92'
p183
sba(itravian_raidmap
raid
p184
(dp185
g6
I690
sg7
S'Romani'
p186
sg9
I0
sg10
I201
sg11
I-3
sg12
g13
sg14
S'lenders92'
p187
sba(itravian_raidmap
raid
p188
(dp189
g6
I726
sg7
S'Teutoni'
p190
sg9
I0
sg10
I252
sg11
I53
sg12
g13
sg14
S'Mikno'
p191
sba(itravian_raidmap
raid
p192
(dp193
g6
I493
sg7
S'Romani'
p194
sg9
I0
sg10
I179
sg11
I114
sg12
g13
sg14
S'Alessandro91'
p195
sba(itravian_raidmap
raid
p196
(dp197
g6
I725
sg7
S'Romani'
p198
sg9
I0
sg10
I182
sg11
I90
sg12
g13
sg14
S'fabio 7'
p199
sba(itravian_raidmap
raid
p200
(dp201
g6
I725
sg7
S'Romani'
p202
sg9
I0
sg10
I183
sg11
I89
sg12
g13
sg14
S'fabio 7'
p203
sba(itravian_raidmap
raid
p204
(dp205
g6
I588
sg7
S'Teutoni'
p206
sg9
I0
sg10
I251
sg11
I98
sg12
g13
sg14
S'acc'
p207
sba(itravian_raidmap
raid
p208
(dp209
g6
I560
sg7
S'Teutoni'
p210
sg9
I0
sg10
I264
sg11
I61
sg12
g13
sg14
S'papa69'
p211
sba(itravian_raidmap
raid
p212
(dp213
g6
I588
sg7
S'Teutoni'
p214
sg9
I0
sg10
I252
sg11
I98
sg12
g13
sg14
S'acc'
p215
sba(itravian_raidmap
raid
p216
(dp217
g6
I378
sg7
S'Romani'
p218
sg9
I0
sg10
I197
sg11
I98
sg12
g13
sg14
S'tino79'
p219
sba(itravian_raidmap
raid
p220
(dp221
g6
I2917
sg7
S'Teutoni'
p222
sg9
I0
sg10
I163
sg11
I74
sg12
g13
sg14
S'X-MAS'
p223
sba(itravian_raidmap
raid
p224
(dp225
g6
I168
sg7
S'Teutoni'
p226
sg9
I0
sg10
I279
sg11
I76
sg12
g13
sg14
S'fox'
p227
sba(itravian_raidmap
raid
p228
(dp229
g6
I822
sg7
S'Teutoni'
p230
sg9
I0
sg10
I260
sg11
I48
sg12
g13
sg14
S'plif'
p231
sba(itravian_raidmap
raid
p232
(dp233
g6
I379
sg7
S'Romani'
p234
sg9
I0
sg10
I219
sg11
I43
sg12
g13
sg14
S'Navao'
p235
sba(itravian_raidmap
raid
p236
(dp237
g6
I462
sg7
S'Romani'
p238
sg9
I0
sg10
I220
sg11
I7
sg12
g13
sg14
S'AndrewRed'
p239
sba(itravian_raidmap
raid
p240
(dp241
g6
I854
sg7
S'Teutoni'
p242
sg9
I0
sg10
I251
sg11
I89
sg12
g13
sg14
S'maialaina'
p243
sba(itravian_raidmap
raid
p244
(dp245
g6
I654
sg7
S'Teutoni'
p246
sg9
I0
sg10
I258
sg11
I94
sg12
g13
sg14
S'RRosy'
p247
sba(itravian_raidmap
raid
p248
(dp249
g6
I654
sg7
S'Teutoni'
p250
sg9
I0
sg10
I259
sg11
I94
sg12
g13
sg14
S'RRosy'
p251
sba(itravian_raidmap
raid
p252
(dp253
g6
I291
sg7
S'Romani'
p254
sg9
I0
sg10
I220
sg11
I67
sg12
g13
sg14
S'sentinela'
p255
sba(itravian_raidmap
raid
p256
(dp257
g6
I637
sg7
S'Romani'
p258
sg9
I0
sg10
I217
sg11
I14
sg12
g13
sg14
S'drago13'
p259
sba(itravian_raidmap
raid
p260
(dp261
g6
I1246
sg7
S'Teutoni'
p262
sg9
I0
sg10
I245
sg11
I68
sg12
g13
sg14
S'ronzino'
p263
sba(itravian_raidmap
raid
p264
(dp265
g6
I179
sg7
S'Romani'
p266
sg9
I0
sg10
I218
sg11
I92
sg12
g13
sg14
S'back8'
p267
sba(itravian_raidmap
raid
p268
(dp269
g6
I637
sg7
S'Romani'
p270
sg9
I0
sg10
I218
sg11
I13
sg12
g13
sg14
S'drago13'
p271
sba(itravian_raidmap
raid
p272
(dp273
g6
I1246
sg7
S'Teutoni'
p274
sg9
I0
sg10
I246
sg11
I68
sg12
g13
sg14
S'ronzino'
p275
sba(itravian_raidmap
raid
p276
(dp277
g6
I1246
sg7
S'Teutoni'
p278
sg9
I0
sg10
I246
sg11
I69
sg12
g13
sg14
S'ronzino'
p279
sba(itravian_raidmap
raid
p280
(dp281
g6
I2009
sg7
S'Teutoni'
p282
sg9
I0
sg10
I228
sg11
I11
sg12
g13
sg14
S'Kamirio'
p283
sba(itravian_raidmap
raid
p284
(dp285
g6
I388
sg7
S'Romani'
p286
sg9
I0
sg10
I225
sg11
I54
sg12
g13
sg14
S'devil.92'
p287
sba(itravian_raidmap
raid
p288
(dp289
g6
I603
sg7
S'Romani'
p290
sg9
I0
sg10
I223
sg11
I11
sg12
g13
sg14
S'Le Gionari'
p291
sba(itravian_raidmap
raid
p292
(dp293
g6
I584
sg7
S'Romani'
p294
sg9
I0
sg10
I223
sg11
I23
sg12
g13
sg14
S'Lo Zoppo'
p295
sba(itravian_raidmap
raid
p296
(dp297
g6
I603
sg7
S'Romani'
p298
sg9
I0
sg10
I224
sg11
I10
sg12
g13
sg14
S'Le Gionari'
p299
sba(itravian_raidmap
raid
p300
(dp301
g6
I135
sg7
S'Galli'
p302
sg9
I0
sg10
I179
sg11
I94
sg12
g13
sg14
S'framics'
p303
sba(itravian_raidmap
raid
p304
(dp305
g6
I1703
sg7
S'Teutoni'
p306
sg9
I0
sg10
I206
sg11
I131
sg12
g13
sg14
S'daluk95'
p307
sba(itravian_raidmap
raid
p308
(dp309
g6
I575
sg7
S'Romani'
p310
sg9
I0
sg10
I211
sg11
I85
sg12
g13
sg14
S'melalomu'
p311
sba(itravian_raidmap
raid
p312
(dp313
g6
I209
sg7
S'Romani'
p314
sg9
I0
sg10
I240
sg11
I32
sg12
g13
sg14
S'sdipietro1'
p315
sba(itravian_raidmap
raid
p316
(dp317
g6
I296
sg7
S'Romani'
p318
sg9
I0
sg10
I231
sg11
I65
sg12
g13
sg14
S'giggio 182'
p319
sba(itravian_raidmap
raid
p320
(dp321
g6
I294
sg7
S'Romani'
p322
sg9
I0
sg10
I226
sg11
I83
sg12
g13
sg14
S'ld1981'
p323
sba(itravian_raidmap
raid
p324
(dp325
g6
I438
sg7
S'Romani'
p326
sg9
I0
sg10
I203
sg11
I120
sg12
g13
sg14
S'pato94'
p327
sba(itravian_raidmap
raid
p328
(dp329
g6
I2144
sg7
S'Teutoni'
p330
sg9
I0
sg10
I213
sg11
I90
sg12
g13
sg14
S'Gandalfilbianco'
p331
sba(itravian_raidmap
raid
p332
(dp333
g6
I250
sg7
S'Romani'
p334
sg9
I0
sg10
I242
sg11
I31
sg12
g13
sg14
S'sese95'
p335
sba(itravian_raidmap
raid
p336
(dp337
g6
I391
sg7
S'Romani'
p338
sg9
I0
sg10
I212
sg11
I109
sg12
g13
sg14
S'falco-arturo'
p339
sba(itravian_raidmap
raid
p340
(dp341
g6
I1703
sg7
S'Teutoni'
p342
sg9
I0
sg10
I238
sg11
I77
sg12
g13
sg14
S'daluk95'
p343
sba(itravian_raidmap
raid
p344
(dp345
g6
I1703
sg7
S'Teutoni'
p346
sg9
I0
sg10
I239
sg11
I76
sg12
g13
sg14
S'daluk95'
p347
sba(itravian_raidmap
raid
p348
(dp349
g6
I1731
sg7
S'Teutoni'
p350
sg9
I0
sg10
I239
sg11
I74
sg12
g13
sg14
S'Trobox'
p351
sba(itravian_raidmap
raid
p352
(dp353
g6
I872
sg7
S'Romani'
p354
sg9
I0
sg10
I217
sg11
I49
sg12
g13
sg14
S'Cpt.Gaz96'
p355
sba(itravian_raidmap
raid
p356
(dp357
g6
I872
sg7
S'Romani'
p358
sg9
I0
sg10
I217
sg11
I50
sg12
g13
sg14
S'Cpt.Gaz96'
p359
sba(itravian_raidmap
raid
p360
(dp361
g6
I2009
sg7
S'Teutoni'
p362
sg9
I0
sg10
I240
sg11
I28
sg12
g13
sg14
S'Kamirio'
p363
sba(itravian_raidmap
raid
p364
(dp365
g6
I152
sg7
S'Romani'
p366
sg9
I0
sg10
I222
sg11
I121
sg12
g13
sg14
S'FURE'
p367
sba(itravian_raidmap
raid
p368
(dp369
g6
I564
sg7
S'Romani'
p370
sg9
I0
sg10
I234
sg11
I37
sg12
g13
sg14
S'debug'
p371
sba(itravian_raidmap
raid
p372
(dp373
g6
I338
sg7
S'Galli'
p374
sg9
I0
sg10
I201
sg11
I38
sg12
g13
sg14
S'pracca'
p375
sba(itravian_raidmap
raid
p376
(dp377
g6
I309
sg7
S'Romani'
p378
sg9
I0
sg10
I237
sg11
I78
sg12
g13
sg14
S'Cpra Tibetana'
p379
sba(itravian_raidmap
raid
p380
(dp381
g6
I803
sg7
S'Romani'
p382
sg9
I0
sg10
I229
sg11
I21
sg12
g13
sg14
S'silviasi'
p383
sba(itravian_raidmap
raid
p384
(dp385
g6
I282
sg7
S'Romani'
p386
sg9
I0
sg10
I217
sg11
I126
sg12
g13
sg14
S'fil94'
p387
sba(itravian_raidmap
raid
p388
(dp389
g6
I464
sg7
S'Romani'
p390
sg9
I0
sg10
I231
sg11
I78
sg12
g13
sg14
S'dagobert'
p391
sba(itravian_raidmap
raid
p392
(dp393
g6
I490
sg7
S'Romani'
p394
sg9
I0
sg10
I238
sg11
I64
sg12
g13
sg14
S'morris1208'
p395
sba(itravian_raidmap
raid
p396
(dp397
g6
I2218
sg7
S'Teutoni'
p398
sg9
I0
sg10
I219
sg11
I112
sg12
g13
sg14
S'dinos'
p399
sba(itravian_raidmap
raid
p400
(dp401
g6
I636
sg7
S'Romani'
p402
sg9
I0
sg10
I210
sg11
I123
sg12
g13
sg14
S'giuser'
p403
sba(itravian_raidmap
raid
p404
(dp405
g6
I367
sg7
S'Romani'
p406
sg9
I0
sg10
I241
sg11
I82
sg12
g13
sg14
S'Memento mori'
p407
sba(itravian_raidmap
raid
p408
(dp409
g6
I4811
sg7
S'Teutoni'
p410
sg9
I0
sg10
I128
sg11
I67
sg12
g13
sg14
S'dragan63'
p411
sba(itravian_raidmap
raid
p412
(dp413
g6
I2218
sg7
S'Teutoni'
p414
sg9
I0
sg10
I215
sg11
I124
sg12
g13
sg14
S'dinos'
p415
sba(itravian_raidmap
raid
p416
(dp417
g6
I2218
sg7
S'Teutoni'
p418
sg9
I0
sg10
I221
sg11
I114
sg12
g13
sg14
S'dinos'
p419
sba(itravian_raidmap
raid
p420
(dp421
g6
I2218
sg7
S'Teutoni'
p422
sg9
I0
sg10
I223
sg11
I111
sg12
g13
sg14
S'dinos'
p423
sba(itravian_raidmap
raid
p424
(dp425
g6
I2218
sg7
S'Teutoni'
p426
sg9
I0
sg10
I223
sg11
I112
sg12
g13
sg14
S'dinos'
p427
sba(itravian_raidmap
raid
p428
(dp429
g6
I313
sg7
S'Romani'
p430
sg9
I0
sg10
I246
sg11
I79
sg12
g13
sg14
S'ste97'
p431
sba(itravian_raidmap
raid
p432
(dp433
g6
I809
sg7
S'Romani'
p434
sg9
I0
sg10
I218
sg11
I97
sg12
g13
sg14
S'josh4'
p435
sba(itravian_raidmap
raid
p436
(dp437
g6
I2218
sg7
S'Teutoni'
p438
sg9
I0
sg10
I223
sg11
I113
sg12
g13
sg14
S'dinos'
p439
sba(itravian_raidmap
raid
p440
(dp441
g6
I1113
sg7
S'Romani'
p442
sg9
I0
sg10
I226
sg11
I16
sg12
g13
sg14
S'distruggitore'
p443
sba(itravian_raidmap
raid
p444
(dp445
g6
I291
sg7
S'Romani'
p446
sg9
I0
sg10
I254
sg11
I53
sg12
g13
sg14
S'Brad Pitt'
p447
sba(itravian_raidmap
raid
p448
(dp449
g6
I913
sg7
S'Romani'
p450
sg9
I0
sg10
I218
sg11
I87
sg12
g13
sg14
S'Nakan'
p451
sba(itravian_raidmap
raid
p452
(dp453
g6
I679
sg7
S'Romani'
p454
sg9
I0
sg10
I221
sg11
I105
sg12
g13
sg14
S'angels'
p455
sba(itravian_raidmap
raid
p456
(dp457
g6
I733
sg7
S'Galli'
p458
sg9
I0
sg10
I177
sg11
I87
sg12
g13
sg14
S'Cinghialot'
p459
sba(itravian_raidmap
raid
p460
(dp461
g6
I913
sg7
S'Romani'
p462
sg9
I0
sg10
I218
sg11
I89
sg12
g13
sg14
S'Nakan'
p463
sba(itravian_raidmap
raid
p464
(dp465
g6
I1113
sg7
S'Romani'
p466
sg9
I0
sg10
I227
sg11
I15
sg12
g13
sg14
S'distruggitore'
p467
sba(itravian_raidmap
raid
p468
(dp469
g6
I804
sg7
S'Romani'
p470
sg9
I0
sg10
I212
sg11
I114
sg12
g13
sg14
S'robyriccio'
p471
sba(itravian_raidmap
raid
p472
(dp473
g6
I404
sg7
S'Romani'
p474
sg9
I0
sg10
I249
sg11
I64
sg12
g13
sg14
S'lem210572'
p475
sba(itravian_raidmap
raid
p476
(dp477
g6
I804
sg7
S'Romani'
p478
sg9
I0
sg10
I212
sg11
I115
sg12
g13
sg14
S'robyriccio'
p479
sba(itravian_raidmap
raid
p480
(dp481
g6
I311
sg7
S'Romani'
p482
sg9
I0
sg10
I228
sg11
I127
sg12
g13
sg14
S'spartaco44'
p483
sba(itravian_raidmap
raid
p484
(dp485
g6
I363
sg7
S'Romani'
p486
sg9
I0
sg10
I251
sg11
I65
sg12
g13
sg14
S'nik.vr'
p487
sba(itravian_raidmap
raid
p488
(dp489
g6
I133
sg7
S'Galli'
p490
sg9
I0
sg10
I215
sg11
I59
sg12
g13
sg14
S'el bres\xc3\xa0'
p491
sba(itravian_raidmap
raid
p492
(dp493
g6
I587
sg7
S'Galli'
p494
sg9
I0
sg10
I204
sg11
I22
sg12
g13
sg14
S'Fabrizio1970'
p495
sba(itravian_raidmap
raid
p496
(dp497
g6
I636
sg7
S'Romani'
p498
sg9
I0
sg10
I237
sg11
I77
sg12
g13
sg14
S'giuser'
p499
sba(itravian_raidmap
raid
p500
(dp501
g6
I489
sg7
S'Romani'
p502
sg9
I0
sg10
I224
sg11
I123
sg12
g13
sg14
S'scagiu'
p503
sba(itravian_raidmap
raid
p504
(dp505
g6
I296
sg7
S'Romani'
p506
sg9
I0
sg10
I256
sg11
I65
sg12
g13
sg14
S'iperforce96'
p507
sba(itravian_raidmap
raid
p508
(dp509
g6
I647
sg7
S'Romani'
p510
sg9
I0
sg10
I228
sg11
I103
sg12
g13
sg14
S'pippo93'
p511
sba(itravian_raidmap
raid
p512
(dp513
g6
I2818
sg7
S'Romani'
p514
sg9
I0
sg10
I142
sg11
I81
sg12
g13
sg14
S'dmx'
p515
sba(itravian_raidmap
raid
p516
(dp517
g6
I156
sg7
S'Galli'
p518
sg9
I0
sg10
I216
sg11
I60
sg12
g13
sg14
S'leonard97'
p519
sba(itravian_raidmap
raid
p520
(dp521
g6
I647
sg7
S'Romani'
p522
sg9
I0
sg10
I229
sg11
I102
sg12
g13
sg14
S'pippo93'
p523
sba(itravian_raidmap
raid
p524
(dp525
g6
I647
sg7
S'Romani'
p526
sg9
I0
sg10
I229
sg11
I103
sg12
g13
sg14
S'pippo93'
p527
sba(itravian_raidmap
raid
p528
(dp529
g6
I1556
sg7
S'Romani'
p530
sg9
I0
sg10
I196
sg11
I88
sg12
g13
sg14
S'voyage'
p531
sba(itravian_raidmap
raid
p532
(dp533
g6
I4270
sg7
S'Teutoni'
p534
sg9
I0
sg10
I172
sg11
I36
sg12
g13
sg14
S'Marco guida'
p535
sba(itravian_raidmap
raid
p536
(dp537
g6
I304
sg7
S'Romani'
p538
sg9
I0
sg10
I259
sg11
I59
sg12
g13
sg14
S'gilorum'
p539
sba(itravian_raidmap
raid
p540
(dp541
g6
I4270
sg7
S'Teutoni'
p542
sg9
I0
sg10
I173
sg11
I35
sg12
g13
sg14
S'Marco guida'
p543
sba(itravian_raidmap
raid
p544
(dp545
g6
I1556
sg7
S'Romani'
p546
sg9
I0
sg10
I197
sg11
I88
sg12
g13
sg14
S'voyage'
p547
sba(itravian_raidmap
raid
p548
(dp549
g6
I4270
sg7
S'Teutoni'
p550
sg9
I0
sg10
I173
sg11
I36
sg12
g13
sg14
S'Marco guida'
p551
sba(itravian_raidmap
raid
p552
(dp553
g6
I355
sg7
S'Romani'
p554
sg9
I0
sg10
I254
sg11
I72
sg12
g13
sg14
S'Innuendo'
p555
sba(itravian_raidmap
raid
p556
(dp557
g6
I324
sg7
S'Romani'
p558
sg9
I0
sg10
I241
sg11
I111
sg12
g13
sg14
S'smoothpolino'
p559
sba(itravian_raidmap
raid
p560
(dp561
g6
I254
sg7
S'Romani'
p562
sg9
I0
sg10
I260
sg11
I66
sg12
g13
sg14
S'libanese'
p563
sba(itravian_raidmap
raid
p564
(dp565
g6
I1556
sg7
S'Romani'
p566
sg9
I0
sg10
I197
sg11
I89
sg12
g13
sg14
S'voyage'
p567
sba(itravian_raidmap
raid
p568
(dp569
g6
I324
sg7
S'Romani'
p570
sg9
I0
sg10
I242
sg11
I111
sg12
g13
sg14
S'smoothpolino'
p571
sba(itravian_raidmap
raid
p572
(dp573
g6
I1661
sg7
S'Teutoni'
p574
sg9
I0
sg10
I275
sg11
I65
sg12
g13
sg14
S'SA-RA'
p575
sba(itravian_raidmap
raid
p576
(dp577
g6
I62
sg7
S'Romani'
p578
sg9
I0
sg10
I270
sg11
I62
sg12
g13
sg14
S'mulirichi'
p579
sba(itravian_raidmap
raid
p580
(dp581
g6
I103
sg7
S'Romani'
p582
sg9
I0
sg10
I265
sg11
I75
sg12
g13
sg14
S'finzi'
p583
sba(itravian_raidmap
raid
p584
(dp585
g6
I1661
sg7
S'Teutoni'
p586
sg9
I0
sg10
I276
sg11
I64
sg12
g13
sg14
S'SA-RA'
p587
sba(itravian_raidmap
raid
p588
(dp589
g6
I1661
sg7
S'Teutoni'
p590
sg9
I0
sg10
I276
sg11
I65
sg12
g13
sg14
S'SA-RA'
p591
sba(itravian_raidmap
raid
p592
(dp593
g6
I412
sg7
S'Galli'
p594
sg9
I0
sg10
I201
sg11
I83
sg12
g13
sg14
S'peve'
p595
sba(itravian_raidmap
raid
p596
(dp597
g6
I1661
sg7
S'Teutoni'
p598
sg9
I0
sg10
I277
sg11
I65
sg12
g13
sg14
S'SA-RA'
p599
sba(itravian_raidmap
raid
p600
(dp601
g6
I304
sg7
S'Romani'
p602
sg9
I0
sg10
I263
sg11
I57
sg12
g13
sg14
S'mikko'
p603
sba(itravian_raidmap
raid
p604
(dp605
g6
I428
sg7
S'Romani'
p606
sg9
I0
sg10
I254
sg11
I73
sg12
g13
sg14
S'scacco92'
p607
sba(itravian_raidmap
raid
p608
(dp609
g6
I379
sg7
S'Romani'
p610
sg9
I0
sg10
I243
sg11
I112
sg12
g13
sg14
S'slayer91'
p611
sba(itravian_raidmap
raid
p612
(dp613
g6
I273
sg7
S'Galli'
p614
sg9
I0
sg10
I192
sg11
I117
sg12
g13
sg14
S'Mrseat'
p615
sba(itravian_raidmap
raid
p616
(dp617
g6
I769
sg7
S'Romani'
p618
sg9
I0
sg10
I248
sg11
I46
sg12
g13
sg14
S'Stardel'
p619
sba(itravian_raidmap
raid
p620
(dp621
g6
I163
sg7
S'Galli'
p622
sg9
I0
sg10
I200
sg11
I113
sg12
g13
sg14
S'Soldo91'
p623
sba(itravian_raidmap
raid
p624
(dp625
g6
I769
sg7
S'Romani'
p626
sg9
I0
sg10
I247
sg11
I54
sg12
g13
sg14
S'Stardel'
p627
sba(itravian_raidmap
raid
p628
(dp629
g6
I4270
sg7
S'Teutoni'
p630
sg9
I0
sg10
I180
sg11
I44
sg12
g13
sg14
S'Marco guida'
p631
sba(itravian_raidmap
raid
p632
(dp633
g6
I361
sg7
S'Romani'
p634
sg9
I0
sg10
I264
sg11
I64
sg12
g13
sg14
S'fabio ai\xc3\xb9'
p635
sba(itravian_raidmap
raid
p636
(dp637
g6
I429
sg7
S'Romani'
p638
sg9
I0
sg10
I258
sg11
I76
sg12
g13
sg14
S'simo90'
p639
sba(itravian_raidmap
raid
p640
(dp641
g6
I185
sg7
S'Galli'
p642
sg9
I0
sg10
I229
sg11
I35
sg12
g13
sg14
S'giampiux'
p643
sba(itravian_raidmap
raid
p644
(dp645
g6
I845
sg7
S'Romani'
p646
sg9
I0
sg10
I226
sg11
I114
sg12
g13
sg14
S'malto'
p647
sba(itravian_raidmap
raid
p648
(dp649
g6
I231
sg7
S'Romani'
p650
sg9
I0
sg10
I273
sg11
I53
sg12
g13
sg14
S'pavese1'
p651
sba(itravian_raidmap
raid
p652
(dp653
g6
I228
sg7
S'Romani'
p654
sg9
I0
sg10
I273
sg11
I55
sg12
g13
sg14
S'riccardo234'
p655
sba(itravian_raidmap
raid
p656
(dp657
g6
I1365
sg7
S'Romani'
p658
sg9
I0
sg10
I206
sg11
I109
sg12
g13
sg14
S'martocchia'
p659
sba(itravian_raidmap
raid
p660
(dp661
g6
I476
sg7
S'Galli'
p662
sg9
I0
sg10
I210
sg11
I68
sg12
g13
sg14
S'ivan77'
p663
sba(itravian_raidmap
raid
p664
(dp665
g6
I373
sg7
S'Romani'
p666
sg9
I0
sg10
I256
sg11
I95
sg12
g13
sg14
S'pietrus'
p667
sba(itravian_raidmap
raid
p668
(dp669
g6
I797
sg7
S'Romani'
p670
sg9
I0
sg10
I227
sg11
I119
sg12
g13
sg14
S'Tatiana'
p671
sba(itravian_raidmap
raid
p672
(dp673
g6
I845
sg7
S'Romani'
p674
sg9
I0
sg10
I228
sg11
I114
sg12
g13
sg14
S'malto'
p675
sba(itravian_raidmap
raid
p676
(dp677
g6
I4270
sg7
S'Teutoni'
p678
sg9
I0
sg10
I189
sg11
I24
sg12
g13
sg14
S'Marco guida'
p679
sba(itravian_raidmap
raid
p680
(dp681
g6
I797
sg7
S'Romani'
p682
sg9
I0
sg10
I228
sg11
I119
sg12
g13
sg14
S'Tatiana'
p683
sba(itravian_raidmap
raid
p684
(dp685
g6
I123
sg7
S'Romani'
p686
sg9
I0
sg10
I277
sg11
I64
sg12
g13
sg14
S'maggiore'
p687
sba(itravian_raidmap
raid
p688
(dp689
g6
I664
sg7
S'Galli'
p690
sg9
I0
sg10
I183
sg11
I113
sg12
g13
sg14
S'sarti81'
p691
sba(itravian_raidmap
raid
p692
(dp693
g6
I1066
sg7
S'Romani'
p694
sg9
I0
sg10
I234
sg11
I85
sg12
g13
sg14
S'orebilacnip'
p695
sba(itravian_raidmap
raid
p696
(dp697
g6
I1365
sg7
S'Romani'
p698
sg9
I0
sg10
I210
sg11
I111
sg12
g13
sg14
S'martocchia'
p699
sba(itravian_raidmap
raid
p700
(dp701
g6
I1066
sg7
S'Romani'
p702
sg9
I0
sg10
I235
sg11
I84
sg12
g13
sg14
S'orebilacnip'
p703
sba(itravian_raidmap
raid
p704
(dp705
g6
I798
sg7
S'Romani'
p706
sg9
I0
sg10
I230
sg11
I122
sg12
g13
sg14
S'giovyalecalitri'
p707
sba(itravian_raidmap
raid
p708
(dp709
g6
I460
sg7
S'Romani'
p710
sg9
I0
sg10
I256
sg11
I98
sg12
g13
sg14
S'The--Dragon'
p711
sba(itravian_raidmap
raid
p712
(dp713
g6
I551
sg7
S'Romani'
p714
sg9
I0
sg10
I248
sg11
I108
sg12
g13
sg14
S'Bubblay'
p715
sba(itravian_raidmap
raid
p716
(dp717
g6
I798
sg7
S'Romani'
p718
sg9
I0
sg10
I230
sg11
I123
sg12
g13
sg14
S'giovyalecalitri'
p719
sba(itravian_raidmap
raid
p720
(dp721
g6
I373
sg7
S'Romani'
p722
sg9
I0
sg10
I263
sg11
I92
sg12
g13
sg14
S'pietrus'
p723
sba(itravian_raidmap
raid
p724
(dp725
g6
I974
sg7
S'Romani'
p726
sg9
I0
sg10
I235
sg11
I98
sg12
g13
sg14
S'Moreland'
p727
sba(itravian_raidmap
raid
p728
(dp729
g6
I551
sg7
S'Romani'
p730
sg9
I0
sg10
I250
sg11
I108
sg12
g13
sg14
S'Bubblay'
p731
sba(itravian_raidmap
raid
p732
(dp733
g6
I974
sg7
S'Romani'
p734
sg9
I0
sg10
I236
sg11
I98
sg12
g13
sg14
S'Moreland'
p735
sba(itravian_raidmap
raid
p736
(dp737
g6
I478
sg7
S'Romani'
p738
sg9
I0
sg10
I269
sg11
I59
sg12
g13
sg14
S'toty'
p739
sba(itravian_raidmap
raid
p740
(dp741
g6
I2652
sg7
S'Teutoni'
p742
sg9
I0
sg10
I259
sg11
I40
sg12
g13
sg14
S'Celsius v'
p743
sba(itravian_raidmap
raid
p744
(dp745
g6
I4270
sg7
S'Teutoni'
p746
sg9
I0
sg10
I199
sg11
I1
sg12
g13
sg14
S'Marco guida'
p747
sba(itravian_raidmap
raid
p748
(dp749
g6
I422
sg7
S'Romani'
p750
sg9
I0
sg10
I266
sg11
I88
sg12
g13
sg14
S'Mareo'
p751
sba(itravian_raidmap
raid
p752
(dp753
g6
I603
sg7
S'Romani'
p754
sg9
I0
sg10
I268
sg11
I59
sg12
g13
sg14
S'zaluk'
p755
sba(itravian_raidmap
raid
p756
(dp757
g6
I463
sg7
S'Romani'
p758
sg9
I0
sg10
I273
sg11
I64
sg12
g13
sg14
S'jack Ces\xc3\xa0r'
p759
sba(itravian_raidmap
raid
p760
(dp761
g6
I463
sg7
S'Romani'
p762
sg9
I0
sg10
I273
sg11
I65
sg12
g13
sg14
S'jack Ces\xc3\xa0r'
p763
sba(itravian_raidmap
raid
p764
(dp765
g6
I156
sg7
S'Romani'
p766
sg9
I0
sg10
I285
sg11
I68
sg12
g13
sg14
S'Adhara'
p767
sba(itravian_raidmap
raid
p768
(dp769
g6
I721
sg7
S'Romani'
p770
sg9
I0
sg10
I254
sg11
I94
sg12
g13
sg14
S'versace4'
p771
sba(itravian_raidmap
raid
p772
(dp773
g6
I3317
sg7
S'Romani'
p774
sg9
I0
sg10
I163
sg11
I45
sg12
g13
sg14
S'Sede Roma'
p775
sba(itravian_raidmap
raid
p776
(dp777
g6
I1285
sg7
S'Romani'
p778
sg9
I0
sg10
I238
sg11
I78
sg12
g13
sg14
S'cris'
p779
sba(itravian_raidmap
raid
p780
(dp781
g6
I703
sg7
S'Romani'
p782
sg9
I0
sg10
I260
sg11
I86
sg12
g13
sg14
S'claudio 94'
p783
sba(itravian_raidmap
raid
p784
(dp785
g6
I901
sg7
S'Romani'
p786
sg9
I0
sg10
I260
sg11
I56
sg12
g13
sg14
S'armix73'
p787
sba(itravian_raidmap
raid
p788
(dp789
g6
I3814
sg7
S'Teutoni'
p790
sg9
I0
sg10
I225
sg11
I19
sg12
g13
sg14
S'fabryolo'
p791
sba(itravian_raidmap
raid
p792
(dp793
g6
I526
sg7
S'Romani'
p794
sg9
I0
sg10
I271
sg11
I77
sg12
g13
sg14
S'noema'
p795
sba(itravian_raidmap
raid
p796
(dp797
g6
I1488
sg7
S'Romani'
p798
sg9
I0
sg10
I214
sg11
I116
sg12
g13
sg14
S'S.P.Q.R.'
p799
sba(itravian_raidmap
raid
p800
(dp801
g6
I901
sg7
S'Romani'
p802
sg9
I0
sg10
I261
sg11
I56
sg12
g13
sg14
S'armix73'
p803
sba(itravian_raidmap
raid
p804
(dp805
g6
I3317
sg7
S'Romani'
p806
sg9
I0
sg10
I165
sg11
I43
sg12
g13
sg14
S'Sede Roma'
p807
sba(itravian_raidmap
raid
p808
(dp809
g6
I1488
sg7
S'Romani'
p810
sg9
I0
sg10
I214
sg11
I117
sg12
g13
sg14
S'S.P.Q.R.'
p811
sba(itravian_raidmap
raid
p812
(dp813
g6
I577
sg7
S'Romani'
p814
sg9
I0
sg10
I266
sg11
I89
sg12
g13
sg14
S'carinoa'
p815
sba(itravian_raidmap
raid
p816
(dp817
g6
I526
sg7
S'Romani'
p818
sg9
I0
sg10
I272
sg11
I77
sg12
g13
sg14
S'noema'
p819
sba(itravian_raidmap
raid
p820
(dp821
g6
I703
sg7
S'Romani'
p822
sg9
I0
sg10
I259
sg11
I95
sg12
g13
sg14
S'claudio 94'
p823
sba(itravian_raidmap
raid
p824
(dp825
g6
I1488
sg7
S'Romani'
p826
sg9
I0
sg10
I215
sg11
I117
sg12
g13
sg14
S'S.P.Q.R.'
p827
sba(itravian_raidmap
raid
p828
(dp829
g6
I3317
sg7
S'Romani'
p830
sg9
I0
sg10
I166
sg11
I45
sg12
g13
sg14
S'Sede Roma'
p831
sba(itravian_raidmap
raid
p832
(dp833
g6
I1488
sg7
S'Romani'
p834
sg9
I0
sg10
I215
sg11
I118
sg12
g13
sg14
S'S.P.Q.R.'
p835
sba(itravian_raidmap
raid
p836
(dp837
g6
I987
sg7
S'Romani'
p838
sg9
I0
sg10
I252
sg11
I84
sg12
g13
sg14
S'ATtIlLa'
p839
sba(itravian_raidmap
raid
p840
(dp841
g6
I577
sg7
S'Romani'
p842
sg9
I0
sg10
I267
sg11
I91
sg12
g13
sg14
S'carinoa'
p843
sba(itravian_raidmap
raid
p844
(dp845
g6
I3690
sg7
S'Romani'
p846
sg9
I0
sg10
I141
sg11
I71
sg12
g13
sg14
S'ce.se.re'
p847
sba(itravian_raidmap
raid
p848
(dp849
g6
I2562
sg7
S'Romani'
p850
sg9
I0
sg10
I184
sg11
I86
sg12
g13
sg14
S'nefer'
p851
sba(itravian_raidmap
raid
p852
(dp853
g6
I3690
sg7
S'Romani'
p854
sg9
I0
sg10
I141
sg11
I72
sg12
g13
sg14
S'ce.se.re'
p855
sba(itravian_raidmap
raid
p856
(dp857
g6
I1188
sg7
S'Romani'
p858
sg9
I0
sg10
I234
sg11
I110
sg12
g13
sg14
S'lelu'
p859
sba(itravian_raidmap
raid
p860
(dp861
g6
I3690
sg7
S'Romani'
p862
sg9
I0
sg10
I142
sg11
I72
sg12
g13
sg14
S'ce.se.re'
p863
sba(itravian_raidmap
raid
p864
(dp865
g6
I1626
sg7
S'Romani'
p866
sg9
I0
sg10
I220
sg11
I102
sg12
g13
sg14
S'Lupicino'
p867
sba(itravian_raidmap
raid
p868
(dp869
g6
I1376
sg7
S'Galli'
p870
sg9
I0
sg10
I185
sg11
I83
sg12
g13
sg14
S'mataral'
p871
sba(itravian_raidmap
raid
p872
(dp873
g6
I5333
sg7
S'Teutoni'
p874
sg9
I0
sg10
I155
sg11
I78
sg12
g13
sg14
S'Il_Figlioe'
p875
sba(itravian_raidmap
raid
p876
(dp877
g6
I5150
sg7
S'Teutoni'
p878
sg9
I0
sg10
I169
sg11
I67
sg12
g13
sg14
S'russorusso'
p879
sba(itravian_raidmap
raid
p880
(dp881
g6
I5333
sg7
S'Teutoni'
p882
sg9
I0
sg10
I152
sg11
I87
sg12
g13
sg14
S'Il_Figlioe'
p883
sba(itravian_raidmap
raid
p884
(dp885
g6
I5333
sg7
S'Teutoni'
p886
sg9
I0
sg10
I156
sg11
I80
sg12
g13
sg14
S'Il_Figlioe'
p887
sba(itravian_raidmap
raid
p888
(dp889
g6
I5333
sg7
S'Teutoni'
p890
sg9
I0
sg10
I153
sg11
I87
sg12
g13
sg14
S'Il_Figlioe'
p891
sba(itravian_raidmap
raid
p892
(dp893
g6
I1188
sg7
S'Romani'
p894
sg9
I0
sg10
I237
sg11
I118
sg12
g13
sg14
S'lelu'
p895
sba(itravian_raidmap
raid
p896
(dp897
g6
I1047
sg7
S'Romani'
p898
sg9
I0
sg10
I261
sg11
I72
sg12
g13
sg14
S'Merlino'
p899
sba(itravian_raidmap
raid
p900
(dp901
g6
I735
sg7
S'Romani'
p902
sg9
I0
sg10
I277
sg11
I61
sg12
g13
sg14
S'Claudio78'
p903
sba(itravian_raidmap
raid
p904
(dp905
g6
I735
sg7
S'Romani'
p906
sg9
I0
sg10
I277
sg11
I62
sg12
g13
sg14
S'Claudio78'
p907
sba(itravian_raidmap
raid
p908
(dp909
g6
I1047
sg7
S'Romani'
p910
sg9
I0
sg10
I262
sg11
I71
sg12
g13
sg14
S'Merlino'
p911
sba(itravian_raidmap
raid
p912
(dp913
g6
I1047
sg7
S'Romani'
p914
sg9
I0
sg10
I262
sg11
I73
sg12
g13
sg14
S'Merlino'
p915
sba(itravian_raidmap
raid
p916
(dp917
g6
I591
sg7
S'Galli'
p918
sg9
I0
sg10
I213
sg11
I108
sg12
g13
sg14
S'luis2'
p919
sba(itravian_raidmap
raid
p920
(dp921
g6
I3239
sg7
S'Teutoni'
p922
sg9
I0
sg10
I260
sg11
I47
sg12
g13
sg14
S'massenzio'
p923
sba(itravian_raidmap
raid
p924
(dp925
g6
I5724
sg7
S'Teutoni'
p926
sg9
I0
sg10
I160
sg11
I41
sg12
g13
sg14
S'Black Sun'
p927
sba(itravian_raidmap
raid
p928
(dp929
g6
I478
sg7
S'Galli'
p930
sg9
I0
sg10
I228
sg11
I86
sg12
g13
sg14
S'bello 70'
p931
sba(itravian_raidmap
raid
p932
(dp933
g6
I1077
sg7
S'Galli'
p934
sg9
I0
sg10
I209
sg11
I70
sg12
g13
sg14
S'havanavaride'
p935
sba(itravian_raidmap
raid
p936
(dp937
g6
I5724
sg7
S'Teutoni'
p938
sg9
I0
sg10
I161
sg11
I42
sg12
g13
sg14
S'Black Sun'
p939
sba(itravian_raidmap
raid
p940
(dp941
g6
I1433
sg7
S'Romani'
p942
sg9
I0
sg10
I241
sg11
I99
sg12
g13
sg14
S'MetallicO'
p943
sba(itravian_raidmap
raid
p944
(dp945
g6
I1287
sg7
S'Romani'
p946
sg9
I0
sg10
I249
sg11
I95
sg12
g13
sg14
S'spigola'
p947
sba(itravian_raidmap
raid
p948
(dp949
g6
I1287
sg7
S'Romani'
p950
sg9
I0
sg10
I250
sg11
I93
sg12
g13
sg14
S'spigola'
p951
sba(itravian_raidmap
raid
p952
(dp953
g6
I1433
sg7
S'Romani'
p954
sg9
I0
sg10
I241
sg11
I101
sg12
g13
sg14
S'MetallicO'
p955
sba(itravian_raidmap
raid
p956
(dp957
g6
I1287
sg7
S'Romani'
p958
sg9
I0
sg10
I251
sg11
I92
sg12
g13
sg14
S'spigola'
p959
sba(itravian_raidmap
raid
p960
(dp961
g6
I5333
sg7
S'Teutoni'
p962
sg9
I0
sg10
I161
sg11
I92
sg12
g13
sg14
S'Il_Figlioe'
p963
sba(itravian_raidmap
raid
p964
(dp965
g6
I1433
sg7
S'Romani'
p966
sg9
I0
sg10
I242
sg11
I101
sg12
g13
sg14
S'MetallicO'
p967
sba(itravian_raidmap
raid
p968
(dp969
g6
I3239
sg7
S'Teutoni'
p970
sg9
I0
sg10
I266
sg11
I46
sg12
g13
sg14
S'massenzio'
p971
sba(itravian_raidmap
raid
p972
(dp973
g6
I3239
sg7
S'Teutoni'
p974
sg9
I0
sg10
I266
sg11
I47
sg12
g13
sg14
S'massenzio'
p975
sba(itravian_raidmap
raid
p976
(dp977
g6
I3239
sg7
S'Teutoni'
p978
sg9
I0
sg10
I266
sg11
I48
sg12
g13
sg14
S'massenzio'
p979
sba(itravian_raidmap
raid
p980
(dp981
g6
I1046
sg7
S'Romani'
p982
sg9
I0
sg10
I273
sg11
I59
sg12
g13
sg14
S'CARDIF'
p983
sba(itravian_raidmap
raid
p984
(dp985
g6
I1046
sg7
S'Romani'
p986
sg9
I0
sg10
I274
sg11
I59
sg12
g13
sg14
S'CARDIF'
p987
sba(itravian_raidmap
raid
p988
(dp989
g6
I3677
sg7
S'Romani'
p990
sg9
I0
sg10
I160
sg11
I75
sg12
g13
sg14
S'danyontheroad'
p991
sba(itravian_raidmap
raid
p992
(dp993
g6
I825
sg7
S'Romani'
p994
sg9
I0
sg10
I282
sg11
I71
sg12
g13
sg14
S'ebay100'
p995
sba(itravian_raidmap
raid
p996
(dp997
g6
I1917
sg7
S'Romani'
p998
sg9
I0
sg10
I240
sg11
I60
sg12
g13
sg14
S'ziotom'
p999
sba(itravian_raidmap
raid
p1000
(dp1001
g6
I1191
sg7
S'Romani'
p1002
sg9
I0
sg10
I259
sg11
I97
sg12
g13
sg14
S'Gatto Orazio'
p1003
sba(itravian_raidmap
raid
p1004
(dp1005
g6
I1917
sg7
S'Romani'
p1006
sg9
I0
sg10
I240
sg11
I62
sg12
g13
sg14
S'ziotom'
p1007
sba(itravian_raidmap
raid
p1008
(dp1009
g6
I1651
sg7
S'Romani'
p1010
sg9
I0
sg10
I242
sg11
I92
sg12
g13
sg14
S'rosaross'
p1011
sba(itravian_raidmap
raid
p1012
(dp1013
g6
I825
sg7
S'Romani'
p1014
sg9
I0
sg10
I283
sg11
I72
sg12
g13
sg14
S'ebay100'
p1015
sba(itravian_raidmap
raid
p1016
(dp1017
g6
I1917
sg7
S'Romani'
p1018
sg9
I0
sg10
I241
sg11
I61
sg12
g13
sg14
S'ziotom'
p1019
sba(itravian_raidmap
raid
p1020
(dp1021
g6
I1651
sg7
S'Romani'
p1022
sg9
I0
sg10
I243
sg11
I91
sg12
g13
sg14
S'rosaross'
p1023
sba(itravian_raidmap
raid
p1024
(dp1025
g6
I1917
sg7
S'Romani'
p1026
sg9
I0
sg10
I241
sg11
I62
sg12
g13
sg14
S'ziotom'
p1027
sba(itravian_raidmap
raid
p1028
(dp1029
g6
I1430
sg7
S'Romani'
p1030
sg9
I0
sg10
I262
sg11
I59
sg12
g13
sg14
S'fathom'
p1031
sba(itravian_raidmap
raid
p1032
(dp1033
g6
I444
sg7
S'Galli'
p1034
sg9
I0
sg10
I250
sg11
I44
sg12
g13
sg14
S'covenant21kill'
p1035
sba(itravian_raidmap
raid
p1036
(dp1037
g6
I5874
sg7
S'Teutoni'
p1038
sg9
I0
sg10
I170
sg11
I30
sg12
g13
sg14
S'narcio24'
p1039
sba(itravian_raidmap
raid
p1040
(dp1041
g6
I1173
sg7
S'Romani'
p1042
sg9
I0
sg10
I265
sg11
I88
sg12
g13
sg14
S'ciro--'
p1043
sba(itravian_raidmap
raid
p1044
(dp1045
g6
I1942
sg7
S'Romani'
p1046
sg9
I0
sg10
I237
sg11
I75
sg12
g13
sg14
S'frazena96'
p1047
sba(itravian_raidmap
raid
p1048
(dp1049
g6
I5874
sg7
S'Teutoni'
p1050
sg9
I0
sg10
I171
sg11
I29
sg12
g13
sg14
S'narcio24'
p1051
sba(itravian_raidmap
raid
p1052
(dp1053
g6
I5874
sg7
S'Teutoni'
p1054
sg9
I0
sg10
I170
sg11
I35
sg12
g13
sg14
S'narcio24'
p1055
sba(itravian_raidmap
raid
p1056
(dp1057
g6
I1430
sg7
S'Romani'
p1058
sg9
I0
sg10
I262
sg11
I65
sg12
g13
sg14
S'fathom'
p1059
sba(itravian_raidmap
raid
p1060
(dp1061
g6
I542
sg7
S'Galli'
p1062
sg9
I0
sg10
I241
sg11
I71
sg12
g13
sg14
S'DEVILMAN'
p1063
sba(itravian_raidmap
raid
p1064
(dp1065
g6
I1642
sg7
S'Romani'
p1066
sg9
I0
sg10
I257
sg11
I51
sg12
g13
sg14
S'obionekenoby'
p1067
sba(itravian_raidmap
raid
p1068
(dp1069
g6
I1430
sg7
S'Romani'
p1070
sg9
I0
sg10
I264
sg11
I60
sg12
g13
sg14
S'fathom'
p1071
sba(itravian_raidmap
raid
p1072
(dp1073
g6
I1942
sg7
S'Romani'
p1074
sg9
I0
sg10
I239
sg11
I75
sg12
g13
sg14
S'frazena96'
p1075
sba(itravian_raidmap
raid
p1076
(dp1077
g6
I3580
sg7
S'Romani'
p1078
sg9
I0
sg10
I159
sg11
I95
sg12
g13
sg14
S'Karagh'
p1079
sba(itravian_raidmap
raid
p1080
(dp1081
g6
I1642
sg7
S'Romani'
p1082
sg9
I0
sg10
I258
sg11
I50
sg12
g13
sg14
S'obionekenoby'
p1083
sba(itravian_raidmap
raid
p1084
(dp1085
g6
I1642
sg7
S'Romani'
p1086
sg9
I0
sg10
I258
sg11
I51
sg12
g13
sg14
S'obionekenoby'
p1087
sba(itravian_raidmap
raid
p1088
(dp1089
g6
I1942
sg7
S'Romani'
p1090
sg9
I0
sg10
I240
sg11
I75
sg12
g13
sg14
S'frazena96'
p1091
sba(itravian_raidmap
raid
p1092
(dp1093
g6
I3580
sg7
S'Romani'
p1094
sg9
I0
sg10
I160
sg11
I95
sg12
g13
sg14
S'Karagh'
p1095
sba(itravian_raidmap
raid
p1096
(dp1097
g6
I3580
sg7
S'Romani'
p1098
sg9
I0
sg10
I159
sg11
I97
sg12
g13
sg14
S'Karagh'
p1099
sba(itravian_raidmap
raid
p1100
(dp1101
g6
I2044
sg7
S'Romani'
p1102
sg9
I0
sg10
I236
sg11
I76
sg12
g13
sg14
S'malusquo'
p1103
sba(itravian_raidmap
raid
p1104
(dp1105
g6
I5724
sg7
S'Teutoni'
p1106
sg9
I0
sg10
I172
sg11
I63
sg12
g13
sg14
S'Black Sun'
p1107
sba(itravian_raidmap
raid
p1108
(dp1109
g6
I1654
sg7
S'Romani'
p1110
sg9
I0
sg10
I247
sg11
I93
sg12
g13
sg14
S'rosaross'
p1111
sba(itravian_raidmap
raid
p1112
(dp1113
g6
I3580
sg7
S'Romani'
p1114
sg9
I0
sg10
I160
sg11
I97
sg12
g13
sg14
S'Karagh'
p1115
sba(itravian_raidmap
raid
p1116
(dp1117
g6
I6044
sg7
S'Teutoni'
p1118
sg9
I0
sg10
I153
sg11
I77
sg12
g13
sg14
S'vanniii'
p1119
sba(itravian_raidmap
raid
p1120
(dp1121
g6
I5724
sg7
S'Teutoni'
p1122
sg9
I0
sg10
I173
sg11
I63
sg12
g13
sg14
S'Black Sun'
p1123
sba(itravian_raidmap
raid
p1124
(dp1125
g6
I2044
sg7
S'Romani'
p1126
sg9
I0
sg10
I237
sg11
I76
sg12
g13
sg14
S'malusquo'
p1127
sba(itravian_raidmap
raid
p1128
(dp1129
g6
I1805
sg7
S'Romani'
p1130
sg9
I0
sg10
I230
sg11
I118
sg12
g13
sg14
S'giuexpo'
p1131
sba(itravian_raidmap
raid
p1132
(dp1133
g6
I1875
sg7
S'Romani'
p1134
sg9
I0
sg10
I252
sg11
I45
sg12
g13
sg14
S'shumi'
p1135
sba(itravian_raidmap
raid
p1136
(dp1137
g6
I1805
sg7
S'Romani'
p1138
sg9
I0
sg10
I231
sg11
I117
sg12
g13
sg14
S'giuexpo'
p1139
sba(itravian_raidmap
raid
p1140
(dp1141
g6
I3580
sg7
S'Romani'
p1142
sg9
I0
sg10
I161
sg11
I97
sg12
g13
sg14
S'Karagh'
p1143
sba(itravian_raidmap
raid
p1144
(dp1145
g6
I1875
sg7
S'Romani'
p1146
sg9
I0
sg10
I252
sg11
I46
sg12
g13
sg14
S'shumi'
p1147
sba(itravian_raidmap
raid
p1148
(dp1149
g6
I2044
sg7
S'Romani'
p1150
sg9
I0
sg10
I238
sg11
I75
sg12
g13
sg14
S'malusquo'
p1151
sba(itravian_raidmap
raid
p1152
(dp1153
g6
I5400
sg7
S'Teutoni'
p1154
sg9
I0
sg10
I183
sg11
I76
sg12
g13
sg14
S'pozzani'
p1155
sba(itravian_raidmap
raid
p1156
(dp1157
g6
I1875
sg7
S'Romani'
p1158
sg9
I0
sg10
I252
sg11
I47
sg12
g13
sg14
S'shumi'
p1159
sba(itravian_raidmap
raid
p1160
(dp1161
g6
I1805
sg7
S'Romani'
p1162
sg9
I0
sg10
I231
sg11
I118
sg12
g13
sg14
S'giuexpo'
p1163
sba(itravian_raidmap
raid
p1164
(dp1165
g6
I5874
sg7
S'Teutoni'
p1166
sg9
I0
sg10
I178
sg11
I26
sg12
g13
sg14
S'narcio24'
p1167
sba(itravian_raidmap
raid
p1168
(dp1169
g6
I1528
sg7
S'Romani'
p1170
sg9
I0
sg10
I259
sg11
I80
sg12
g13
sg14
S'allstar'
p1171
sba(itravian_raidmap
raid
p1172
(dp1173
g6
I5400
sg7
S'Teutoni'
p1174
sg9
I0
sg10
I185
sg11
I74
sg12
g13
sg14
S'pozzani'
p1175
sba(itravian_raidmap
raid
p1176
(dp1177
g6
I3580
sg7
S'Romani'
p1178
sg9
I0
sg10
I163
sg11
I96
sg12
g13
sg14
S'Karagh'
p1179
sba(itravian_raidmap
raid
p1180
(dp1181
g6
I1532
sg7
S'Romani'
p1182
sg9
I0
sg10
I263
sg11
I66
sg12
g13
sg14
S'Massy221986'
p1183
sba(itravian_raidmap
raid
p1184
(dp1185
g6
I1805
sg7
S'Romani'
p1186
sg9
I0
sg10
I233
sg11
I117
sg12
g13
sg14
S'giuexpo'
p1187
sba(itravian_raidmap
raid
p1188
(dp1189
g6
I1528
sg7
S'Romani'
p1190
sg9
I0
sg10
I260
sg11
I80
sg12
g13
sg14
S'allstar'
p1191
sba(itravian_raidmap
raid
p1192
(dp1193
g6
I1532
sg7
S'Romani'
p1194
sg9
I0
sg10
I264
sg11
I65
sg12
g13
sg14
S'Massy221986'
p1195
sba(itravian_raidmap
raid
p1196
(dp1197
g6
I2044
sg7
S'Romani'
p1198
sg9
I0
sg10
I239
sg11
I78
sg12
g13
sg14
S'malusquo'
p1199
sba(itravian_raidmap
raid
p1200
(dp1201
g6
I2264
sg7
S'Romani'
p1202
sg9
I0
sg10
I237
sg11
I53
sg12
g13
sg14
S'sarnese'
p1203
sba(itravian_raidmap
raid
p1204
(dp1205
g6
I703
sg7
S'Galli'
p1206
sg9
I0
sg10
I245
sg11
I49
sg12
g13
sg14
S'Tommy0581'
p1207
sba(itravian_raidmap
raid
p1208
(dp1209
g6
I1532
sg7
S'Romani'
p1210
sg9
I0
sg10
I265
sg11
I64
sg12
g13
sg14
S'Massy221986'
p1211
sba(itravian_raidmap
raid
p1212
(dp1213
g6
I513
sg7
S'Galli'
p1214
sg9
I0
sg10
I225
sg11
I126
sg12
g13
sg14
S'lzanin'
p1215
sba(itravian_raidmap
raid
p1216
(dp1217
g6
I1532
sg7
S'Romani'
p1218
sg9
I0
sg10
I265
sg11
I65
sg12
g13
sg14
S'Massy221986'
p1219
sba(itravian_raidmap
raid
p1220
(dp1221
g6
I5688
sg7
S'Teutoni'
p1222
sg9
I0
sg10
I170
sg11
I86
sg12
g13
sg14
S'he-man'
p1223
sba(itravian_raidmap
raid
p1224
(dp1225
g6
I5688
sg7
S'Teutoni'
p1226
sg9
I0
sg10
I173
sg11
I81
sg12
g13
sg14
S'he-man'
p1227
sba(itravian_raidmap
raid
p1228
(dp1229
g6
I2264
sg7
S'Romani'
p1230
sg9
I0
sg10
I238
sg11
I56
sg12
g13
sg14
S'sarnese'
p1231
sba(itravian_raidmap
raid
p1232
(dp1233
g6
I4270
sg7
S'Teutoni'
p1234
sg9
I0
sg10
I246
sg11
I32
sg12
g13
sg14
S'Marco guida'
p1235
sba(itravian_raidmap
raid
p1236
(dp1237
g6
I513
sg7
S'Galli'
p1238
sg9
I0
sg10
I226
sg11
I126
sg12
g13
sg14
S'lzanin'
p1239
sba(itravian_raidmap
raid
p1240
(dp1241
g6
I1285
sg7
S'Romani'
p1242
sg9
I0
sg10
I272
sg11
I81
sg12
g13
sg14
S'cris'
p1243
sba(itravian_raidmap
raid
p1244
(dp1245
g6
I2264
sg7
S'Romani'
p1246
sg9
I0
sg10
I238
sg11
I57
sg12
g13
sg14
S'sarnese'
p1247
sba(itravian_raidmap
raid
p1248
(dp1249
g6
I2044
sg7
S'Romani'
p1250
sg9
I0
sg10
I240
sg11
I82
sg12
g13
sg14
S'malusquo'
p1251
sba(itravian_raidmap
raid
p1252
(dp1253
g6
I443
sg7
S'Galli'
p1254
sg9
I0
sg10
I238
sg11
I109
sg12
g13
sg14
S'Damo88'
p1255
sba(itravian_raidmap
raid
p1256
(dp1257
g6
I5688
sg7
S'Teutoni'
p1258
sg9
I0
sg10
I173
sg11
I83
sg12
g13
sg14
S'he-man'
p1259
sba(itravian_raidmap
raid
p1260
(dp1261
g6
I2323
sg7
S'Romani'
p1262
sg9
I0
sg10
I212
sg11
I118
sg12
g13
sg14
S'Leo4'
p1263
sba(itravian_raidmap
raid
p1264
(dp1265
g6
I6044
sg7
S'Teutoni'
p1266
sg9
I0
sg10
I163
sg11
I71
sg12
g13
sg14
S'vanniii'
p1267
sba(itravian_raidmap
raid
p1268
(dp1269
g6
I3580
sg7
S'Romani'
p1270
sg9
I0
sg10
I167
sg11
I96
sg12
g13
sg14
S'Karagh'
p1271
sba(itravian_raidmap
raid
p1272
(dp1273
g6
I443
sg7
S'Galli'
p1274
sg9
I0
sg10
I238
sg11
I110
sg12
g13
sg14
S'Damo88'
p1275
sba(itravian_raidmap
raid
p1276
(dp1277
g6
I2323
sg7
S'Romani'
p1278
sg9
I0
sg10
I213
sg11
I117
sg12
g13
sg14
S'Leo4'
p1279
sba(itravian_raidmap
raid
p1280
(dp1281
g6
I2264
sg7
S'Romani'
p1282
sg9
I0
sg10
I239
sg11
I57
sg12
g13
sg14
S'sarnese'
p1283
sba(itravian_raidmap
raid
p1284
(dp1285
g6
I6044
sg7
S'Teutoni'
p1286
sg9
I0
sg10
I164
sg11
I71
sg12
g13
sg14
S'vanniii'
p1287
sba(itravian_raidmap
raid
p1288
(dp1289
g6
I5400
sg7
S'Teutoni'
p1290
sg9
I0
sg10
I191
sg11
I73
sg12
g13
sg14
S'pozzani'
p1291
sba(itravian_raidmap
raid
p1292
(dp1293
g6
I5400
sg7
S'Teutoni'
p1294
sg9
I0
sg10
I191
sg11
I75
sg12
g13
sg14
S'pozzani'
p1295
sba(itravian_raidmap
raid
p1296
(dp1297
g6
I1285
sg7
S'Romani'
p1298
sg9
I0
sg10
I274
sg11
I81
sg12
g13
sg14
S'cris'
p1299
sba(itravian_raidmap
raid
p1300
(dp1301
g6
I5400
sg7
S'Teutoni'
p1302
sg9
I0
sg10
I192
sg11
I73
sg12
g13
sg14
S'pozzani'
p1303
sba(itravian_raidmap
raid
p1304
(dp1305
g6
I5400
sg7
S'Teutoni'
p1306
sg9
I0
sg10
I191
sg11
I76
sg12
g13
sg14
S'pozzani'
p1307
sba(itravian_raidmap
raid
p1308
(dp1309
g6
I6044
sg7
S'Teutoni'
p1310
sg9
I0
sg10
I164
sg11
I74
sg12
g13
sg14
S'vanniii'
p1311
sba(itravian_raidmap
raid
p1312
(dp1313
g6
I427
sg7
S'Galli'
p1314
sg9
I0
sg10
I235
sg11
I121
sg12
g13
sg14
S'Stinger'
p1315
sba(itravian_raidmap
raid
p1316
(dp1317
g6
I4744
sg7
S'Teutoni'
p1318
sg9
I0
sg10
I193
sg11
I130
sg12
g13
sg14
S'Mazinga-Dok'
p1319
sba(itravian_raidmap
raid
p1320
(dp1321
g6
I5400
sg7
S'Teutoni'
p1322
sg9
I0
sg10
I192
sg11
I76
sg12
g13
sg14
S'pozzani'
p1323
sba(itravian_raidmap
raid
p1324
(dp1325
g6
I1908
sg7
S'Romani'
p1326
sg9
I0
sg10
I245
sg11
I92
sg12
g13
sg14
S'lino agostinis'
p1327
sba(itravian_raidmap
raid
p1328
(dp1329
g6
I427
sg7
S'Galli'
p1330
sg9
I0
sg10
I235
sg11
I122
sg12
g13
sg14
S'Stinger'
p1331
sba(itravian_raidmap
raid
p1332
(dp1333
g6
I3624
sg7
S'Romani'
p1334
sg9
I0
sg10
I181
sg11
I68
sg12
g13
sg14
S'alexandrus'
p1335
sba(itravian_raidmap
raid
p1336
(dp1337
g6
I1908
sg7
S'Romani'
p1338
sg9
I0
sg10
I245
sg11
I93
sg12
g13
sg14
S'lino agostinis'
p1339
sba(itravian_raidmap
raid
p1340
(dp1341
g6
I1420
sg7
S'Galli'
p1342
sg9
I0
sg10
I217
sg11
I61
sg12
g13
sg14
S'roberto95'
p1343
sba(itravian_raidmap
raid
p1344
(dp1345
g6
I1908
sg7
S'Romani'
p1346
sg9
I0
sg10
I245
sg11
I94
sg12
g13
sg14
S'lino agostinis'
p1347
sba(itravian_raidmap
raid
p1348
(dp1349
g6
I5688
sg7
S'Teutoni'
p1350
sg9
I0
sg10
I175
sg11
I89
sg12
g13
sg14
S'he-man'
p1351
sba(itravian_raidmap
raid
p1352
(dp1353
g6
I5688
sg7
S'Teutoni'
p1354
sg9
I0
sg10
I176
sg11
I89
sg12
g13
sg14
S'he-man'
p1355
sba(itravian_raidmap
raid
p1356
(dp1357
g6
I1420
sg7
S'Galli'
p1358
sg9
I0
sg10
I218
sg11
I61
sg12
g13
sg14
S'roberto95'
p1359
sba(itravian_raidmap
raid
p1360
(dp1361
g6
I5400
sg7
S'Teutoni'
p1362
sg9
I0
sg10
I192
sg11
I82
sg12
g13
sg14
S'pozzani'
p1363
sba(itravian_raidmap
raid
p1364
(dp1365
g6
I5558
sg7
S'Teutoni'
p1366
sg9
I0
sg10
I194
sg11
I58
sg12
g13
sg14
S'seem_it'
p1367
sba(itravian_raidmap
raid
p1368
(dp1369
g6
I5688
sg7
S'Teutoni'
p1370
sg9
I0
sg10
I177
sg11
I88
sg12
g13
sg14
S'he-man'
p1371
sba(itravian_raidmap
raid
p1372
(dp1373
g6
I5688
sg7
S'Teutoni'
p1374
sg9
I0
sg10
I177
sg11
I89
sg12
g13
sg14
S'he-man'
p1375
sba(itravian_raidmap
raid
p1376
(dp1377
g6
I1420
sg7
S'Galli'
p1378
sg9
I0
sg10
I219
sg11
I61
sg12
g13
sg14
S'roberto95'
p1379
sba(itravian_raidmap
raid
p1380
(dp1381
g6
I3608
sg7
S'Romani'
p1382
sg9
I0
sg10
I169
sg11
I101
sg12
g13
sg14
S'EmyTheGoddess'
p1383
sba(itravian_raidmap
raid
p1384
(dp1385
g6
I1420
sg7
S'Galli'
p1386
sg9
I0
sg10
I219
sg11
I62
sg12
g13
sg14
S'roberto95'
p1387
sba(itravian_raidmap
raid
p1388
(dp1389
g6
I5558
sg7
S'Teutoni'
p1390
sg9
I0
sg10
I196
sg11
I58
sg12
g13
sg14
S'seem_it'
p1391
sba(itravian_raidmap
raid
p1392
(dp1393
g6
I5558
sg7
S'Teutoni'
p1394
sg9
I0
sg10
I195
sg11
I62
sg12
g13
sg14
S'seem_it'
p1395
sba(itravian_raidmap
raid
p1396
(dp1397
g6
I5688
sg7
S'Teutoni'
p1398
sg9
I0
sg10
I177
sg11
I92
sg12
g13
sg14
S'he-man'
p1399
sba(itravian_raidmap
raid
p1400
(dp1401
g6
I5558
sg7
S'Teutoni'
p1402
sg9
I0
sg10
I195
sg11
I63
sg12
g13
sg14
S'seem_it'
p1403
sba(itravian_raidmap
raid
p1404
(dp1405
g6
I5558
sg7
S'Teutoni'
p1406
sg9
I0
sg10
I197
sg11
I57
sg12
g13
sg14
S'seem_it'
p1407
sba(itravian_raidmap
raid
p1408
(dp1409
g6
I5558
sg7
S'Teutoni'
p1410
sg9
I0
sg10
I197
sg11
I58
sg12
g13
sg14
S'seem_it'
p1411
sba(itravian_raidmap
raid
p1412
(dp1413
g6
I5688
sg7
S'Teutoni'
p1414
sg9
I0
sg10
I180
sg11
I89
sg12
g13
sg14
S'he-man'
p1415
sba(itravian_raidmap
raid
p1416
(dp1417
g6
I5400
sg7
S'Teutoni'
p1418
sg9
I0
sg10
I198
sg11
I77
sg12
g13
sg14
S'pozzani'
p1419
sba(itravian_raidmap
raid
p1420
(dp1421
g6
I5558
sg7
S'Teutoni'
p1422
sg9
I0
sg10
I198
sg11
I58
sg12
g13
sg14
S'seem_it'
p1423
sba(itravian_raidmap
raid
p1424
(dp1425
g6
I2234
sg7
S'Romani'
p1426
sg9
I0
sg10
I239
sg11
I85
sg12
g13
sg14
S'bobbino'
p1427
sba(itravian_raidmap
raid
p1428
(dp1429
g6
I1685
sg7
S'Romani'
p1430
sg9
I0
sg10
I258
sg11
I98
sg12
g13
sg14
S'Saginax'
p1431
sba(itravian_raidmap
raid
p1432
(dp1433
g6
I5688
sg7
S'Teutoni'
p1434
sg9
I0
sg10
I183
sg11
I85
sg12
g13
sg14
S'he-man'
p1435
sba(itravian_raidmap
raid
p1436
(dp1437
g6
I2234
sg7
S'Romani'
p1438
sg9
I0
sg10
I240
sg11
I85
sg12
g13
sg14
S'bobbino'
p1439
sba(itravian_raidmap
raid
p1440
(dp1441
g6
I1365
sg7
S'Galli'
p1442
sg9
I0
sg10
I220
sg11
I74
sg12
g13
sg14
S'MassiP'
p1443
sba(itravian_raidmap
raid
p1444
(dp1445
g6
I220
sg7
S'Galli'
p1446
sg9
I0
sg10
I264
sg11
I88
sg12
g13
sg14
S'poenix77'
p1447
sba(itravian_raidmap
raid
p1448
(dp1449
g6
I1864
sg7
S'Romani'
p1450
sg9
I0
sg10
I263
sg11
I61
sg12
g13
sg14
S'paolo.carmine'
p1451
sba(itravian_raidmap
raid
p1452
(dp1453
g6
I4590
sg7
S'Teutoni'
p1454
sg9
I0
sg10
I244
sg11
I39
sg12
g13
sg14
S'yiam'
p1455
sba(itravian_raidmap
raid
p1456
(dp1457
g6
I260
sg7
S'Galli'
p1458
sg9
I0
sg10
I264
sg11
I83
sg12
g13
sg14
S'misti2'
p1459
sba(itravian_raidmap
raid
p1460
(dp1461
g6
I1365
sg7
S'Galli'
p1462
sg9
I0
sg10
I220
sg11
I76
sg12
g13
sg14
S'MassiP'
p1463
sba(itravian_raidmap
raid
p1464
(dp1465
g6
I2170
sg7
S'Romani'
p1466
sg9
I0
sg10
I233
sg11
I111
sg12
g13
sg14
S'superchicca'
p1467
sba(itravian_raidmap
raid
p1468
(dp1469
g6
I5558
sg7
S'Teutoni'
p1470
sg9
I0
sg10
I200
sg11
I62
sg12
g13
sg14
S'seem_it'
p1471
sba(itravian_raidmap
raid
p1472
(dp1473
g6
I2170
sg7
S'Romani'
p1474
sg9
I0
sg10
I233
sg11
I113
sg12
g13
sg14
S'superchicca'
p1475
sba(itravian_raidmap
raid
p1476
(dp1477
g6
I1365
sg7
S'Galli'
p1478
sg9
I0
sg10
I222
sg11
I74
sg12
g13
sg14
S'MassiP'
p1479
sba(itravian_raidmap
raid
p1480
(dp1481
g6
I1265
sg7
S'Galli'
p1482
sg9
I0
sg10
I216
sg11
I100
sg12
g13
sg14
S'cianuro'
p1483
sba(itravian_raidmap
raid
p1484
(dp1485
g6
I2170
sg7
S'Romani'
p1486
sg9
I0
sg10
I233
sg11
I115
sg12
g13
sg14
S'superchicca'
p1487
sba(itravian_raidmap
raid
p1488
(dp1489
g6
I5150
sg7
S'Teutoni'
p1490
sg9
I0
sg10
I212
sg11
I83
sg12
g13
sg14
S'russorusso'
p1491
sba(itravian_raidmap
raid
p1492
(dp1493
g6
I2170
sg7
S'Romani'
p1494
sg9
I0
sg10
I234
sg11
I114
sg12
g13
sg14
S'superchicca'
p1495
sba(itravian_raidmap
raid
p1496
(dp1497
g6
I5150
sg7
S'Teutoni'
p1498
sg9
I0
sg10
I213
sg11
I83
sg12
g13
sg14
S'russorusso'
p1499
sba(itravian_raidmap
raid
p1500
(dp1501
g6
I792
sg7
S'Galli'
p1502
sg9
I0
sg10
I229
sg11
I119
sg12
g13
sg14
S'RIDDICK'
p1503
sba(itravian_raidmap
raid
p1504
(dp1505
g6
I2323
sg7
S'Romani'
p1506
sg9
I0
sg10
I220
sg11
I129
sg12
g13
sg14
S'Leo4'
p1507
sba(itravian_raidmap
raid
p1508
(dp1509
g6
I792
sg7
S'Galli'
p1510
sg9
I0
sg10
I229
sg11
I120
sg12
g13
sg14
S'RIDDICK'
p1511
sba(itravian_raidmap
raid
p1512
(dp1513
g6
I5150
sg7
S'Teutoni'
p1514
sg9
I0
sg10
I214
sg11
I83
sg12
g13
sg14
S'russorusso'
p1515
sba(itravian_raidmap
raid
p1516
(dp1517
g6
I599
sg7
S'Galli'
p1518
sg9
I0
sg10
I247
sg11
I101
sg12
g13
sg14
S'vercix84'
p1519
sba(itravian_raidmap
raid
p1520
(dp1521
g6
I2323
sg7
S'Romani'
p1522
sg9
I0
sg10
I221
sg11
I130
sg12
g13
sg14
S'Leo4'
p1523
sba(itravian_raidmap
raid
p1524
(dp1525
g6
I2272
sg7
S'Romani'
p1526
sg9
I0
sg10
I237
sg11
I104
sg12
g13
sg14
S'william_ap'
p1527
sba(itravian_raidmap
raid
p1528
(dp1529
g6
I1866
sg7
S'Romani'
p1530
sg9
I0
sg10
I269
sg11
I60
sg12
g13
sg14
S'paolo.carmine'
p1531
sba(itravian_raidmap
raid
p1532
(dp1533
g6
I599
sg7
S'Galli'
p1534
sg9
I0
sg10
I248
sg11
I103
sg12
g13
sg14
S'vercix84'
p1535
sba(itravian_raidmap
raid
p1536
(dp1537
g6
I5874
sg7
S'Teutoni'
p1538
sg9
I0
sg10
I204
sg11
I8
sg12
g13
sg14
S'narcio24'
p1539
sba(itravian_raidmap
raid
p1540
(dp1541
g6
I2170
sg7
S'Romani'
p1542
sg9
I0
sg10
I241
sg11
I109
sg12
g13
sg14
S'superchicca'
p1543
sba(itravian_raidmap
raid
p1544
(dp1545
g6
I2690
sg7
S'Romani'
p1546
sg9
I0
sg10
I239
sg11
I48
sg12
g13
sg14
S'keekeeno'
p1547
sba(itravian_raidmap
raid
p1548
(dp1549
g6
I5558
sg7
S'Teutoni'
p1550
sg9
I0
sg10
I210
sg11
I57
sg12
g13
sg14
S'seem_it'
p1551
sba(itravian_raidmap
raid
p1552
(dp1553
g6
I5874
sg7
S'Teutoni'
p1554
sg9
I0
sg10
I205
sg11
I9
sg12
g13
sg14
S'narcio24'
p1555
sba(itravian_raidmap
raid
p1556
(dp1557
g6
I1543
sg7
S'Galli'
p1558
sg9
I0
sg10
I203
sg11
I112
sg12
g13
sg14
S'FeDe1990'
p1559
sba(itravian_raidmap
raid
p1560
(dp1561
g6
I1543
sg7
S'Galli'
p1562
sg9
I0
sg10
I202
sg11
I114
sg12
g13
sg14
S'FeDe1990'
p1563
sba(itravian_raidmap
raid
p1564
(dp1565
g6
I2272
sg7
S'Romani'
p1566
sg9
I0
sg10
I241
sg11
I102
sg12
g13
sg14
S'william_ap'
p1567
sba(itravian_raidmap
raid
p1568
(dp1569
g6
I1866
sg7
S'Romani'
p1570
sg9
I0
sg10
I270
sg11
I66
sg12
g13
sg14
S'paolo.carmine'
p1571
sba(itravian_raidmap
raid
p1572
(dp1573
g6
I4471
sg7
S'Teutoni'
p1574
sg9
I0
sg10
I252
sg11
I72
sg12
g13
sg14
S'berta'
p1575
sba(itravian_raidmap
raid
p1576
(dp1577
g6
I2690
sg7
S'Romani'
p1578
sg9
I0
sg10
I240
sg11
I50
sg12
g13
sg14
S'keekeeno'
p1579
sba(itravian_raidmap
raid
p1580
(dp1581
g6
I2264
sg7
S'Romani'
p1582
sg9
I0
sg10
I255
sg11
I61
sg12
g13
sg14
S'sarnese'
p1583
sba(itravian_raidmap
raid
p1584
(dp1585
g6
I1866
sg7
S'Romani'
p1586
sg9
I0
sg10
I270
sg11
I67
sg12
g13
sg14
S'paolo.carmine'
p1587
sba(itravian_raidmap
raid
p1588
(dp1589
g6
I1543
sg7
S'Galli'
p1590
sg9
I0
sg10
I203
sg11
I113
sg12
g13
sg14
S'FeDe1990'
p1591
sba(itravian_raidmap
raid
p1592
(dp1593
g6
I5874
sg7
S'Teutoni'
p1594
sg9
I0
sg10
I206
sg11
I9
sg12
g13
sg14
S'narcio24'
p1595
sba(itravian_raidmap
raid
p1596
(dp1597
g6
I2272
sg7
S'Romani'
p1598
sg9
I0
sg10
I241
sg11
I103
sg12
g13
sg14
S'william_ap'
p1599
sba(itravian_raidmap
raid
p1600
(dp1601
g6
I4471
sg7
S'Teutoni'
p1602
sg9
I0
sg10
I253
sg11
I70
sg12
g13
sg14
S'berta'
p1603
sba(itravian_raidmap
raid
p1604
(dp1605
g6
I484
sg7
S'Galli'
p1606
sg9
I0
sg10
I257
sg11
I98
sg12
g13
sg14
S'Chiara Taormina'
p1607
sba(itravian_raidmap
raid
p1608
(dp1609
g6
I5150
sg7
S'Teutoni'
p1610
sg9
I0
sg10
I220
sg11
I85
sg12
g13
sg14
S'russorusso'
p1611
sba(itravian_raidmap
raid
p1612
(dp1613
g6
I2272
sg7
S'Romani'
p1614
sg9
I0
sg10
I242
sg11
I102
sg12
g13
sg14
S'william_ap'
p1615
sba(itravian_raidmap
raid
p1616
(dp1617
g6
I484
sg7
S'Galli'
p1618
sg9
I0
sg10
I258
sg11
I96
sg12
g13
sg14
S'Chiara Taormina'
p1619
sba(itravian_raidmap
raid
p1620
(dp1621
g6
I4471
sg7
S'Teutoni'
p1622
sg9
I0
sg10
I254
sg11
I69
sg12
g13
sg14
S'berta'
p1623
sba(itravian_raidmap
raid
p1624
(dp1625
g6
I2234
sg7
S'Romani'
p1626
sg9
I0
sg10
I249
sg11
I89
sg12
g13
sg14
S'bobbino'
p1627
sba(itravian_raidmap
raid
p1628
(dp1629
g6
I4471
sg7
S'Teutoni'
p1630
sg9
I0
sg10
I254
sg11
I70
sg12
g13
sg14
S'berta'
p1631
sba(itravian_raidmap
raid
p1632
(dp1633
g6
I4471
sg7
S'Teutoni'
p1634
sg9
I0
sg10
I252
sg11
I77
sg12
g13
sg14
S'berta'
p1635
sba(itravian_raidmap
raid
p1636
(dp1637
g6
I5148
sg7
S'Teutoni'
p1638
sg9
I0
sg10
I210
sg11
I109
sg12
g13
sg14
S'DEDO1958'
p1639
sba(itravian_raidmap
raid
p1640
(dp1641
g6
I2445
sg7
S'Romani'
p1642
sg9
I0
sg10
I239
sg11
I93
sg12
g13
sg14
S'ziopeter'
p1643
sba(itravian_raidmap
raid
p1644
(dp1645
g6
I4471
sg7
S'Teutoni'
p1646
sg9
I0
sg10
I253
sg11
I76
sg12
g13
sg14
S'berta'
p1647
sba(itravian_raidmap
raid
p1648
(dp1649
g6
I4471
sg7
S'Teutoni'
p1650
sg9
I0
sg10
I253
sg11
I77
sg12
g13
sg14
S'berta'
p1651
sba(itravian_raidmap
raid
p1652
(dp1653
g6
I4471
sg7
S'Teutoni'
p1654
sg9
I0
sg10
I255
sg11
I71
sg12
g13
sg14
S'berta'
p1655
sba(itravian_raidmap
raid
p1656
(dp1657
g6
I5874
sg7
S'Teutoni'
p1658
sg9
I0
sg10
I209
sg11
I8
sg12
g13
sg14
S'narcio24'
p1659
sba(itravian_raidmap
raid
p1660
(dp1661
g6
I2272
sg7
S'Romani'
p1662
sg9
I0
sg10
I246
sg11
I97
sg12
g13
sg14
S'william_ap'
p1663
sba(itravian_raidmap
raid
p1664
(dp1665
g6
I1232
sg7
S'Galli'
p1666
sg9
I0
sg10
I220
sg11
I112
sg12
g13
sg14
S'Martina Pigoni'
p1667
sba(itravian_raidmap
raid
p1668
(dp1669
g6
I3624
sg7
S'Romani'
p1670
sg9
I0
sg10
I202
sg11
I60
sg12
g13
sg14
S'alexandrus'
p1671
sba(itravian_raidmap
raid
p1672
(dp1673
g6
I2445
sg7
S'Romani'
p1674
sg9
I0
sg10
I240
sg11
I96
sg12
g13
sg14
S'ziopeter'
p1675
sba(itravian_raidmap
raid
p1676
(dp1677
g6
I5544
sg7
S'Teutoni'
p1678
sg9
I0
sg10
I210
sg11
I77
sg12
g13
sg14
S'arin'
p1679
sba(itravian_raidmap
raid
p1680
(dp1681
g6
I2690
sg7
S'Romani'
p1682
sg9
I0
sg10
I246
sg11
I37
sg12
g13
sg14
S'keekeeno'
p1683
sba(itravian_raidmap
raid
p1684
(dp1685
g6
I2445
sg7
S'Romani'
p1686
sg9
I0
sg10
I241
sg11
I94
sg12
g13
sg14
S'ziopeter'
p1687
sba(itravian_raidmap
raid
p1688
(dp1689
g6
I1122
sg7
S'Galli'
p1690
sg9
I0
sg10
I249
sg11
I40
sg12
g13
sg14
S'Gio4Life'
p1691
sba(itravian_raidmap
raid
p1692
(dp1693
g6
I2445
sg7
S'Romani'
p1694
sg9
I0
sg10
I241
sg11
I95
sg12
g13
sg14
S'ziopeter'
p1695
sba(itravian_raidmap
raid
p1696
(dp1697
g6
I5874
sg7
S'Teutoni'
p1698
sg9
I0
sg10
I211
sg11
I10
sg12
g13
sg14
S'narcio24'
p1699
sba(itravian_raidmap
raid
p1700
(dp1701
g6
I2445
sg7
S'Romani'
p1702
sg9
I0
sg10
I241
sg11
I96
sg12
g13
sg14
S'ziopeter'
p1703
sba(itravian_raidmap
raid
p1704
(dp1705
g6
I2594
sg7
S'Romani'
p1706
sg9
I0
sg10
I249
sg11
I48
sg12
g13
sg14
S'GiulioCesare'
p1707
sba(itravian_raidmap
raid
p1708
(dp1709
g6
I3624
sg7
S'Romani'
p1710
sg9
I0
sg10
I201
sg11
I69
sg12
g13
sg14
S'alexandrus'
p1711
sba(itravian_raidmap
raid
p1712
(dp1713
g6
I3624
sg7
S'Romani'
p1714
sg9
I0
sg10
I201
sg11
I70
sg12
g13
sg14
S'alexandrus'
p1715
sba(itravian_raidmap
raid
p1716
(dp1717
g6
I596
sg7
S'Galli'
p1718
sg9
I0
sg10
I267
sg11
I63
sg12
g13
sg14
S'AL CRANE'
p1719
sba(itravian_raidmap
raid
p1720
(dp1721
g6
I3624
sg7
S'Romani'
p1722
sg9
I0
sg10
I201
sg11
I71
sg12
g13
sg14
S'alexandrus'
p1723
sba(itravian_raidmap
raid
p1724
(dp1725
g6
I2594
sg7
S'Romani'
p1726
sg9
I0
sg10
I250
sg11
I47
sg12
g13
sg14
S'GiulioCesare'
p1727
sba(itravian_raidmap
raid
p1728
(dp1729
g6
I517
sg7
S'Galli'
p1730
sg9
I0
sg10
I267
sg11
I77
sg12
g13
sg14
S'picionasipasi'
p1731
sba(itravian_raidmap
raid
p1732
(dp1733
g6
I2594
sg7
S'Romani'
p1734
sg9
I0
sg10
I250
sg11
I48
sg12
g13
sg14
S'GiulioCesare'
p1735
sba(itravian_raidmap
raid
p1736
(dp1737
g6
I3624
sg7
S'Romani'
p1738
sg9
I0
sg10
I202
sg11
I69
sg12
g13
sg14
S'alexandrus'
p1739
sba(itravian_raidmap
raid
p1740
(dp1741
g6
I2594
sg7
S'Romani'
p1742
sg9
I0
sg10
I250
sg11
I49
sg12
g13
sg14
S'GiulioCesare'
p1743
sba(itravian_raidmap
raid
p1744
(dp1745
g6
I1122
sg7
S'Galli'
p1746
sg9
I0
sg10
I251
sg11
I40
sg12
g13
sg14
S'Gio4Life'
p1747
sba(itravian_raidmap
raid
p1748
(dp1749
g6
I2594
sg7
S'Romani'
p1750
sg9
I0
sg10
I251
sg11
I48
sg12
g13
sg14
S'GiulioCesare'
p1751
sba(itravian_raidmap
raid
p1752
(dp1753
g6
I5347
sg7
S'Teutoni'
p1754
sg9
I0
sg10
I227
sg11
I62
sg12
g13
sg14
S'SAM'
p1755
sba(itravian_raidmap
raid
p1756
(dp1757
g6
I5344
sg7
S'Teutoni'
p1758
sg9
I0
sg10
I233
sg11
I42
sg12
g13
sg14
S'SAM'
p1759
sba(itravian_raidmap
raid
p1760
(dp1761
g6
I5347
sg7
S'Teutoni'
p1762
sg9
I0
sg10
I231
sg11
I53
sg12
g13
sg14
S'SAM'
p1763
sba(itravian_raidmap
raid
p1764
(dp1765
g6
I4270
sg7
S'Teutoni'
p1766
sg9
I0
sg10
I265
sg11
I92
sg12
g13
sg14
S'Marco guida'
p1767
sba(itravian_raidmap
raid
p1768
(dp1769
g6
I5148
sg7
S'Teutoni'
p1770
sg9
I0
sg10
I222
sg11
I105
sg12
g13
sg14
S'DEDO1958'
p1771
sba(itravian_raidmap
raid
p1772
(dp1773
g6
I548
sg7
S'Galli'
p1774
sg9
I0
sg10
I270
sg11
I71
sg12
g13
sg14
S'andry64'
p1775
sba(itravian_raidmap
raid
p1776
(dp1777
g6
I548
sg7
S'Galli'
p1778
sg9
I0
sg10
I270
sg11
I72
sg12
g13
sg14
S'andry64'
p1779
sba(itravian_raidmap
raid
p1780
(dp1781
g6
I2690
sg7
S'Romani'
p1782
sg9
I0
sg10
I248
sg11
I59
sg12
g13
sg14
S'keekeeno'
p1783
sba(itravian_raidmap
raid
p1784
(dp1785
g6
I5347
sg7
S'Teutoni'
p1786
sg9
I0
sg10
I233
sg11
I55
sg12
g13
sg14
S'SAM'
p1787
sba(itravian_raidmap
raid
p1788
(dp1789
g6
I5344
sg7
S'Teutoni'
p1790
sg9
I0
sg10
I230
sg11
I69
sg12
g13
sg14
S'SAM'
p1791
sba(itravian_raidmap
raid
p1792
(dp1793
g6
I5347
sg7
S'Teutoni'
p1794
sg9
I0
sg10
I233
sg11
I58
sg12
g13
sg14
S'SAM'
p1795
sba(itravian_raidmap
raid
p1796
(dp1797
g6
I2690
sg7
S'Romani'
p1798
sg9
I0
sg10
I249
sg11
I58
sg12
g13
sg14
S'keekeeno'
p1799
sba(itravian_raidmap
raid
p1800
(dp1801
g6
I450
sg7
S'Galli'
p1802
sg9
I0
sg10
I275
sg11
I75
sg12
g13
sg14
S'giuseppe08'
p1803
sba(itravian_raidmap
raid
p1804
(dp1805
g6
I5344
sg7
S'Teutoni'
p1806
sg9
I0
sg10
I237
sg11
I43
sg12
g13
sg14
S'SAM'
p1807
sba(itravian_raidmap
raid
p1808
(dp1809
g6
I5150
sg7
S'Teutoni'
p1810
sg9
I0
sg10
I227
sg11
I102
sg12
g13
sg14
S'russorusso'
p1811
sba(itravian_raidmap
raid
p1812
(dp1813
g6
I531
sg7
S'Galli'
p1814
sg9
I0
sg10
I266
sg11
I94
sg12
g13
sg14
S'cowabunga'
p1815
sba(itravian_raidmap
raid
p1816
(dp1817
g6
I7299
sg7
S'Teutoni'
p1818
sg9
I0
sg10
I158
sg11
I48
sg12
g13
sg14
S'sundio'
p1819
sba(itravian_raidmap
raid
p1820
(dp1821
g6
I6740
sg7
S'Teutoni'
p1822
sg9
I0
sg10
I158
sg11
I101
sg12
g13
sg14
S'incamax'
p1823
sba(itravian_raidmap
raid
p1824
(dp1825
g6
I6740
sg7
S'Teutoni'
p1826
sg9
I0
sg10
I159
sg11
I101
sg12
g13
sg14
S'incamax'
p1827
sba(itravian_raidmap
raid
p1828
(dp1829
g6
I2044
sg7
S'Romani'
p1830
sg9
I0
sg10
I274
sg11
I79
sg12
g13
sg14
S'malusquo'
p1831
sba(itravian_raidmap
raid
p1832
(dp1833
g6
I3437
sg7
S'Romani'
p1834
sg9
I0
sg10
I201
sg11
I111
sg12
g13
sg14
S'Simplicio'
p1835
sba(itravian_raidmap
raid
p1836
(dp1837
g6
I5150
sg7
S'Teutoni'
p1838
sg9
I0
sg10
I231
sg11
I103
sg12
g13
sg14
S'russorusso'
p1839
sba(itravian_raidmap
raid
p1840
(dp1841
g6
I3437
sg7
S'Romani'
p1842
sg9
I0
sg10
I201
sg11
I112
sg12
g13
sg14
S'Simplicio'
p1843
sba(itravian_raidmap
raid
p1844
(dp1845
g6
I366
sg7
S'Galli'
p1846
sg9
I0
sg10
I285
sg11
I67
sg12
g13
sg14
S'diananapo'
p1847
sba(itravian_raidmap
raid
p1848
(dp1849
g6
I910
sg7
S'Galli'
p1850
sg9
I0
sg10
I252
sg11
I100
sg12
g13
sg14
S'DjBeppo'
p1851
sba(itravian_raidmap
raid
p1852
(dp1853
g6
I910
sg7
S'Galli'
p1854
sg9
I0
sg10
I252
sg11
I101
sg12
g13
sg14
S'DjBeppo'
p1855
sba(itravian_raidmap
raid
p1856
(dp1857
g6
I5344
sg7
S'Teutoni'
p1858
sg9
I0
sg10
I239
sg11
I69
sg12
g13
sg14
S'SAM'
p1859
sba(itravian_raidmap
raid
p1860
(dp1861
g6
I910
sg7
S'Galli'
p1862
sg9
I0
sg10
I253
sg11
I100
sg12
g13
sg14
S'DjBeppo'
p1863
sba(itravian_raidmap
raid
p1864
(dp1865
g6
I2234
sg7
S'Romani'
p1866
sg9
I0
sg10
I268
sg11
I87
sg12
g13
sg14
S'bobbino'
p1867
sba(itravian_raidmap
raid
p1868
(dp1869
g6
I6740
sg7
S'Teutoni'
p1870
sg9
I0
sg10
I167
sg11
I100
sg12
g13
sg14
S'incamax'
p1871
sba(itravian_raidmap
raid
p1872
(dp1873
g6
I6740
sg7
S'Teutoni'
p1874
sg9
I0
sg10
I169
sg11
I97
sg12
g13
sg14
S'incamax'
p1875
sba(itravian_raidmap
raid
p1876
(dp1877
g6
I6740
sg7
S'Teutoni'
p1878
sg9
I0
sg10
I168
sg11
I99
sg12
g13
sg14
S'incamax'
p1879
sba(itravian_raidmap
raid
p1880
(dp1881
g6
I6740
sg7
S'Teutoni'
p1882
sg9
I0
sg10
I168
sg11
I100
sg12
g13
sg14
S'incamax'
p1883
sba(itravian_raidmap
raid
p1884
(dp1885
g6
I6740
sg7
S'Teutoni'
p1886
sg9
I0
sg10
I169
sg11
I99
sg12
g13
sg14
S'incamax'
p1887
sba(itravian_raidmap
raid
p1888
(dp1889
g6
I6740
sg7
S'Teutoni'
p1890
sg9
I0
sg10
I169
sg11
I100
sg12
g13
sg14
S'incamax'
p1891
sba(itravian_raidmap
raid
p1892
(dp1893
g6
I6740
sg7
S'Teutoni'
p1894
sg9
I0
sg10
I170
sg11
I100
sg12
g13
sg14
S'incamax'
p1895
sba(itravian_raidmap
raid
p1896
(dp1897
g6
I4173
sg7
S'Romani'
p1898
sg9
I0
sg10
I194
sg11
I71
sg12
g13
sg14
S'Paso'
p1899
sba(itravian_raidmap
raid
p1900
(dp1901
g6
I5204
sg7
S'Romani'
p1902
sg9
I0
sg10
I146
sg11
I78
sg12
g13
sg14
S'Marcus Pyrus'
p1903
sba(itravian_raidmap
raid
p1904
(dp1905
g6
I442
sg7
S'Galli'
p1906
sg9
I0
sg10
I286
sg11
I67
sg12
g13
sg14
S'cyberninja'
p1907
sba(itravian_raidmap
raid
p1908
(dp1909
g6
I4173
sg7
S'Romani'
p1910
sg9
I0
sg10
I195
sg11
I69
sg12
g13
sg14
S'Paso'
p1911
sba(itravian_raidmap
raid
p1912
(dp1913
g6
I6740
sg7
S'Teutoni'
p1914
sg9
I0
sg10
I167
sg11
I106
sg12
g13
sg14
S'incamax'
p1915
sba(itravian_raidmap
raid
p1916
(dp1917
g6
I4173
sg7
S'Romani'
p1918
sg9
I0
sg10
I195
sg11
I70
sg12
g13
sg14
S'Paso'
p1919
sba(itravian_raidmap
raid
p1920
(dp1921
g6
I864
sg7
S'Galli'
p1922
sg9
I0
sg10
I269
sg11
I67
sg12
g13
sg14
S'tita.libero0'
p1923
sba(itravian_raidmap
raid
p1924
(dp1925
g6
I864
sg7
S'Galli'
p1926
sg9
I0
sg10
I269
sg11
I68
sg12
g13
sg14
S'tita.libero0'
p1927
sba(itravian_raidmap
raid
p1928
(dp1929
g6
I4173
sg7
S'Romani'
p1930
sg9
I0
sg10
I196
sg11
I69
sg12
g13
sg14
S'Paso'
p1931
sba(itravian_raidmap
raid
p1932
(dp1933
g6
I5204
sg7
S'Romani'
p1934
sg9
I0
sg10
I159
sg11
I50
sg12
g13
sg14
S'Marcus Pyrus'
p1935
sba(itravian_raidmap
raid
p1936
(dp1937
g6
I4173
sg7
S'Romani'
p1938
sg9
I0
sg10
I196
sg11
I70
sg12
g13
sg14
S'Paso'
p1939
sba(itravian_raidmap
raid
p1940
(dp1941
g6
I4173
sg7
S'Romani'
p1942
sg9
I0
sg10
I196
sg11
I71
sg12
g13
sg14
S'Paso'
p1943
sba(itravian_raidmap
raid
p1944
(dp1945
g6
I7351
sg7
S'Teutoni'
p1946
sg9
I0
sg10
I159
sg11
I77
sg12
g13
sg14
S'Zaffiro'
p1947
sba(itravian_raidmap
raid
p1948
(dp1949
g6
I4173
sg7
S'Romani'
p1950
sg9
I0
sg10
I197
sg11
I74
sg12
g13
sg14
S'Paso'
p1951
sba(itravian_raidmap
raid
p1952
(dp1953
g6
I7351
sg7
S'Teutoni'
p1954
sg9
I0
sg10
I155
sg11
I87
sg12
g13
sg14
S'Zaffiro'
p1955
sba(itravian_raidmap
raid
p1956
(dp1957
g6
I5073
sg7
S'Romani'
p1958
sg9
I0
sg10
I149
sg11
I92
sg12
g13
sg14
S'maelis'
p1959
sba(itravian_raidmap
raid
p1960
(dp1961
g6
I3439
sg7
S'Romani'
p1962
sg9
I0
sg10
I213
sg11
I112
sg12
g13
sg14
S'Simplicio'
p1963
sba(itravian_raidmap
raid
p1964
(dp1965
g6
I2909
sg7
S'Romani'
p1966
sg9
I0
sg10
I257
sg11
I53
sg12
g13
sg14
S'ZioBilly'
p1967
sba(itravian_raidmap
raid
p1968
(dp1969
g6
I5544
sg7
S'Teutoni'
p1970
sg9
I0
sg10
I246
sg11
I55
sg12
g13
sg14
S'arin'
p1971
sba(itravian_raidmap
raid
p1972
(dp1973
g6
I2526
sg7
S'Romani'
p1974
sg9
I0
sg10
I269
sg11
I72
sg12
g13
sg14
S'onofois'
p1975
sba(itravian_raidmap
raid
p1976
(dp1977
g6
I2909
sg7
S'Romani'
p1978
sg9
I0
sg10
I258
sg11
I53
sg12
g13
sg14
S'ZioBilly'
p1979
sba(itravian_raidmap
raid
p1980
(dp1981
g6
I2526
sg7
S'Romani'
p1982
sg9
I0
sg10
I269
sg11
I73
sg12
g13
sg14
S'onofois'
p1983
sba(itravian_raidmap
raid
p1984
(dp1985
g6
I5544
sg7
S'Teutoni'
p1986
sg9
I0
sg10
I247
sg11
I55
sg12
g13
sg14
S'arin'
p1987
sba(itravian_raidmap
raid
p1988
(dp1989
g6
I3437
sg7
S'Romani'
p1990
sg9
I0
sg10
I217
sg11
I108
sg12
g13
sg14
S'Simplicio'
p1991
sba(itravian_raidmap
raid
p1992
(dp1993
g6
I7351
sg7
S'Teutoni'
p1994
sg9
I0
sg10
I158
sg11
I88
sg12
g13
sg14
S'Zaffiro'
p1995
sba(itravian_raidmap
raid
p1996
(dp1997
g6
I2909
sg7
S'Romani'
p1998
sg9
I0
sg10
I258
sg11
I54
sg12
g13
sg14
S'ZioBilly'
p1999
sba(itravian_raidmap
raid
p2000
(dp2001
g6
I2526
sg7
S'Romani'
p2002
sg9
I0
sg10
I269
sg11
I74
sg12
g13
sg14
S'onofois'
p2003
sba(itravian_raidmap
raid
p2004
(dp2005
g6
I7351
sg7
S'Teutoni'
p2006
sg9
I0
sg10
I158
sg11
I90
sg12
g13
sg14
S'Zaffiro'
p2007
sba(itravian_raidmap
raid
p2008
(dp2009
g6
I2526
sg7
S'Romani'
p2010
sg9
I0
sg10
I270
sg11
I73
sg12
g13
sg14
S'onofois'
p2011
sba(itravian_raidmap
raid
p2012
(dp2013
g6
I7351
sg7
S'Teutoni'
p2014
sg9
I0
sg10
I158
sg11
I92
sg12
g13
sg14
S'Zaffiro'
p2015
sba(itravian_raidmap
raid
p2016
(dp2017
g6
I6008
sg7
S'Teutoni'
p2018
sg9
I0
sg10
I236
sg11
I20
sg12
g13
sg14
S'chandrica'
p2019
sba(itravian_raidmap
raid
p2020
(dp2021
g6
I6044
sg7
S'Teutoni'
p2022
sg9
I0
sg10
I215
sg11
I97
sg12
g13
sg14
S'vanniii'
p2023
sba(itravian_raidmap
raid
p2024
(dp2025
g6
I2909
sg7
S'Romani'
p2026
sg9
I0
sg10
I258
sg11
I65
sg12
g13
sg14
S'ZioBilly'
p2027
sba(itravian_raidmap
raid
p2028
(dp2029
g6
I7351
sg7
S'Teutoni'
p2030
sg9
I0
sg10
I159
sg11
I93
sg12
g13
sg14
S'Zaffiro'
p2031
sba(itravian_raidmap
raid
p2032
(dp2033
g6
I6044
sg7
S'Teutoni'
p2034
sg9
I0
sg10
I212
sg11
I105
sg12
g13
sg14
S'vanniii'
p2035
sba(itravian_raidmap
raid
p2036
(dp2037
g6
I1771
sg7
S'Galli'
p2038
sg9
I0
sg10
I218
sg11
I119
sg12
g13
sg14
S'mister bo'
p2039
sba(itravian_raidmap
raid
p2040
(dp2041
g6
I2909
sg7
S'Romani'
p2042
sg9
I0
sg10
I262
sg11
I50
sg12
g13
sg14
S'ZioBilly'
p2043
sba(itravian_raidmap
raid
p2044
(dp2045
g6
I6044
sg7
S'Teutoni'
p2046
sg9
I0
sg10
I213
sg11
I105
sg12
g13
sg14
S'vanniii'
p2047
sba(itravian_raidmap
raid
p2048
(dp2049
g6
I2909
sg7
S'Romani'
p2050
sg9
I0
sg10
I259
sg11
I65
sg12
g13
sg14
S'ZioBilly'
p2051
sba(itravian_raidmap
raid
p2052
(dp2053
g6
I5289
sg7
S'Romani'
p2054
sg9
I0
sg10
I165
sg11
I48
sg12
g13
sg14
S'\xc3\x90\xc3\xa8 La PE\xc3\xb1a'
p2055
sba(itravian_raidmap
raid
p2056
(dp2057
g6
I6044
sg7
S'Teutoni'
p2058
sg9
I0
sg10
I220
sg11
I90
sg12
g13
sg14
S'vanniii'
p2059
sba(itravian_raidmap
raid
p2060
(dp2061
g6
I5289
sg7
S'Romani'
p2062
sg9
I0
sg10
I166
sg11
I46
sg12
g13
sg14
S'\xc3\x90\xc3\xa8 La PE\xc3\xb1a'
p2063
sba(itravian_raidmap
raid
p2064
(dp2065
g6
I1771
sg7
S'Galli'
p2066
sg9
I0
sg10
I219
sg11
I119
sg12
g13
sg14
S'mister bo'
p2067
sba(itravian_raidmap
raid
p2068
(dp2069
g6
I5289
sg7
S'Romani'
p2070
sg9
I0
sg10
I167
sg11
I44
sg12
g13
sg14
S'\xc3\x90\xc3\xa8 La PE\xc3\xb1a'
p2071
sba(itravian_raidmap
raid
p2072
(dp2073
g6
I5289
sg7
S'Romani'
p2074
sg9
I0
sg10
I167
sg11
I45
sg12
g13
sg14
S'\xc3\x90\xc3\xa8 La PE\xc3\xb1a'
p2075
sba(itravian_raidmap
raid
p2076
(dp2077
g6
I5289
sg7
S'Romani'
p2078
sg9
I0
sg10
I167
sg11
I46
sg12
g13
sg14
S'\xc3\x90\xc3\xa8 La PE\xc3\xb1a'
p2079
sba(itravian_raidmap
raid
p2080
(dp2081
g6
I5148
sg7
S'Teutoni'
p2082
sg9
I0
sg10
I253
sg11
I108
sg12
g13
sg14
S'DEDO1958'
p2083
sba(itravian_raidmap
raid
p2084
(dp2085
g6
I5289
sg7
S'Romani'
p2086
sg9
I0
sg10
I167
sg11
I47
sg12
g13
sg14
S'\xc3\x90\xc3\xa8 La PE\xc3\xb1a'
p2087
sba(itravian_raidmap
raid
p2088
(dp2089
g6
I7351
sg7
S'Teutoni'
p2090
sg9
I0
sg10
I164
sg11
I91
sg12
g13
sg14
S'Zaffiro'
p2091
sba(itravian_raidmap
raid
p2092
(dp2093
g6
I5289
sg7
S'Romani'
p2094
sg9
I0
sg10
I167
sg11
I48
sg12
g13
sg14
S'\xc3\x90\xc3\xa8 La PE\xc3\xb1a'
p2095
sba(itravian_raidmap
raid
p2096
(dp2097
g6
I864
sg7
S'Galli'
p2098
sg9
I0
sg10
I278
sg11
I71
sg12
g13
sg14
S'tita.libero0'
p2099
sba(itravian_raidmap
raid
p2100
(dp2101
g6
I7351
sg7
S'Teutoni'
p2102
sg9
I0
sg10
I165
sg11
I91
sg12
g13
sg14
S'Zaffiro'
p2103
sba(itravian_raidmap
raid
p2104
(dp2105
g6
I5289
sg7
S'Romani'
p2106
sg9
I0
sg10
I168
sg11
I47
sg12
g13
sg14
S'\xc3\x90\xc3\xa8 La PE\xc3\xb1a'
p2107
sba(itravian_raidmap
raid
p2108
(dp2109
g6
I6008
sg7
S'Teutoni'
p2110
sg9
I0
sg10
I241
sg11
I38
sg12
g13
sg14
S'chandrica'
p2111
sba(itravian_raidmap
raid
p2112
(dp2113
g6
I4482
sg7
S'Romani'
p2114
sg9
I0
sg10
I186
sg11
I94
sg12
g13
sg14
S'Wolf90'
p2115
sba(itravian_raidmap
raid
p2116
(dp2117
g6
I4482
sg7
S'Romani'
p2118
sg9
I0
sg10
I187
sg11
I93
sg12
g13
sg14
S'Wolf90'
p2119
sba(itravian_raidmap
raid
p2120
(dp2121
g6
I6008
sg7
S'Teutoni'
p2122
sg9
I0
sg10
I242
sg11
I38
sg12
g13
sg14
S'chandrica'
p2123
sba(itravian_raidmap
raid
p2124
(dp2125
g6
I4482
sg7
S'Romani'
p2126
sg9
I0
sg10
I187
sg11
I94
sg12
g13
sg14
S'Wolf90'
p2127
sba(itravian_raidmap
raid
p2128
(dp2129
g6
I4482
sg7
S'Romani'
p2130
sg9
I0
sg10
I186
sg11
I96
sg12
g13
sg14
S'Wolf90'
p2131
sba(itravian_raidmap
raid
p2132
(dp2133
g6
I6008
sg7
S'Teutoni'
p2134
sg9
I0
sg10
I243
sg11
I38
sg12
g13
sg14
S'chandrica'
p2135
sba(itravian_raidmap
raid
p2136
(dp2137
g6
I4482
sg7
S'Romani'
p2138
sg9
I0
sg10
I187
sg11
I95
sg12
g13
sg14
S'Wolf90'
p2139
sba(itravian_raidmap
raid
p2140
(dp2141
g6
I6008
sg7
S'Teutoni'
p2142
sg9
I0
sg10
I243
sg11
I39
sg12
g13
sg14
S'chandrica'
p2143
sba(itravian_raidmap
raid
p2144
(dp2145
g6
I6294
sg7
S'Teutoni'
p2146
sg9
I0
sg10
I205
sg11
I115
sg12
g13
sg14
S'sdody'
p2147
sba(itravian_raidmap
raid
p2148
(dp2149
g6
I4482
sg7
S'Romani'
p2150
sg9
I0
sg10
I188
sg11
I94
sg12
g13
sg14
S'Wolf90'
p2151
sba(itravian_raidmap
raid
p2152
(dp2153
g6
I6008
sg7
S'Teutoni'
p2154
sg9
I0
sg10
I243
sg11
I44
sg12
g13
sg14
S'chandrica'
p2155
sba(itravian_raidmap
raid
p2156
(dp2157
g6
I4482
sg7
S'Romani'
p2158
sg9
I0
sg10
I188
sg11
I95
sg12
g13
sg14
S'Wolf90'
p2159
sba(itravian_raidmap
raid
p2160
(dp2161
g6
I6294
sg7
S'Teutoni'
p2162
sg9
I0
sg10
I206
sg11
I115
sg12
g13
sg14
S'sdody'
p2163
sba(itravian_raidmap
raid
p2164
(dp2165
g6
I6008
sg7
S'Teutoni'
p2166
sg9
I0
sg10
I243
sg11
I47
sg12
g13
sg14
S'chandrica'
p2167
sba(itravian_raidmap
raid
p2168
(dp2169
g6
I6294
sg7
S'Teutoni'
p2170
sg9
I0
sg10
I203
sg11
I121
sg12
g13
sg14
S'sdody'
p2171
sba(itravian_raidmap
raid
p2172
(dp2173
g6
I6294
sg7
S'Teutoni'
p2174
sg9
I0
sg10
I204
sg11
I120
sg12
g13
sg14
S'sdody'
p2175
sba(itravian_raidmap
raid
p2176
(dp2177
g6
I6044
sg7
S'Teutoni'
p2178
sg9
I0
sg10
I222
sg11
I109
sg12
g13
sg14
S'vanniii'
p2179
sba(itravian_raidmap
raid
p2180
(dp2181
g6
I7276
sg7
S'Teutoni'
p2182
sg9
I0
sg10
I188
sg11
I63
sg12
g13
sg14
S'MILIZIADE'
p2183
sba(itravian_raidmap
raid
p2184
(dp2185
g6
I6294
sg7
S'Teutoni'
p2186
sg9
I0
sg10
I209
sg11
I113
sg12
g13
sg14
S'sdody'
p2187
sba(itravian_raidmap
raid
p2188
(dp2189
g6
I6044
sg7
S'Teutoni'
p2190
sg9
I0
sg10
I224
sg11
I106
sg12
g13
sg14
S'vanniii'
p2191
sba(itravian_raidmap
raid
p2192
(dp2193
g6
I6044
sg7
S'Teutoni'
p2194
sg9
I0
sg10
I224
sg11
I107
sg12
g13
sg14
S'vanniii'
p2195
sba(itravian_raidmap
raid
p2196
(dp2197
g6
I6294
sg7
S'Teutoni'
p2198
sg9
I0
sg10
I203
sg11
I126
sg12
g13
sg14
S'sdody'
p2199
sba(itravian_raidmap
raid
p2200
(dp2201
g6
I3268
sg7
S'Romani'
p2202
sg9
I0
sg10
I242
sg11
I100
sg12
g13
sg14
S'Hataru_74'
p2203
sba(itravian_raidmap
raid
p2204
(dp2205
g6
I8468
sg7
S'Teutoni'
p2206
sg9
I0
sg10
I134
sg11
I73
sg12
g13
sg14
S'colpo grosso'
p2207
sba(itravian_raidmap
raid
p2208
(dp2209
g6
I7278
sg7
S'Teutoni'
p2210
sg9
I0
sg10
I191
sg11
I60
sg12
g13
sg14
S'MILIZIADE'
p2211
sba(itravian_raidmap
raid
p2212
(dp2213
g6
I3268
sg7
S'Romani'
p2214
sg9
I0
sg10
I243
sg11
I99
sg12
g13
sg14
S'Hataru_74'
p2215
sba(itravian_raidmap
raid
p2216
(dp2217
g6
I7276
sg7
S'Teutoni'
p2218
sg9
I0
sg10
I190
sg11
I64
sg12
g13
sg14
S'MILIZIADE'
p2219
sba(itravian_raidmap
raid
p2220
(dp2221
g6
I3268
sg7
S'Romani'
p2222
sg9
I0
sg10
I243
sg11
I100
sg12
g13
sg14
S'Hataru_74'
p2223
sba(itravian_raidmap
raid
p2224
(dp2225
g6
I7278
sg7
S'Teutoni'
p2226
sg9
I0
sg10
I192
sg11
I60
sg12
g13
sg14
S'MILIZIADE'
p2227
sba(itravian_raidmap
raid
p2228
(dp2229
g6
I3268
sg7
S'Romani'
p2230
sg9
I0
sg10
I243
sg11
I101
sg12
g13
sg14
S'Hataru_74'
p2231
sba(itravian_raidmap
raid
p2232
(dp2233
g6
I7278
sg7
S'Teutoni'
p2234
sg9
I0
sg10
I192
sg11
I61
sg12
g13
sg14
S'MILIZIADE'
p2235
sba(itravian_raidmap
raid
p2236
(dp2237
g6
I7278
sg7
S'Teutoni'
p2238
sg9
I0
sg10
I193
sg11
I58
sg12
g13
sg14
S'MILIZIADE'
p2239
sba(itravian_raidmap
raid
p2240
(dp2241
g6
I3268
sg7
S'Romani'
p2242
sg9
I0
sg10
I240
sg11
I110
sg12
g13
sg14
S'Hataru_74'
p2243
sba(itravian_raidmap
raid
p2244
(dp2245
g6
I6294
sg7
S'Teutoni'
p2246
sg9
I0
sg10
I211
sg11
I120
sg12
g13
sg14
S'sdody'
p2247
sba(itravian_raidmap
raid
p2248
(dp2249
g6
I6294
sg7
S'Teutoni'
p2250
sg9
I0
sg10
I210
sg11
I122
sg12
g13
sg14
S'sdody'
p2251
sba(itravian_raidmap
raid
p2252
(dp2253
g6
I3268
sg7
S'Romani'
p2254
sg9
I0
sg10
I247
sg11
I99
sg12
g13
sg14
S'Hataru_74'
p2255
sba(itravian_raidmap
raid
p2256
(dp2257
g6
I6294
sg7
S'Teutoni'
p2258
sg9
I0
sg10
I216
sg11
I117
sg12
g13
sg14
S'sdody'
p2259
sba(itravian_raidmap
raid
p2260
(dp2261
g6
I6740
sg7
S'Teutoni'
p2262
sg9
I0
sg10
I210
sg11
I94
sg12
g13
sg14
S'incamax'
p2263
sba(itravian_raidmap
raid
p2264
(dp2265
g6
I3677
sg7
S'Romani'
p2266
sg9
I0
sg10
I245
sg11
I67
sg12
g13
sg14
S'danyontheroad'
p2267
sba(itravian_raidmap
raid
p2268
(dp2269
g6
I3677
sg7
S'Romani'
p2270
sg9
I0
sg10
I244
sg11
I72
sg12
g13
sg14
S'danyontheroad'
p2271
sba(itravian_raidmap
raid
p2272
(dp2273
g6
I3327
sg7
S'Romani'
p2274
sg9
I0
sg10
I258
sg11
I79
sg12
g13
sg14
S'sandro'
p2275
sba(itravian_raidmap
raid
p2276
(dp2277
g6
I3327
sg7
S'Romani'
p2278
sg9
I0
sg10
I258
sg11
I80
sg12
g13
sg14
S'sandro'
p2279
sba(itravian_raidmap
raid
p2280
(dp2281
g6
I3677
sg7
S'Romani'
p2282
sg9
I0
sg10
I247
sg11
I70
sg12
g13
sg14
S'danyontheroad'
p2283
sba(itravian_raidmap
raid
p2284
(dp2285
g6
I3327
sg7
S'Romani'
p2286
sg9
I0
sg10
I259
sg11
I79
sg12
g13
sg14
S'sandro'
p2287
sba(itravian_raidmap
raid
p2288
(dp2289
g6
I3677
sg7
S'Romani'
p2290
sg9
I0
sg10
I247
sg11
I71
sg12
g13
sg14
S'danyontheroad'
p2291
sba(itravian_raidmap
raid
p2292
(dp2293
g6
I3677
sg7
S'Romani'
p2294
sg9
I0
sg10
I249
sg11
I70
sg12
g13
sg14
S'danyontheroad'
p2295
sba(itravian_raidmap
raid
p2296
(dp2297
g6
I6294
sg7
S'Teutoni'
p2298
sg9
I0
sg10
I226
sg11
I120
sg12
g13
sg14
S'sdody'
p2299
sba(itravian_raidmap
raid
p2300
(dp2301
g6
I3327
sg7
S'Romani'
p2302
sg9
I0
sg10
I262
sg11
I80
sg12
g13
sg14
S'sandro'
p2303
sba(itravian_raidmap
raid
p2304
(dp2305
g6
I3327
sg7
S'Romani'
p2306
sg9
I0
sg10
I266
sg11
I70
sg12
g13
sg14
S'sandro'
p2307
sba(itravian_raidmap
raid
p2308
(dp2309
g6
I3639
sg7
S'Galli'
p2310
sg9
I0
sg10
I198
sg11
I7
sg12
g13
sg14
S'Fante di poppe'
p2311
sba(itravian_raidmap
raid
p2312
(dp2313
g6
I5656
sg7
S'Romani'
p2314
sg9
I0
sg10
I167
sg11
I83
sg12
g13
sg14
S'damy73'
p2315
sba(itravian_raidmap
raid
p2316
(dp2317
g6
I5656
sg7
S'Romani'
p2318
sg9
I0
sg10
I168
sg11
I82
sg12
g13
sg14
S'damy73'
p2319
sba(itravian_raidmap
raid
p2320
(dp2321
g6
I5656
sg7
S'Romani'
p2322
sg9
I0
sg10
I169
sg11
I81
sg12
g13
sg14
S'damy73'
p2323
sba(itravian_raidmap
raid
p2324
(dp2325
g6
I8130
sg7
S'Teutoni'
p2326
sg9
I0
sg10
I171
sg11
I89
sg12
g13
sg14
S'mattarco'
p2327
sba(itravian_raidmap
raid
p2328
(dp2329
g6
I8130
sg7
S'Teutoni'
p2330
sg9
I0
sg10
I172
sg11
I89
sg12
g13
sg14
S'mattarco'
p2331
sba(itravian_raidmap
raid
p2332
(dp2333
g6
I2726
sg7
S'Galli'
p2334
sg9
I0
sg10
I236
sg11
I21
sg12
g13
sg14
S'f2000'
p2335
sba(itravian_raidmap
raid
p2336
(dp2337
g6
I8130
sg7
S'Teutoni'
p2338
sg9
I0
sg10
I174
sg11
I86
sg12
g13
sg14
S'mattarco'
p2339
sba(itravian_raidmap
raid
p2340
(dp2341
g6
I8130
sg7
S'Teutoni'
p2342
sg9
I0
sg10
I169
sg11
I96
sg12
g13
sg14
S'mattarco'
p2343
sba(itravian_raidmap
raid
p2344
(dp2345
g6
I8130
sg7
S'Teutoni'
p2346
sg9
I0
sg10
I174
sg11
I87
sg12
g13
sg14
S'mattarco'
p2347
sba(itravian_raidmap
raid
p2348
(dp2349
g6
I8130
sg7
S'Teutoni'
p2350
sg9
I0
sg10
I175
sg11
I86
sg12
g13
sg14
S'mattarco'
p2351
sba(itravian_raidmap
raid
p2352
(dp2353
g6
I3327
sg7
S'Romani'
p2354
sg9
I0
sg10
I271
sg11
I82
sg12
g13
sg14
S'sandro'
p2355
sba(itravian_raidmap
raid
p2356
(dp2357
g6
I7278
sg7
S'Teutoni'
p2358
sg9
I0
sg10
I221
sg11
I61
sg12
g13
sg14
S'MILIZIADE'
p2359
sba(itravian_raidmap
raid
p2360
(dp2361
g6
I8130
sg7
S'Teutoni'
p2362
sg9
I0
sg10
I170
sg11
I96
sg12
g13
sg14
S'mattarco'
p2363
sba(itravian_raidmap
raid
p2364
(dp2365
g6
I8130
sg7
S'Teutoni'
p2366
sg9
I0
sg10
I175
sg11
I87
sg12
g13
sg14
S'mattarco'
p2367
sba(itravian_raidmap
raid
p2368
(dp2369
g6
I7278
sg7
S'Teutoni'
p2370
sg9
I0
sg10
I222
sg11
I60
sg12
g13
sg14
S'MILIZIADE'
p2371
sba(itravian_raidmap
raid
p2372
(dp2373
g6
I2726
sg7
S'Galli'
p2374
sg9
I0
sg10
I238
sg11
I21
sg12
g13
sg14
S'f2000'
p2375
sba(itravian_raidmap
raid
p2376
(dp2377
g6
I8130
sg7
S'Teutoni'
p2378
sg9
I0
sg10
I176
sg11
I90
sg12
g13
sg14
S'mattarco'
p2379
sba(itravian_raidmap
raid
p2380
(dp2381
g6
I7278
sg7
S'Teutoni'
p2382
sg9
I0
sg10
I224
sg11
I60
sg12
g13
sg14
S'MILIZIADE'
p2383
sba(itravian_raidmap
raid
p2384
(dp2385
g6
I5656
sg7
S'Romani'
p2386
sg9
I0
sg10
I175
sg11
I82
sg12
g13
sg14
S'damy73'
p2387
sba(itravian_raidmap
raid
p2388
(dp2389
g6
I5777
sg7
S'Romani'
p2390
sg9
I0
sg10
I186
sg11
I31
sg12
g13
sg14
S'Richard Neville'
p2391
sba(itravian_raidmap
raid
p2392
(dp2393
g6
I6635
sg7
S'Romani'
p2394
sg9
I0
sg10
I145
sg11
I53
sg12
g13
sg14
S'-soldatino-'
p2395
sba(itravian_raidmap
raid
p2396
(dp2397
g6
I5656
sg7
S'Romani'
p2398
sg9
I0
sg10
I175
sg11
I83
sg12
g13
sg14
S'damy73'
p2399
sba(itravian_raidmap
raid
p2400
(dp2401
g6
I6635
sg7
S'Romani'
p2402
sg9
I0
sg10
I145
sg11
I54
sg12
g13
sg14
S'-soldatino-'
p2403
sba(itravian_raidmap
raid
p2404
(dp2405
g6
I8130
sg7
S'Teutoni'
p2406
sg9
I0
sg10
I174
sg11
I99
sg12
g13
sg14
S'mattarco'
p2407
sba(itravian_raidmap
raid
p2408
(dp2409
g6
I6635
sg7
S'Romani'
p2410
sg9
I0
sg10
I145
sg11
I55
sg12
g13
sg14
S'-soldatino-'
p2411
sba(itravian_raidmap
raid
p2412
(dp2413
g6
I6635
sg7
S'Romani'
p2414
sg9
I0
sg10
I146
sg11
I53
sg12
g13
sg14
S'-soldatino-'
p2415
sba(itravian_raidmap
raid
p2416
(dp2417
g6
I6635
sg7
S'Romani'
p2418
sg9
I0
sg10
I146
sg11
I54
sg12
g13
sg14
S'-soldatino-'
p2419
sba(itravian_raidmap
raid
p2420
(dp2421
g6
I8130
sg7
S'Teutoni'
p2422
sg9
I0
sg10
I178
sg11
I94
sg12
g13
sg14
S'mattarco'
p2423
sba(itravian_raidmap
raid
p2424
(dp2425
g6
I6635
sg7
S'Romani'
p2426
sg9
I0
sg10
I146
sg11
I55
sg12
g13
sg14
S'-soldatino-'
p2427
sba(itravian_raidmap
raid
p2428
(dp2429
g6
I6635
sg7
S'Romani'
p2430
sg9
I0
sg10
I147
sg11
I53
sg12
g13
sg14
S'-soldatino-'
p2431
sba(itravian_raidmap
raid
p2432
(dp2433
g6
I6635
sg7
S'Romani'
p2434
sg9
I0
sg10
I147
sg11
I55
sg12
g13
sg14
S'-soldatino-'
p2435
sba(itravian_raidmap
raid
p2436
(dp2437
g6
I6635
sg7
S'Romani'
p2438
sg9
I0
sg10
I148
sg11
I54
sg12
g13
sg14
S'-soldatino-'
p2439
sba(itravian_raidmap
raid
p2440
(dp2441
g6
I1931
sg7
S'Galli'
p2442
sg9
I0
sg10
I266
sg11
I72
sg12
g13
sg14
S'UZAR'
p2443
sba(itravian_raidmap
raid
p2444
(dp2445
g6
I8130
sg7
S'Teutoni'
p2446
sg9
I0
sg10
I185
sg11
I88
sg12
g13
sg14
S'mattarco'
p2447
sba(itravian_raidmap
raid
p2448
(dp2449
g6
I3639
sg7
S'Galli'
p2450
sg9
I0
sg10
I208
sg11
I-7
sg12
g13
sg14
S'Fante di poppe'
p2451
sba(itravian_raidmap
raid
p2452
(dp2453
g6
I3639
sg7
S'Galli'
p2454
sg9
I0
sg10
I208
sg11
I-8
sg12
g13
sg14
S'Fante di poppe'
p2455
sba(itravian_raidmap
raid
p2456
(dp2457
g6
I1580
sg7
S'Galli'
p2458
sg9
I0
sg10
I283
sg11
I67
sg12
g13
sg14
S'Ghigno'
p2459
sba(itravian_raidmap
raid
p2460
(dp2461
g6
I1931
sg7
S'Galli'
p2462
sg9
I0
sg10
I267
sg11
I74
sg12
g13
sg14
S'UZAR'
p2463
sba(itravian_raidmap
raid
p2464
(dp2465
g6
I5656
sg7
S'Romani'
p2466
sg9
I0
sg10
I182
sg11
I82
sg12
g13
sg14
S'damy73'
p2467
sba(itravian_raidmap
raid
p2468
(dp2469
g6
I1931
sg7
S'Galli'
p2470
sg9
I0
sg10
I268
sg11
I73
sg12
g13
sg14
S'UZAR'
p2471
sba(itravian_raidmap
raid
p2472
(dp2473
g6
I1931
sg7
S'Galli'
p2474
sg9
I0
sg10
I268
sg11
I74
sg12
g13
sg14
S'UZAR'
p2475
sba(itravian_raidmap
raid
p2476
(dp2477
g6
I6114
sg7
S'Romani'
p2478
sg9
I0
sg10
I168
sg11
I71
sg12
g13
sg14
S'draka'
p2479
sba(itravian_raidmap
raid
p2480
(dp2481
g6
I5656
sg7
S'Romani'
p2482
sg9
I0
sg10
I183
sg11
I83
sg12
g13
sg14
S'damy73'
p2483
sba(itravian_raidmap
raid
p2484
(dp2485
g6
I2696
sg7
S'Galli'
p2486
sg9
I0
sg10
I240
sg11
I64
sg12
g13
sg14
S'Rodeano'
p2487
sba(itravian_raidmap
raid
p2488
(dp2489
g6
I7278
sg7
S'Teutoni'
p2490
sg9
I0
sg10
I233
sg11
I71
sg12
g13
sg14
S'MILIZIADE'
p2491
sba(itravian_raidmap
raid
p2492
(dp2493
g6
I6114
sg7
S'Romani'
p2494
sg9
I0
sg10
I169
sg11
I72
sg12
g13
sg14
S'draka'
p2495
sba(itravian_raidmap
raid
p2496
(dp2497
g6
I2696
sg7
S'Galli'
p2498
sg9
I0
sg10
I241
sg11
I64
sg12
g13
sg14
S'Rodeano'
p2499
sba(itravian_raidmap
raid
p2500
(dp2501
g6
I5656
sg7
S'Romani'
p2502
sg9
I0
sg10
I185
sg11
I84
sg12
g13
sg14
S'damy73'
p2503
sba(itravian_raidmap
raid
p2504
(dp2505
g6
I5656
sg7
S'Romani'
p2506
sg9
I0
sg10
I186
sg11
I82
sg12
g13
sg14
S'damy73'
p2507
sba(itravian_raidmap
raid
p2508
(dp2509
g6
I5656
sg7
S'Romani'
p2510
sg9
I0
sg10
I186
sg11
I83
sg12
g13
sg14
S'damy73'
p2511
sba(itravian_raidmap
raid
p2512
(dp2513
g6
I8840
sg7
S'Teutoni'
p2514
sg9
I0
sg10
I178
sg11
I46
sg12
g13
sg14
S'SNICH'
p2515
sba(itravian_raidmap
raid
p2516
(dp2517
g6
I8504
sg7
S'Teutoni'
p2518
sg9
I0
sg10
I197
sg11
I13
sg12
g13
sg14
S'supremo1'
p2519
sba(itravian_raidmap
raid
p2520
(dp2521
g6
I8504
sg7
S'Teutoni'
p2522
sg9
I0
sg10
I198
sg11
I3
sg12
g13
sg14
S'supremo1'
p2523
sba(itravian_raidmap
raid
p2524
(dp2525
g6
I2696
sg7
S'Galli'
p2526
sg9
I0
sg10
I243
sg11
I64
sg12
g13
sg14
S'Rodeano'
p2527
sba(itravian_raidmap
raid
p2528
(dp2529
g6
I8504
sg7
S'Teutoni'
p2530
sg9
I0
sg10
I201
sg11
I4
sg12
g13
sg14
S'supremo1'
p2531
sba(itravian_raidmap
raid
p2532
(dp2533
g6
I8504
sg7
S'Teutoni'
p2534
sg9
I0
sg10
I201
sg11
I5
sg12
g13
sg14
S'supremo1'
p2535
sba(itravian_raidmap
raid
p2536
(dp2537
g6
I2696
sg7
S'Galli'
p2538
sg9
I0
sg10
I245
sg11
I64
sg12
g13
sg14
S'Rodeano'
p2539
sba(itravian_raidmap
raid
p2540
(dp2541
g6
I9727
sg7
S'Teutoni'
p2542
sg9
I0
sg10
I139
sg11
I63
sg12
g13
sg14
S'maw'
p2543
sba(itravian_raidmap
raid
p2544
(dp2545
g6
I9727
sg7
S'Teutoni'
p2546
sg9
I0
sg10
I139
sg11
I64
sg12
g13
sg14
S'maw'
p2547
sba(itravian_raidmap
raid
p2548
(dp2549
g6
I9727
sg7
S'Teutoni'
p2550
sg9
I0
sg10
I140
sg11
I62
sg12
g13
sg14
S'maw'
p2551
sba(itravian_raidmap
raid
p2552
(dp2553
g6
I8504
sg7
S'Teutoni'
p2554
sg9
I0
sg10
I202
sg11
I4
sg12
g13
sg14
S'supremo1'
p2555
sba(itravian_raidmap
raid
p2556
(dp2557
g6
I5732
sg7
S'Romani'
p2558
sg9
I0
sg10
I204
sg11
I16
sg12
g13
sg14
S'gibbone'
p2559
sba(itravian_raidmap
raid
p2560
(dp2561
g6
I5732
sg7
S'Romani'
p2562
sg9
I0
sg10
I204
sg11
I17
sg12
g13
sg14
S'gibbone'
p2563
sba(itravian_raidmap
raid
p2564
(dp2565
g6
I9727
sg7
S'Teutoni'
p2566
sg9
I0
sg10
I140
sg11
I63
sg12
g13
sg14
S'maw'
p2567
sba(itravian_raidmap
raid
p2568
(dp2569
g6
I9727
sg7
S'Teutoni'
p2570
sg9
I0
sg10
I140
sg11
I64
sg12
g13
sg14
S'maw'
p2571
sba(itravian_raidmap
raid
p2572
(dp2573
g6
I8504
sg7
S'Teutoni'
p2574
sg9
I0
sg10
I203
sg11
I2
sg12
g13
sg14
S'supremo1'
p2575
sba(itravian_raidmap
raid
p2576
(dp2577
g6
I5732
sg7
S'Romani'
p2578
sg9
I0
sg10
I205
sg11
I15
sg12
g13
sg14
S'gibbone'
p2579
sba(itravian_raidmap
raid
p2580
(dp2581
g6
I8504
sg7
S'Teutoni'
p2582
sg9
I0
sg10
I204
sg11
I4
sg12
g13
sg14
S'supremo1'
p2583
sba(itravian_raidmap
raid
p2584
(dp2585
g6
I5732
sg7
S'Romani'
p2586
sg9
I0
sg10
I206
sg11
I13
sg12
g13
sg14
S'gibbone'
p2587
sba(itravian_raidmap
raid
p2588
(dp2589
g6
I5732
sg7
S'Romani'
p2590
sg9
I0
sg10
I206
sg11
I20
sg12
g13
sg14
S'gibbone'
p2591
sba(itravian_raidmap
raid
p2592
(dp2593
g6
I5732
sg7
S'Romani'
p2594
sg9
I0
sg10
I207
sg11
I16
sg12
g13
sg14
S'gibbone'
p2595
sba(itravian_raidmap
raid
p2596
(dp2597
g6
I5732
sg7
S'Romani'
p2598
sg9
I0
sg10
I207
sg11
I17
sg12
g13
sg14
S'gibbone'
p2599
sba(itravian_raidmap
raid
p2600
(dp2601
g6
I5732
sg7
S'Romani'
p2602
sg9
I0
sg10
I207
sg11
I20
sg12
g13
sg14
S'gibbone'
p2603
sba(itravian_raidmap
raid
p2604
(dp2605
g6
I6114
sg7
S'Romani'
p2606
sg9
I0
sg10
I178
sg11
I74
sg12
g13
sg14
S'draka'
p2607
sba(itravian_raidmap
raid
p2608
(dp2609
g6
I6114
sg7
S'Romani'
p2610
sg9
I0
sg10
I179
sg11
I73
sg12
g13
sg14
S'draka'
p2611
sba(itravian_raidmap
raid
p2612
(dp2613
g6
I5732
sg7
S'Romani'
p2614
sg9
I0
sg10
I208
sg11
I16
sg12
g13
sg14
S'gibbone'
p2615
sba(itravian_raidmap
raid
p2616
(dp2617
g6
I5832
sg7
S'Romani'
p2618
sg9
I0
sg10
I173
sg11
I110
sg12
g13
sg14
S'marchino1'
p2619
sba(itravian_raidmap
raid
p2620
(dp2621
g6
I6114
sg7
S'Romani'
p2622
sg9
I0
sg10
I180
sg11
I74
sg12
g13
sg14
S'draka'
p2623
sba(itravian_raidmap
raid
p2624
(dp2625
g6
I8504
sg7
S'Teutoni'
p2626
sg9
I0
sg10
I209
sg11
I16
sg12
g13
sg14
S'supremo1'
p2627
sba(itravian_raidmap
raid
p2628
(dp2629
g6
I5777
sg7
S'Romani'
p2630
sg9
I0
sg10
I206
sg11
I35
sg12
g13
sg14
S'Richard Neville'
p2631
sba(itravian_raidmap
raid
p2632
(dp2633
g6
I5777
sg7
S'Romani'
p2634
sg9
I0
sg10
I206
sg11
I36
sg12
g13
sg14
S'Richard Neville'
p2635
sba(itravian_raidmap
raid
p2636
(dp2637
g6
I5732
sg7
S'Romani'
p2638
sg9
I0
sg10
I211
sg11
I16
sg12
g13
sg14
S'gibbone'
p2639
sba(itravian_raidmap
raid
p2640
(dp2641
g6
I8504
sg7
S'Teutoni'
p2642
sg9
I0
sg10
I200
sg11
I68
sg12
g13
sg14
S'supremo1'
p2643
sba(itravian_raidmap
raid
p2644
(dp2645
g6
I5777
sg7
S'Romani'
p2646
sg9
I0
sg10
I207
sg11
I36
sg12
g13
sg14
S'Richard Neville'
p2647
sba(itravian_raidmap
raid
p2648
(dp2649
g6
I5777
sg7
S'Romani'
p2650
sg9
I0
sg10
I207
sg11
I37
sg12
g13
sg14
S'Richard Neville'
p2651
sba(itravian_raidmap
raid
p2652
(dp2653
g6
I5732
sg7
S'Romani'
p2654
sg9
I0
sg10
I212
sg11
I15
sg12
g13
sg14
S'gibbone'
p2655
sba(itravian_raidmap
raid
p2656
(dp2657
g6
I5777
sg7
S'Romani'
p2658
sg9
I0
sg10
I208
sg11
I36
sg12
g13
sg14
S'Richard Neville'
p2659
sba(itravian_raidmap
raid
p2660
(dp2661
g6
I5777
sg7
S'Romani'
p2662
sg9
I0
sg10
I209
sg11
I35
sg12
g13
sg14
S'Richard Neville'
p2663
sba(itravian_raidmap
raid
p2664
(dp2665
g6
I5777
sg7
S'Romani'
p2666
sg9
I0
sg10
I209
sg11
I36
sg12
g13
sg14
S'Richard Neville'
p2667
sba(itravian_raidmap
raid
p2668
(dp2669
g6
I5777
sg7
S'Romani'
p2670
sg9
I0
sg10
I210
sg11
I33
sg12
g13
sg14
S'Richard Neville'
p2671
sba(itravian_raidmap
raid
p2672
(dp2673
g6
I5777
sg7
S'Romani'
p2674
sg9
I0
sg10
I210
sg11
I35
sg12
g13
sg14
S'Richard Neville'
p2675
sba(itravian_raidmap
raid
p2676
(dp2677
g6
I5777
sg7
S'Romani'
p2678
sg9
I0
sg10
I210
sg11
I36
sg12
g13
sg14
S'Richard Neville'
p2679
sba(itravian_raidmap
raid
p2680
(dp2681
g6
I2696
sg7
S'Galli'
p2682
sg9
I0
sg10
I252
sg11
I74
sg12
g13
sg14
S'Rodeano'
p2683
sba(itravian_raidmap
raid
p2684
(dp2685
g6
I6114
sg7
S'Romani'
p2686
sg9
I0
sg10
I184
sg11
I84
sg12
g13
sg14
S'draka'
p2687
sba(itravian_raidmap
raid
p2688
(dp2689
g6
I3339
sg7
S'Galli'
p2690
sg9
I0
sg10
I224
sg11
I85
sg12
g13
sg14
S'flowergreg'
p2691
sba(itravian_raidmap
raid
p2692
(dp2693
g6
I2696
sg7
S'Galli'
p2694
sg9
I0
sg10
I258
sg11
I64
sg12
g13
sg14
S'Rodeano'
p2695
sba(itravian_raidmap
raid
p2696
(dp2697
g6
I9727
sg7
S'Teutoni'
p2698
sg9
I0
sg10
I157
sg11
I72
sg12
g13
sg14
S'maw'
p2699
sba(itravian_raidmap
raid
p2700
(dp2701
g6
I4702
sg7
S'Galli'
p2702
sg9
I0
sg10
I171
sg11
I82
sg12
g13
sg14
S'kiara'
p2703
sba(itravian_raidmap
raid
p2704
(dp2705
g6
I4703
sg7
S'Galli'
p2706
sg9
I0
sg10
I172
sg11
I80
sg12
g13
sg14
S'kiara'
p2707
sba(itravian_raidmap
raid
p2708
(dp2709
g6
I6619
sg7
S'Romani'
p2710
sg9
I0
sg10
I160
sg11
I100
sg12
g13
sg14
S'grande demone'
p2711
sba(itravian_raidmap
raid
p2712
(dp2713
g6
I6619
sg7
S'Romani'
p2714
sg9
I0
sg10
I161
sg11
I99
sg12
g13
sg14
S'grande demone'
p2715
sba(itravian_raidmap
raid
p2716
(dp2717
g6
I6619
sg7
S'Romani'
p2718
sg9
I0
sg10
I161
sg11
I100
sg12
g13
sg14
S'grande demone'
p2719
sba(itravian_raidmap
raid
p2720
(dp2721
g6
I6619
sg7
S'Romani'
p2722
sg9
I0
sg10
I164
sg11
I99
sg12
g13
sg14
S'grande demone'
p2723
sba(itravian_raidmap
raid
p2724
(dp2725
g6
I10222
sg7
S'Teutoni'
p2726
sg9
I0
sg10
I156
sg11
I50
sg12
g13
sg14
S'Mastck'
p2727
sba(itravian_raidmap
raid
p2728
(dp2729
g6
I10222
sg7
S'Teutoni'
p2730
sg9
I0
sg10
I157
sg11
I49
sg12
g13
sg14
S'Mastck'
p2731
sba(itravian_raidmap
raid
p2732
(dp2733
g6
I10222
sg7
S'Teutoni'
p2734
sg9
I0
sg10
I157
sg11
I50
sg12
g13
sg14
S'Mastck'
p2735
sba(itravian_raidmap
raid
p2736
(dp2737
g6
I10350
sg7
S'Teutoni'
p2738
sg9
I0
sg10
I151
sg11
I52
sg12
g13
sg14
S'Patavium'
p2739
sba(itravian_raidmap
raid
p2740
(dp2741
g6
I10222
sg7
S'Teutoni'
p2742
sg9
I0
sg10
I158
sg11
I49
sg12
g13
sg14
S'Mastck'
p2743
sba(itravian_raidmap
raid
p2744
(dp2745
g6
I10222
sg7
S'Teutoni'
p2746
sg9
I0
sg10
I158
sg11
I50
sg12
g13
sg14
S'Mastck'
p2747
sba(itravian_raidmap
raid
p2748
(dp2749
g6
I10222
sg7
S'Teutoni'
p2750
sg9
I0
sg10
I158
sg11
I52
sg12
g13
sg14
S'Mastck'
p2751
sba(itravian_raidmap
raid
p2752
(dp2753
g6
I8840
sg7
S'Teutoni'
p2754
sg9
I0
sg10
I209
sg11
I75
sg12
g13
sg14
S'SNICH'
p2755
sba(itravian_raidmap
raid
p2756
(dp2757
g6
I6619
sg7
S'Romani'
p2758
sg9
I0
sg10
I173
sg11
I93
sg12
g13
sg14
S'grande demone'
p2759
sba(itravian_raidmap
raid
p2760
(dp2761
g6
I8842
sg7
S'Teutoni'
p2762
sg9
I0
sg10
I208
sg11
I86
sg12
g13
sg14
S'SNICH'
p2763
sba(itravian_raidmap
raid
p2764
(dp2765
g6
I5073
sg7
S'Romani'
p2766
sg9
I0
sg10
I234
sg11
I120
sg12
g13
sg14
S'maelis'
p2767
sba(itravian_raidmap
raid
p2768
(dp2769
g6
I7791
sg7
S'Romani'
p2770
sg9
I0
sg10
I136
sg11
I73
sg12
g13
sg14
S'nikon77'
p2771
sba(itravian_raidmap
raid
p2772
(dp2773
g6
I10384
sg7
S'Teutoni'
p2774
sg9
I0
sg10
I166
sg11
I33
sg12
g13
sg14
S'Nadir'
p2775
sba(itravian_raidmap
raid
p2776
(dp2777
g6
I10384
sg7
S'Teutoni'
p2778
sg9
I0
sg10
I166
sg11
I34
sg12
g13
sg14
S'Nadir'
p2779
sba(itravian_raidmap
raid
p2780
(dp2781
g6
I10348
sg7
S'Teutoni'
p2782
sg9
I0
sg10
I165
sg11
I46
sg12
g13
sg14
S'Patavium'
p2783
sba(itravian_raidmap
raid
p2784
(dp2785
g6
I10384
sg7
S'Teutoni'
p2786
sg9
I0
sg10
I167
sg11
I33
sg12
g13
sg14
S'Nadir'
p2787
sba(itravian_raidmap
raid
p2788
(dp2789
g6
I7791
sg7
S'Romani'
p2790
sg9
I0
sg10
I135
sg11
I80
sg12
g13
sg14
S'nikon77'
p2791
sba(itravian_raidmap
raid
p2792
(dp2793
g6
I10384
sg7
S'Teutoni'
p2794
sg9
I0
sg10
I167
sg11
I34
sg12
g13
sg14
S'Nadir'
p2795
sba(itravian_raidmap
raid
p2796
(dp2797
g6
I10384
sg7
S'Teutoni'
p2798
sg9
I0
sg10
I167
sg11
I35
sg12
g13
sg14
S'Nadir'
p2799
sba(itravian_raidmap
raid
p2800
(dp2801
g6
I10348
sg7
S'Teutoni'
p2802
sg9
I0
sg10
I167
sg11
I42
sg12
g13
sg14
S'Patavium'
p2803
sba(itravian_raidmap
raid
p2804
(dp2805
g6
I6619
sg7
S'Romani'
p2806
sg9
I0
sg10
I177
sg11
I102
sg12
g13
sg14
S'grande demone'
p2807
sba(itravian_raidmap
raid
p2808
(dp2809
g6
I10384
sg7
S'Teutoni'
p2810
sg9
I0
sg10
I168
sg11
I32
sg12
g13
sg14
S'Nadir'
p2811
sba(itravian_raidmap
raid
p2812
(dp2813
g6
I7791
sg7
S'Romani'
p2814
sg9
I0
sg10
I136
sg11
I80
sg12
g13
sg14
S'nikon77'
p2815
sba(itravian_raidmap
raid
p2816
(dp2817
g6
I10384
sg7
S'Teutoni'
p2818
sg9
I0
sg10
I169
sg11
I32
sg12
g13
sg14
S'Nadir'
p2819
sba(itravian_raidmap
raid
p2820
(dp2821
g6
I7791
sg7
S'Romani'
p2822
sg9
I0
sg10
I137
sg11
I80
sg12
g13
sg14
S'nikon77'
p2823
sba(itravian_raidmap
raid
p2824
(dp2825
g6
I10384
sg7
S'Teutoni'
p2826
sg9
I0
sg10
I170
sg11
I37
sg12
g13
sg14
S'Nadir'
p2827
sba(itravian_raidmap
raid
p2828
(dp2829
g6
I10384
sg7
S'Teutoni'
p2830
sg9
I0
sg10
I171
sg11
I33
sg12
g13
sg14
S'Nadir'
p2831
sba(itravian_raidmap
raid
p2832
(dp2833
g6
I10384
sg7
S'Teutoni'
p2834
sg9
I0
sg10
I172
sg11
I32
sg12
g13
sg14
S'Nadir'
p2835
sba(itravian_raidmap
raid
p2836
(dp2837
g6
I10384
sg7
S'Teutoni'
p2838
sg9
I0
sg10
I172
sg11
I33
sg12
g13
sg14
S'Nadir'
p2839
sba(itravian_raidmap
raid
p2840
(dp2841
g6
I6619
sg7
S'Romani'
p2842
sg9
I0
sg10
I182
sg11
I100
sg12
g13
sg14
S'grande demone'
p2843
sba(itravian_raidmap
raid
p2844
(dp2845
g6
I6619
sg7
S'Romani'
p2846
sg9
I0
sg10
I184
sg11
I100
sg12
g13
sg14
S'grande demone'
p2847
sba(itravian_raidmap
raid
p2848
(dp2849
g6
I10348
sg7
S'Teutoni'
p2850
sg9
I0
sg10
I177
sg11
I32
sg12
g13
sg14
S'Patavium'
p2851
sba(itravian_raidmap
raid
p2852
(dp2853
g6
I3649
sg7
S'Galli'
p2854
sg9
I0
sg10
I241
sg11
I67
sg12
g13
sg14
S'Lucya'
p2855
sba(itravian_raidmap
raid
p2856
(dp2857
g6
I3649
sg7
S'Galli'
p2858
sg9
I0
sg10
I241
sg11
I68
sg12
g13
sg14
S'Lucya'
p2859
sba(itravian_raidmap
raid
p2860
(dp2861
g6
I6619
sg7
S'Romani'
p2862
sg9
I0
sg10
I184
sg11
I104
sg12
g13
sg14
S'grande demone'
p2863
sba(itravian_raidmap
raid
p2864
(dp2865
g6
I7791
sg7
S'Romani'
p2866
sg9
I0
sg10
I146
sg11
I80
sg12
g13
sg14
S'nikon77'
p2867
sba(itravian_raidmap
raid
p2868
(dp2869
g6
I8840
sg7
S'Teutoni'
p2870
sg9
I0
sg10
I232
sg11
I88
sg12
g13
sg14
S'SNICH'
p2871
sba(itravian_raidmap
raid
p2872
(dp2873
g6
I3954
sg7
S'Galli'
p2874
sg9
I0
sg10
I237
sg11
I59
sg12
g13
sg14
S'Rickythedragon'
p2875
sba(itravian_raidmap
raid
p2876
(dp2877
g6
I8840
sg7
S'Teutoni'
p2878
sg9
I0
sg10
I233
sg11
I91
sg12
g13
sg14
S'SNICH'
p2879
sba(itravian_raidmap
raid
p2880
(dp2881
g6
I5964
sg7
S'Galli'
p2882
sg9
I0
sg10
I142
sg11
I82
sg12
g13
sg14
S'yuma'
p2883
sba(itravian_raidmap
raid
p2884
(dp2885
g6
I3954
sg7
S'Galli'
p2886
sg9
I0
sg10
I238
sg11
I59
sg12
g13
sg14
S'Rickythedragon'
p2887
sba(itravian_raidmap
raid
p2888
(dp2889
g6
I3954
sg7
S'Galli'
p2890
sg9
I0
sg10
I241
sg11
I55
sg12
g13
sg14
S'Rickythedragon'
p2891
sba(itravian_raidmap
raid
p2892
(dp2893
g6
I3649
sg7
S'Galli'
p2894
sg9
I0
sg10
I251
sg11
I66
sg12
g13
sg14
S'Lucya'
p2895
sba(itravian_raidmap
raid
p2896
(dp2897
g6
I3954
sg7
S'Galli'
p2898
sg9
I0
sg10
I242
sg11
I54
sg12
g13
sg14
S'Rickythedragon'
p2899
sba(itravian_raidmap
raid
p2900
(dp2901
g6
I5964
sg7
S'Galli'
p2902
sg9
I0
sg10
I148
sg11
I80
sg12
g13
sg14
S'yuma'
p2903
sba(itravian_raidmap
raid
p2904
(dp2905
g6
I8369
sg7
S'Romani'
p2906
sg9
I0
sg10
I135
sg11
I73
sg12
g13
sg14
S'marcoss'
p2907
sba(itravian_raidmap
raid
p2908
(dp2909
g6
I3649
sg7
S'Galli'
p2910
sg9
I0
sg10
I253
sg11
I65
sg12
g13
sg14
S'Lucya'
p2911
sba(itravian_raidmap
raid
p2912
(dp2913
g6
I3649
sg7
S'Galli'
p2914
sg9
I0
sg10
I253
sg11
I66
sg12
g13
sg14
S'Lucya'
p2915
sba(itravian_raidmap
raid
p2916
(dp2917
g6
I5964
sg7
S'Galli'
p2918
sg9
I0
sg10
I149
sg11
I80
sg12
g13
sg14
S'yuma'
p2919
sba(itravian_raidmap
raid
p2920
(dp2921
g6
I3646
sg7
S'Galli'
p2922
sg9
I0
sg10
I253
sg11
I72
sg12
g13
sg14
S'Lucya'
p2923
sba(itravian_raidmap
raid
p2924
(dp2925
g6
I5964
sg7
S'Galli'
p2926
sg9
I0
sg10
I149
sg11
I83
sg12
g13
sg14
S'yuma'
p2927
sba(itravian_raidmap
raid
p2928
(dp2929
g6
I5964
sg7
S'Galli'
p2930
sg9
I0
sg10
I150
sg11
I82
sg12
g13
sg14
S'yuma'
p2931
sba(itravian_raidmap
raid
p2932
(dp2933
g6
I6926
sg7
S'Romani'
p2934
sg9
I0
sg10
I205
sg11
I63
sg12
g13
sg14
S'scavesdude'
p2935
sba(itravian_raidmap
raid
p2936
(dp2937
g6
I5964
sg7
S'Galli'
p2938
sg9
I0
sg10
I149
sg11
I84
sg12
g13
sg14
S'yuma'
p2939
sba(itravian_raidmap
raid
p2940
(dp2941
g6
I6926
sg7
S'Romani'
p2942
sg9
I0
sg10
I205
sg11
I64
sg12
g13
sg14
S'scavesdude'
p2943
sba(itravian_raidmap
raid
p2944
(dp2945
g6
I5964
sg7
S'Galli'
p2946
sg9
I0
sg10
I150
sg11
I83
sg12
g13
sg14
S'yuma'
p2947
sba(itravian_raidmap
raid
p2948
(dp2949
g6
I6926
sg7
S'Romani'
p2950
sg9
I0
sg10
I205
sg11
I66
sg12
g13
sg14
S'scavesdude'
p2951
sba(itravian_raidmap
raid
p2952
(dp2953
g6
I6926
sg7
S'Romani'
p2954
sg9
I0
sg10
I206
sg11
I63
sg12
g13
sg14
S'scavesdude'
p2955
sba(itravian_raidmap
raid
p2956
(dp2957
g6
I6619
sg7
S'Romani'
p2958
sg9
I0
sg10
I191
sg11
I126
sg12
g13
sg14
S'grande demone'
p2959
sba(itravian_raidmap
raid
p2960
(dp2961
g6
I11252
sg7
S'Teutoni'
p2962
sg9
I0
sg10
I159
sg11
I57
sg12
g13
sg14
S'TEUTONICMAN'
p2963
sba(itravian_raidmap
raid
p2964
(dp2965
g6
I11252
sg7
S'Teutoni'
p2966
sg9
I0
sg10
I158
sg11
I60
sg12
g13
sg14
S'TEUTONICMAN'
p2967
sba(itravian_raidmap
raid
p2968
(dp2969
g6
I11252
sg7
S'Teutoni'
p2970
sg9
I0
sg10
I158
sg11
I61
sg12
g13
sg14
S'TEUTONICMAN'
p2971
sba(itravian_raidmap
raid
p2972
(dp2973
g6
I11252
sg7
S'Teutoni'
p2974
sg9
I0
sg10
I159
sg11
I60
sg12
g13
sg14
S'TEUTONICMAN'
p2975
sba(itravian_raidmap
raid
p2976
(dp2977
g6
I11252
sg7
S'Teutoni'
p2978
sg9
I0
sg10
I159
sg11
I61
sg12
g13
sg14
S'TEUTONICMAN'
p2979
sba(itravian_raidmap
raid
p2980
(dp2981
g6
I6926
sg7
S'Romani'
p2982
sg9
I0
sg10
I203
sg11
I84
sg12
g13
sg14
S'scavesdude'
p2983
sba(itravian_raidmap
raid
p2984
(dp2985
g6
I11252
sg7
S'Teutoni'
p2986
sg9
I0
sg10
I160
sg11
I60
sg12
g13
sg14
S'TEUTONICMAN'
p2987
sba(itravian_raidmap
raid
p2988
(dp2989
g6
I11252
sg7
S'Teutoni'
p2990
sg9
I0
sg10
I160
sg11
I61
sg12
g13
sg14
S'TEUTONICMAN'
p2991
sba(itravian_raidmap
raid
p2992
(dp2993
g6
I11252
sg7
S'Teutoni'
p2994
sg9
I0
sg10
I161
sg11
I59
sg12
g13
sg14
S'TEUTONICMAN'
p2995
sba(itravian_raidmap
raid
p2996
(dp2997
g6
I8234
sg7
S'Romani'
p2998
sg9
I0
sg10
I164
sg11
I36
sg12
g13
sg14
S'naxos'
p2999
sba(itravian_raidmap
raid
p3000
(dp3001
g6
I6926
sg7
S'Romani'
p3002
sg9
I0
sg10
I204
sg11
I83
sg12
g13
sg14
S'scavesdude'
p3003
sba(itravian_raidmap
raid
p3004
(dp3005
g6
I6926
sg7
S'Romani'
p3006
sg9
I0
sg10
I204
sg11
I84
sg12
g13
sg14
S'scavesdude'
p3007
sba(itravian_raidmap
raid
p3008
(dp3009
g6
I8234
sg7
S'Romani'
p3010
sg9
I0
sg10
I165
sg11
I35
sg12
g13
sg14
S'naxos'
p3011
sba(itravian_raidmap
raid
p3012
(dp3013
g6
I11252
sg7
S'Teutoni'
p3014
sg9
I0
sg10
I161
sg11
I62
sg12
g13
sg14
S'TEUTONICMAN'
p3015
sba(itravian_raidmap
raid
p3016
(dp3017
g6
I6926
sg7
S'Romani'
p3018
sg9
I0
sg10
I208
sg11
I75
sg12
g13
sg14
S'scavesdude'
p3019
sba(itravian_raidmap
raid
p3020
(dp3021
g6
I8234
sg7
S'Romani'
p3022
sg9
I0
sg10
I165
sg11
I36
sg12
g13
sg14
S'naxos'
p3023
sba(itravian_raidmap
raid
p3024
(dp3025
g6
I11252
sg7
S'Teutoni'
p3026
sg9
I0
sg10
I162
sg11
I60
sg12
g13
sg14
S'TEUTONICMAN'
p3027
sba(itravian_raidmap
raid
p3028
(dp3029
g6
I8234
sg7
S'Romani'
p3030
sg9
I0
sg10
I165
sg11
I37
sg12
g13
sg14
S'naxos'
p3031
sba(itravian_raidmap
raid
p3032
(dp3033
g6
I11252
sg7
S'Teutoni'
p3034
sg9
I0
sg10
I162
sg11
I63
sg12
g13
sg14
S'TEUTONICMAN'
p3035
sba(itravian_raidmap
raid
p3036
(dp3037
g6
I8234
sg7
S'Romani'
p3038
sg9
I0
sg10
I166
sg11
I36
sg12
g13
sg14
S'naxos'
p3039
sba(itravian_raidmap
raid
p3040
(dp3041
g6
I8234
sg7
S'Romani'
p3042
sg9
I0
sg10
I166
sg11
I37
sg12
g13
sg14
S'naxos'
p3043
sba(itravian_raidmap
raid
p3044
(dp3045
g6
I11252
sg7
S'Teutoni'
p3046
sg9
I0
sg10
I162
sg11
I65
sg12
g13
sg14
S'TEUTONICMAN'
p3047
sba(itravian_raidmap
raid
p3048
(dp3049
g6
I10183
sg7
S'Teutoni'
p3050
sg9
I0
sg10
I219
sg11
I9
sg12
g13
sg14
S'Iron Man'
p3051
sba(itravian_raidmap
raid
p3052
(dp3053
g6
I10183
sg7
S'Teutoni'
p3054
sg9
I0
sg10
I220
sg11
I8
sg12
g13
sg14
S'Iron Man'
p3055
sba(itravian_raidmap
raid
p3056
(dp3057
g6
I10183
sg7
S'Teutoni'
p3058
sg9
I0
sg10
I220
sg11
I9
sg12
g13
sg14
S'Iron Man'
p3059
sba(itravian_raidmap
raid
p3060
(dp3061
g6
I10183
sg7
S'Teutoni'
p3062
sg9
I0
sg10
I222
sg11
I4
sg12
g13
sg14
S'Iron Man'
p3063
sba(itravian_raidmap
raid
p3064
(dp3065
g6
I10183
sg7
S'Teutoni'
p3066
sg9
I0
sg10
I222
sg11
I8
sg12
g13
sg14
S'Iron Man'
p3067
sba(itravian_raidmap
raid
p3068
(dp3069
g6
I3954
sg7
S'Galli'
p3070
sg9
I0
sg10
I255
sg11
I58
sg12
g13
sg14
S'Rickythedragon'
p3071
sba(itravian_raidmap
raid
p3072
(dp3073
g6
I10183
sg7
S'Teutoni'
p3074
sg9
I0
sg10
I222
sg11
I10
sg12
g13
sg14
S'Iron Man'
p3075
sba(itravian_raidmap
raid
p3076
(dp3077
g6
I10183
sg7
S'Teutoni'
p3078
sg9
I0
sg10
I222
sg11
I11
sg12
g13
sg14
S'Iron Man'
p3079
sba(itravian_raidmap
raid
p3080
(dp3081
g6
I3339
sg7
S'Galli'
p3082
sg9
I0
sg10
I275
sg11
I80
sg12
g13
sg14
S'flowergreg'
p3083
sba(itravian_raidmap
raid
p3084
(dp3085
g6
I3339
sg7
S'Galli'
p3086
sg9
I0
sg10
I279
sg11
I67
sg12
g13
sg14
S'flowergreg'
p3087
sba(itravian_raidmap
raid
p3088
(dp3089
g6
I3954
sg7
S'Galli'
p3090
sg9
I0
sg10
I256
sg11
I58
sg12
g13
sg14
S'Rickythedragon'
p3091
sba(itravian_raidmap
raid
p3092
(dp3093
g6
I3954
sg7
S'Galli'
p3094
sg9
I0
sg10
I256
sg11
I59
sg12
g13
sg14
S'Rickythedragon'
p3095
sba(itravian_raidmap
raid
p3096
(dp3097
g6
I3525
sg7
S'Galli'
p3098
sg9
I0
sg10
I270
sg11
I74
sg12
g13
sg14
S'mauroilgallo'
p3099
sba(itravian_raidmap
raid
p3100
(dp3101
g6
I3523
sg7
S'Galli'
p3102
sg9
I0
sg10
I271
sg11
I73
sg12
g13
sg14
S'mauroilgallo'
p3103
sba(itravian_raidmap
raid
p3104
(dp3105
g6
I3525
sg7
S'Galli'
p3106
sg9
I0
sg10
I271
sg11
I74
sg12
g13
sg14
S'mauroilgallo'
p3107
sba(itravian_raidmap
raid
p3108
(dp3109
g6
I3525
sg7
S'Galli'
p3110
sg9
I0
sg10
I271
sg11
I75
sg12
g13
sg14
S'mauroilgallo'
p3111
sba(itravian_raidmap
raid
p3112
(dp3113
g6
I3523
sg7
S'Galli'
p3114
sg9
I0
sg10
I272
sg11
I73
sg12
g13
sg14
S'mauroilgallo'
p3115
sba(itravian_raidmap
raid
p3116
(dp3117
g6
I6926
sg7
S'Romani'
p3118
sg9
I0
sg10
I218
sg11
I74
sg12
g13
sg14
S'scavesdude'
p3119
sba(itravian_raidmap
raid
p3120
(dp3121
g6
I10222
sg7
S'Teutoni'
p3122
sg9
I0
sg10
I205
sg11
I94
sg12
g13
sg14
S'Mastck'
p3123
sba(itravian_raidmap
raid
p3124
(dp3125
g6
I11252
sg7
S'Teutoni'
p3126
sg9
I0
sg10
I179
sg11
I45
sg12
g13
sg14
S'TEUTONICMAN'
p3127
sba(itravian_raidmap
raid
p3128
(dp3129
g6
I9558
sg7
S'Teutoni'
p3130
sg9
I0
sg10
I210
sg11
I140
sg12
g13
sg14
S'fuoridecapu'
p3131
sba(itravian_raidmap
raid
p3132
(dp3133
g6
I3525
sg7
S'Galli'
p3134
sg9
I0
sg10
I272
sg11
I75
sg12
g13
sg14
S'mauroilgallo'
p3135
sba(itravian_raidmap
raid
p3136
(dp3137
g6
I6586
sg7
S'Galli'
p3138
sg9
I0
sg10
I148
sg11
I62
sg12
g13
sg14
S'marcopancio'
p3139
sba(itravian_raidmap
raid
p3140
(dp3141
g6
I3525
sg7
S'Galli'
p3142
sg9
I0
sg10
I273
sg11
I75
sg12
g13
sg14
S'mauroilgallo'
p3143
sba(itravian_raidmap
raid
p3144
(dp3145
g6
I6586
sg7
S'Galli'
p3146
sg9
I0
sg10
I148
sg11
I63
sg12
g13
sg14
S'marcopancio'
p3147
sba(itravian_raidmap
raid
p3148
(dp3149
g6
I6586
sg7
S'Galli'
p3150
sg9
I0
sg10
I149
sg11
I63
sg12
g13
sg14
S'marcopancio'
p3151
sba(itravian_raidmap
raid
p3152
(dp3153
g6
I9558
sg7
S'Teutoni'
p3154
sg9
I0
sg10
I218
sg11
I134
sg12
g13
sg14
S'fuoridecapu'
p3155
sba(itravian_raidmap
raid
p3156
(dp3157
g6
I9558
sg7
S'Teutoni'
p3158
sg9
I0
sg10
I218
sg11
I135
sg12
g13
sg14
S'fuoridecapu'
p3159
sba(itravian_raidmap
raid
p3160
(dp3161
g6
I9558
sg7
S'Teutoni'
p3162
sg9
I0
sg10
I216
sg11
I139
sg12
g13
sg14
S'fuoridecapu'
p3163
sba(itravian_raidmap
raid
p3164
(dp3165
g6
I9558
sg7
S'Teutoni'
p3166
sg9
I0
sg10
I219
sg11
I135
sg12
g13
sg14
S'fuoridecapu'
p3167
sba(itravian_raidmap
raid
p3168
(dp3169
g6
I8534
sg7
S'Romani'
p3170
sg9
I0
sg10
I164
sg11
I47
sg12
g13
sg14
S'rusty'
p3171
sba(itravian_raidmap
raid
p3172
(dp3173
g6
I9558
sg7
S'Teutoni'
p3174
sg9
I0
sg10
I217
sg11
I139
sg12
g13
sg14
S'fuoridecapu'
p3175
sba(itravian_raidmap
raid
p3176
(dp3177
g6
I9558
sg7
S'Teutoni'
p3178
sg9
I0
sg10
I219
sg11
I136
sg12
g13
sg14
S'fuoridecapu'
p3179
sba(itravian_raidmap
raid
p3180
(dp3181
g6
I9558
sg7
S'Teutoni'
p3182
sg9
I0
sg10
I221
sg11
I134
sg12
g13
sg14
S'fuoridecapu'
p3183
sba(itravian_raidmap
raid
p3184
(dp3185
g6
I10245
sg7
S'Teutoni'
p3186
sg9
I0
sg10
I194
sg11
I128
sg12
g13
sg14
S'Archimede'
p3187
sba(itravian_raidmap
raid
p3188
(dp3189
g6
I3339
sg7
S'Galli'
p3190
sg9
I0
sg10
I287
sg11
I70
sg12
g13
sg14
S'flowergreg'
p3191
sba(itravian_raidmap
raid
p3192
(dp3193
g6
I8534
sg7
S'Romani'
p3194
sg9
I0
sg10
I168
sg11
I45
sg12
g13
sg14
S'rusty'
p3195
sba(itravian_raidmap
raid
p3196
(dp3197
g6
I3339
sg7
S'Galli'
p3198
sg9
I0
sg10
I288
sg11
I69
sg12
g13
sg14
S'flowergreg'
p3199
sba(itravian_raidmap
raid
p3200
(dp3201
g6
I8297
sg7
S'Romani'
p3202
sg9
I0
sg10
I164
sg11
I84
sg12
g13
sg14
S'noire!'
p3203
sba(itravian_raidmap
raid
p3204
(dp3205
g6
I8534
sg7
S'Romani'
p3206
sg9
I0
sg10
I170
sg11
I41
sg12
g13
sg14
S'rusty'
p3207
sba(itravian_raidmap
raid
p3208
(dp3209
g6
I8534
sg7
S'Romani'
p3210
sg9
I0
sg10
I169
sg11
I45
sg12
g13
sg14
S'rusty'
p3211
sba(itravian_raidmap
raid
p3212
(dp3213
g6
I8297
sg7
S'Romani'
p3214
sg9
I0
sg10
I163
sg11
I87
sg12
g13
sg14
S'noire!'
p3215
sba(itravian_raidmap
raid
p3216
(dp3217
g6
I11227
sg7
S'Teutoni'
p3218
sg9
I0
sg10
I198
sg11
I5
sg12
g13
sg14
S'Connor macloud'
p3219
sba(itravian_raidmap
raid
p3220
(dp3221
g6
I10245
sg7
S'Teutoni'
p3222
sg9
I0
sg10
I196
sg11
I134
sg12
g13
sg14
S'Archimede'
p3223
sba(itravian_raidmap
raid
p3224
(dp3225
g6
I10222
sg7
S'Teutoni'
p3226
sg9
I0
sg10
I209
sg11
I115
sg12
g13
sg14
S'Mastck'
p3227
sba(itravian_raidmap
raid
p3228
(dp3229
g6
I8297
sg7
S'Romani'
p3230
sg9
I0
sg10
I164
sg11
I88
sg12
g13
sg14
S'noire!'
p3231
sba(itravian_raidmap
raid
p3232
(dp3233
g6
I10222
sg7
S'Teutoni'
p3234
sg9
I0
sg10
I208
sg11
I117
sg12
g13
sg14
S'Mastck'
p3235
sba(itravian_raidmap
raid
p3236
(dp3237
g6
I10222
sg7
S'Teutoni'
p3238
sg9
I0
sg10
I210
sg11
I114
sg12
g13
sg14
S'Mastck'
p3239
sba(itravian_raidmap
raid
p3240
(dp3241
g6
I10245
sg7
S'Teutoni'
p3242
sg9
I0
sg10
I197
sg11
I134
sg12
g13
sg14
S'Archimede'
p3243
sba(itravian_raidmap
raid
p3244
(dp3245
g6
I10222
sg7
S'Teutoni'
p3246
sg9
I0
sg10
I210
sg11
I115
sg12
g13
sg14
S'Mastck'
p3247
sba(itravian_raidmap
raid
p3248
(dp3249
g6
I10222
sg7
S'Teutoni'
p3250
sg9
I0
sg10
I209
sg11
I117
sg12
g13
sg14
S'Mastck'
p3251
sba(itravian_raidmap
raid
p3252
(dp3253
g6
I10245
sg7
S'Teutoni'
p3254
sg9
I0
sg10
I197
sg11
I135
sg12
g13
sg14
S'Archimede'
p3255
sba(itravian_raidmap
raid
p3256
(dp3257
g6
I9558
sg7
S'Teutoni'
p3258
sg9
I0
sg10
I241
sg11
I114
sg12
g13
sg14
S'fuoridecapu'
p3259
sba(itravian_raidmap
raid
p3260
(dp3261
g6
I8297
sg7
S'Romani'
p3262
sg9
I0
sg10
I163
sg11
I93
sg12
g13
sg14
S'noire!'
p3263
sba(itravian_raidmap
raid
p3264
(dp3265
g6
I10245
sg7
S'Teutoni'
p3266
sg9
I0
sg10
I198
sg11
I135
sg12
g13
sg14
S'Archimede'
p3267
sba(itravian_raidmap
raid
p3268
(dp3269
g6
I12464
sg7
S'Teutoni'
p3270
sg9
I0
sg10
I138
sg11
I62
sg12
g13
sg14
S'Teutomania'
p3271
sba(itravian_raidmap
raid
p3272
(dp3273
g6
I10245
sg7
S'Teutoni'
p3274
sg9
I0
sg10
I198
sg11
I136
sg12
g13
sg14
S'Archimede'
p3275
sba(itravian_raidmap
raid
p3276
(dp3277
g6
I8297
sg7
S'Romani'
p3278
sg9
I0
sg10
I167
sg11
I88
sg12
g13
sg14
S'noire!'
p3279
sba(itravian_raidmap
raid
p3280
(dp3281
g6
I10245
sg7
S'Teutoni'
p3282
sg9
I0
sg10
I203
sg11
I131
sg12
g13
sg14
S'Archimede'
p3283
sba(itravian_raidmap
raid
p3284
(dp3285
g6
I10245
sg7
S'Teutoni'
p3286
sg9
I0
sg10
I203
sg11
I133
sg12
g13
sg14
S'Archimede'
p3287
sba(itravian_raidmap
raid
p3288
(dp3289
g6
I10245
sg7
S'Teutoni'
p3290
sg9
I0
sg10
I201
sg11
I137
sg12
g13
sg14
S'Archimede'
p3291
sba(itravian_raidmap
raid
p3292
(dp3293
g6
I10245
sg7
S'Teutoni'
p3294
sg9
I0
sg10
I207
sg11
I128
sg12
g13
sg14
S'Archimede'
p3295
sba(itravian_raidmap
raid
p3296
(dp3297
g6
I10245
sg7
S'Teutoni'
p3298
sg9
I0
sg10
I207
sg11
I130
sg12
g13
sg14
S'Archimede'
p3299
sba(itravian_raidmap
raid
p3300
(dp3301
g6
I12464
sg7
S'Teutoni'
p3302
sg9
I0
sg10
I142
sg11
I65
sg12
g13
sg14
S'Teutomania'
p3303
sba(itravian_raidmap
raid
p3304
(dp3305
g6
I12464
sg7
S'Teutoni'
p3306
sg9
I0
sg10
I142
sg11
I69
sg12
g13
sg14
S'Teutomania'
p3307
sba(itravian_raidmap
raid
p3308
(dp3309
g6
I12464
sg7
S'Teutoni'
p3310
sg9
I0
sg10
I142
sg11
I70
sg12
g13
sg14
S'Teutomania'
p3311
sba(itravian_raidmap
raid
p3312
(dp3313
g6
I12464
sg7
S'Teutoni'
p3314
sg9
I0
sg10
I143
sg11
I69
sg12
g13
sg14
S'Teutomania'
p3315
sba(itravian_raidmap
raid
p3316
(dp3317
g6
I12464
sg7
S'Teutoni'
p3318
sg9
I0
sg10
I143
sg11
I70
sg12
g13
sg14
S'Teutomania'
p3319
sba(itravian_raidmap
raid
p3320
(dp3321
g6
I12464
sg7
S'Teutoni'
p3322
sg9
I0
sg10
I143
sg11
I71
sg12
g13
sg14
S'Teutomania'
p3323
sba(itravian_raidmap
raid
p3324
(dp3325
g6
I12464
sg7
S'Teutoni'
p3326
sg9
I0
sg10
I144
sg11
I69
sg12
g13
sg14
S'Teutomania'
p3327
sba(itravian_raidmap
raid
p3328
(dp3329
g6
I12464
sg7
S'Teutoni'
p3330
sg9
I0
sg10
I144
sg11
I70
sg12
g13
sg14
S'Teutomania'
p3331
sba(itravian_raidmap
raid
p3332
(dp3333
g6
I6926
sg7
S'Romani'
p3334
sg9
I0
sg10
I231
sg11
I100
sg12
g13
sg14
S'scavesdude'
p3335
sba(itravian_raidmap
raid
p3336
(dp3337
g6
I6926
sg7
S'Romani'
p3338
sg9
I0
sg10
I232
sg11
I100
sg12
g13
sg14
S'scavesdude'
p3339
sba(itravian_raidmap
raid
p3340
(dp3341
g6
I12464
sg7
S'Teutoni'
p3342
sg9
I0
sg10
I147
sg11
I72
sg12
g13
sg14
S'Teutomania'
p3343
sba(itravian_raidmap
raid
p3344
(dp3345
g6
I7395
sg7
S'Romani'
p3346
sg9
I0
sg10
I202
sg11
I134
sg12
g13
sg14
S'GRANchi avatori'
p3347
sba(itravian_raidmap
raid
p3348
(dp3349
g6
I5431
sg7
S'Galli'
p3350
sg9
I0
sg10
I229
sg11
I53
sg12
g13
sg14
S'mikelanzi'
p3351
sba(itravian_raidmap
raid
p3352
(dp3353
g6
I5431
sg7
S'Galli'
p3354
sg9
I0
sg10
I230
sg11
I53
sg12
g13
sg14
S'mikelanzi'
p3355
sba(itravian_raidmap
raid
p3356
(dp3357
g6
I8371
sg7
S'Romani'
p3358
sg9
I0
sg10
I178
sg11
I113
sg12
g13
sg14
S'Slik'
p3359
sba(itravian_raidmap
raid
p3360
(dp3361
g6
I5431
sg7
S'Galli'
p3362
sg9
I0
sg10
I238
sg11
I27
sg12
g13
sg14
S'mikelanzi'
p3363
sba(itravian_raidmap
raid
p3364
(dp3365
g6
I8534
sg7
S'Romani'
p3366
sg9
I0
sg10
I204
sg11
I55
sg12
g13
sg14
S'rusty'
p3367
sba(itravian_raidmap
raid
p3368
(dp3369
g6
I8534
sg7
S'Romani'
p3370
sg9
I0
sg10
I205
sg11
I54
sg12
g13
sg14
S'rusty'
p3371
sba(itravian_raidmap
raid
p3372
(dp3373
g6
I8534
sg7
S'Romani'
p3374
sg9
I0
sg10
I205
sg11
I55
sg12
g13
sg14
S'rusty'
p3375
sba(itravian_raidmap
raid
p3376
(dp3377
g6
I8534
sg7
S'Romani'
p3378
sg9
I0
sg10
I208
sg11
I51
sg12
g13
sg14
S'rusty'
p3379
sba(itravian_raidmap
raid
p3380
(dp3381
g6
I13584
sg7
S'Teutoni'
p3382
sg9
I0
sg10
I138
sg11
I63
sg12
g13
sg14
S'artemisia'
p3383
sba(itravian_raidmap
raid
p3384
(dp3385
g6
I8534
sg7
S'Romani'
p3386
sg9
I0
sg10
I210
sg11
I49
sg12
g13
sg14
S'rusty'
p3387
sba(itravian_raidmap
raid
p3388
(dp3389
g6
I8534
sg7
S'Romani'
p3390
sg9
I0
sg10
I211
sg11
I48
sg12
g13
sg14
S'rusty'
p3391
sba(itravian_raidmap
raid
p3392
(dp3393
g6
I8534
sg7
S'Romani'
p3394
sg9
I0
sg10
I212
sg11
I49
sg12
g13
sg14
S'rusty'
p3395
sba(itravian_raidmap
raid
p3396
(dp3397
g6
I8915
sg7
S'Romani'
p3398
sg9
I0
sg10
I203
sg11
I-1
sg12
g13
sg14
S'Zool'
p3399
sba(itravian_raidmap
raid
p3400
(dp3401
g6
I13584
sg7
S'Teutoni'
p3402
sg9
I0
sg10
I144
sg11
I62
sg12
g13
sg14
S'artemisia'
p3403
sba(itravian_raidmap
raid
p3404
(dp3405
g6
I13584
sg7
S'Teutoni'
p3406
sg9
I0
sg10
I144
sg11
I63
sg12
g13
sg14
S'artemisia'
p3407
sba(itravian_raidmap
raid
p3408
(dp3409
g6
I13584
sg7
S'Teutoni'
p3410
sg9
I0
sg10
I145
sg11
I62
sg12
g13
sg14
S'artemisia'
p3411
sba(itravian_raidmap
raid
p3412
(dp3413
g6
I13584
sg7
S'Teutoni'
p3414
sg9
I0
sg10
I145
sg11
I63
sg12
g13
sg14
S'artemisia'
p3415
sba(itravian_raidmap
raid
p3416
(dp3417
g6
I13584
sg7
S'Teutoni'
p3418
sg9
I0
sg10
I145
sg11
I64
sg12
g13
sg14
S'artemisia'
p3419
sba(itravian_raidmap
raid
p3420
(dp3421
g6
I13584
sg7
S'Teutoni'
p3422
sg9
I0
sg10
I146
sg11
I62
sg12
g13
sg14
S'artemisia'
p3423
sba(itravian_raidmap
raid
p3424
(dp3425
g6
I5964
sg7
S'Galli'
p3426
sg9
I0
sg10
I207
sg11
I99
sg12
g13
sg14
S'yuma'
p3427
sba(itravian_raidmap
raid
p3428
(dp3429
g6
I13584
sg7
S'Teutoni'
p3430
sg9
I0
sg10
I146
sg11
I63
sg12
g13
sg14
S'artemisia'
p3431
sba(itravian_raidmap
raid
p3432
(dp3433
g6
I8799
sg7
S'Romani'
p3434
sg9
I0
sg10
I210
sg11
I3
sg12
g13
sg14
S'Il contadino'
p3435
sba(itravian_raidmap
raid
p3436
(dp3437
g6
I5964
sg7
S'Galli'
p3438
sg9
I0
sg10
I207
sg11
I100
sg12
g13
sg14
S'yuma'
p3439
sba(itravian_raidmap
raid
p3440
(dp3441
g6
I5964
sg7
S'Galli'
p3442
sg9
I0
sg10
I208
sg11
I99
sg12
g13
sg14
S'yuma'
p3443
sba(itravian_raidmap
raid
p3444
(dp3445
g6
I8799
sg7
S'Romani'
p3446
sg9
I0
sg10
I211
sg11
I-6
sg12
g13
sg14
S'Il contadino'
p3447
sba(itravian_raidmap
raid
p3448
(dp3449
g6
I13584
sg7
S'Teutoni'
p3450
sg9
I0
sg10
I144
sg11
I71
sg12
g13
sg14
S'artemisia'
p3451
sba(itravian_raidmap
raid
p3452
(dp3453
g6
I6272
sg7
S'Galli'
p3454
sg9
I0
sg10
I186
sg11
I117
sg12
g13
sg14
S'ultras como'
p3455
sba(itravian_raidmap
raid
p3456
(dp3457
g6
I8799
sg7
S'Romani'
p3458
sg9
I0
sg10
I213
sg11
I0
sg12
g13
sg14
S'Il contadino'
p3459
sba(itravian_raidmap
raid
p3460
(dp3461
g6
I6272
sg7
S'Galli'
p3462
sg9
I0
sg10
I187
sg11
I117
sg12
g13
sg14
S'ultras como'
p3463
sba(itravian_raidmap
raid
p3464
(dp3465
g6
I6272
sg7
S'Galli'
p3466
sg9
I0
sg10
I187
sg11
I118
sg12
g13
sg14
S'ultras como'
p3467
sba(itravian_raidmap
raid
p3468
(dp3469
g6
I8799
sg7
S'Romani'
p3470
sg9
I0
sg10
I215
sg11
I3
sg12
g13
sg14
S'Il contadino'
p3471
sba(itravian_raidmap
raid
p3472
(dp3473
g6
I4633
sg7
S'Galli'
p3474
sg9
I0
sg10
I278
sg11
I75
sg12
g13
sg14
S'Aelyth'
p3475
sba(itravian_raidmap
raid
p3476
(dp3477
g6
I8799
sg7
S'Romani'
p3478
sg9
I0
sg10
I216
sg11
I-1
sg12
g13
sg14
S'Il contadino'
p3479
sba(itravian_raidmap
raid
p3480
(dp3481
g6
I8799
sg7
S'Romani'
p3482
sg9
I0
sg10
I216
sg11
I4
sg12
g13
sg14
S'Il contadino'
p3483
sba(itravian_raidmap
raid
p3484
(dp3485
g6
I4633
sg7
S'Galli'
p3486
sg9
I0
sg10
I278
sg11
I76
sg12
g13
sg14
S'Aelyth'
p3487
sba(itravian_raidmap
raid
p3488
(dp3489
g6
I8799
sg7
S'Romani'
p3490
sg9
I0
sg10
I217
sg11
I-1
sg12
g13
sg14
S'Il contadino'
p3491
sba(itravian_raidmap
raid
p3492
(dp3493
g6
I4633
sg7
S'Galli'
p3494
sg9
I0
sg10
I279
sg11
I75
sg12
g13
sg14
S'Aelyth'
p3495
sba(itravian_raidmap
raid
p3496
(dp3497
g6
I5964
sg7
S'Galli'
p3498
sg9
I0
sg10
I212
sg11
I103
sg12
g13
sg14
S'yuma'
p3499
sba(itravian_raidmap
raid
p3500
(dp3501
g6
I8799
sg7
S'Romani'
p3502
sg9
I0
sg10
I218
sg11
I-1
sg12
g13
sg14
S'Il contadino'
p3503
sba(itravian_raidmap
raid
p3504
(dp3505
g6
I5964
sg7
S'Galli'
p3506
sg9
I0
sg10
I213
sg11
I103
sg12
g13
sg14
S'yuma'
p3507
sba(itravian_raidmap
raid
p3508
(dp3509
g6
I4633
sg7
S'Galli'
p3510
sg9
I0
sg10
I281
sg11
I79
sg12
g13
sg14
S'Aelyth'
p3511
sba(itravian_raidmap
raid
p3512
(dp3513
g6
I10238
sg7
S'Romani'
p3514
sg9
I0
sg10
I159
sg11
I47
sg12
g13
sg14
S'livio71'
p3515
sba(itravian_raidmap
raid
p3516
(dp3517
g6
I13584
sg7
S'Teutoni'
p3518
sg9
I0
sg10
I160
sg11
I73
sg12
g13
sg14
S'artemisia'
p3519
sba(itravian_raidmap
raid
p3520
(dp3521
g6
I13584
sg7
S'Teutoni'
p3522
sg9
I0
sg10
I163
sg11
I73
sg12
g13
sg14
S'artemisia'
p3523
sba(itravian_raidmap
raid
p3524
(dp3525
g6
I10168
sg7
S'Romani'
p3526
sg9
I0
sg10
I168
sg11
I46
sg12
g13
sg14
S'binik'
p3527
sba(itravian_raidmap
raid
p3528
(dp3529
g6
I9852
sg7
S'Romani'
p3530
sg9
I0
sg10
I191
sg11
I19
sg12
g13
sg14
S'Tetris'
p3531
sba(itravian_raidmap
raid
p3532
(dp3533
g6
I9852
sg7
S'Romani'
p3534
sg9
I0
sg10
I191
sg11
I20
sg12
g13
sg14
S'Tetris'
p3535
sba(itravian_raidmap
raid
p3536
(dp3537
g6
I9852
sg7
S'Romani'
p3538
sg9
I0
sg10
I191
sg11
I21
sg12
g13
sg14
S'Tetris'
p3539
sba(itravian_raidmap
raid
p3540
(dp3541
g6
I14686
sg7
S'Teutoni'
p3542
sg9
I0
sg10
I135
sg11
I66
sg12
g13
sg14
S'lanpizva'
p3543
sba(itravian_raidmap
raid
p3544
(dp3545
g6
I10238
sg7
S'Romani'
p3546
sg9
I0
sg10
I176
sg11
I48
sg12
g13
sg14
S'livio71'
p3547
sba(itravian_raidmap
raid
p3548
(dp3549
g6
I10238
sg7
S'Romani'
p3550
sg9
I0
sg10
I175
sg11
I53
sg12
g13
sg14
S'livio71'
p3551
sba(itravian_raidmap
raid
p3552
(dp3553
g6
I10238
sg7
S'Romani'
p3554
sg9
I0
sg10
I177
sg11
I48
sg12
g13
sg14
S'livio71'
p3555
sba(itravian_raidmap
raid
p3556
(dp3557
g6
I8455
sg7
S'Romani'
p3558
sg9
I0
sg10
I239
sg11
I90
sg12
g13
sg14
S'brodway'
p3559
sba(itravian_raidmap
raid
p3560
(dp3561
g6
I10238
sg7
S'Romani'
p3562
sg9
I0
sg10
I178
sg11
I47
sg12
g13
sg14
S'livio71'
p3563
sba(itravian_raidmap
raid
p3564
(dp3565
g6
I10238
sg7
S'Romani'
p3566
sg9
I0
sg10
I178
sg11
I49
sg12
g13
sg14
S'livio71'
p3567
sba(itravian_raidmap
raid
p3568
(dp3569
g6
I10238
sg7
S'Romani'
p3570
sg9
I0
sg10
I179
sg11
I50
sg12
g13
sg14
S'livio71'
p3571
sba(itravian_raidmap
raid
p3572
(dp3573
g6
I10238
sg7
S'Romani'
p3574
sg9
I0
sg10
I179
sg11
I52
sg12
g13
sg14
S'livio71'
p3575
sba(itravian_raidmap
raid
p3576
(dp3577
g6
I10168
sg7
S'Romani'
p3578
sg9
I0
sg10
I185
sg11
I40
sg12
g13
sg14
S'binik'
p3579
sba(itravian_raidmap
raid
p3580
(dp3581
g6
I14686
sg7
S'Teutoni'
p3582
sg9
I0
sg10
I140
sg11
I76
sg12
g13
sg14
S'lanpizva'
p3583
sba(itravian_raidmap
raid
p3584
(dp3585
g6
I10238
sg7
S'Romani'
p3586
sg9
I0
sg10
I180
sg11
I56
sg12
g13
sg14
S'livio71'
p3587
sba(itravian_raidmap
raid
p3588
(dp3589
g6
I14686
sg7
S'Teutoni'
p3590
sg9
I0
sg10
I149
sg11
I59
sg12
g13
sg14
S'lanpizva'
p3591
sba(itravian_raidmap
raid
p3592
(dp3593
g6
I14686
sg7
S'Teutoni'
p3594
sg9
I0
sg10
I149
sg11
I60
sg12
g13
sg14
S'lanpizva'
p3595
sba(itravian_raidmap
raid
p3596
(dp3597
g6
I14686
sg7
S'Teutoni'
p3598
sg9
I0
sg10
I150
sg11
I60
sg12
g13
sg14
S'lanpizva'
p3599
sba(itravian_raidmap
raid
p3600
(dp3601
g6
I14686
sg7
S'Teutoni'
p3602
sg9
I0
sg10
I151
sg11
I58
sg12
g13
sg14
S'lanpizva'
p3603
sba(itravian_raidmap
raid
p3604
(dp3605
g6
I10238
sg7
S'Romani'
p3606
sg9
I0
sg10
I182
sg11
I56
sg12
g13
sg14
S'livio71'
p3607
sba(itravian_raidmap
raid
p3608
(dp3609
g6
I12749
sg7
S'Teutoni'
p3610
sg9
I0
sg10
I226
sg11
I82
sg12
g13
sg14
S'aglianico'
p3611
sba(itravian_raidmap
raid
p3612
(dp3613
g6
I8457
sg7
S'Romani'
p3614
sg9
I0
sg10
I247
sg11
I88
sg12
g13
sg14
S'brodway'
p3615
sba(itravian_raidmap
raid
p3616
(dp3617
g6
I10168
sg7
S'Romani'
p3618
sg9
I0
sg10
I188
sg11
I48
sg12
g13
sg14
S'binik'
p3619
sba(itravian_raidmap
raid
p3620
(dp3621
g6
I10238
sg7
S'Romani'
p3622
sg9
I0
sg10
I186
sg11
I45
sg12
g13
sg14
S'livio71'
p3623
sba(itravian_raidmap
raid
p3624
(dp3625
g6
I12749
sg7
S'Teutoni'
p3626
sg9
I0
sg10
I227
sg11
I82
sg12
g13
sg14
S'aglianico'
p3627
sba(itravian_raidmap
raid
p3628
(dp3629
g6
I10168
sg7
S'Romani'
p3630
sg9
I0
sg10
I189
sg11
I46
sg12
g13
sg14
S'binik'
p3631
sba(itravian_raidmap
raid
p3632
(dp3633
g6
I10168
sg7
S'Romani'
p3634
sg9
I0
sg10
I189
sg11
I47
sg12
g13
sg14
S'binik'
p3635
sba(itravian_raidmap
raid
p3636
(dp3637
g6
I10168
sg7
S'Romani'
p3638
sg9
I0
sg10
I189
sg11
I48
sg12
g13
sg14
S'binik'
p3639
sba(itravian_raidmap
raid
p3640
(dp3641
g6
I10168
sg7
S'Romani'
p3642
sg9
I0
sg10
I189
sg11
I49
sg12
g13
sg14
S'binik'
p3643
sba(itravian_raidmap
raid
p3644
(dp3645
g6
I14686
sg7
S'Teutoni'
p3646
sg9
I0
sg10
I155
sg11
I57
sg12
g13
sg14
S'lanpizva'
p3647
sba(itravian_raidmap
raid
p3648
(dp3649
g6
I10168
sg7
S'Romani'
p3650
sg9
I0
sg10
I190
sg11
I48
sg12
g13
sg14
S'binik'
p3651
sba(itravian_raidmap
raid
p3652
(dp3653
g6
I10168
sg7
S'Romani'
p3654
sg9
I0
sg10
I190
sg11
I49
sg12
g13
sg14
S'binik'
p3655
sba(itravian_raidmap
raid
p3656
(dp3657
g6
I10168
sg7
S'Romani'
p3658
sg9
I0
sg10
I191
sg11
I46
sg12
g13
sg14
S'binik'
p3659
sba(itravian_raidmap
raid
p3660
(dp3661
g6
I8457
sg7
S'Romani'
p3662
sg9
I0
sg10
I252
sg11
I82
sg12
g13
sg14
S'brodway'
p3663
sba(itravian_raidmap
raid
p3664
(dp3665
g6
I8457
sg7
S'Romani'
p3666
sg9
I0
sg10
I251
sg11
I86
sg12
g13
sg14
S'brodway'
p3667
sba(itravian_raidmap
raid
p3668
(dp3669
g6
I10168
sg7
S'Romani'
p3670
sg9
I0
sg10
I191
sg11
I48
sg12
g13
sg14
S'binik'
p3671
sba(itravian_raidmap
raid
p3672
(dp3673
g6
I14686
sg7
S'Teutoni'
p3674
sg9
I0
sg10
I156
sg11
I62
sg12
g13
sg14
S'lanpizva'
p3675
sba(itravian_raidmap
raid
p3676
(dp3677
g6
I10168
sg7
S'Romani'
p3678
sg9
I0
sg10
I193
sg11
I50
sg12
g13
sg14
S'binik'
p3679
sba(itravian_raidmap
raid
p3680
(dp3681
g6
I10168
sg7
S'Romani'
p3682
sg9
I0
sg10
I195
sg11
I45
sg12
g13
sg14
S'binik'
p3683
sba(itravian_raidmap
raid
p3684
(dp3685
g6
I10168
sg7
S'Romani'
p3686
sg9
I0
sg10
I190
sg11
I65
sg12
g13
sg14
S'binik'
p3687
sba(itravian_raidmap
raid
p3688
(dp3689
g6
I13315
sg7
S'Teutoni'
p3690
sg9
I0
sg10
I193
sg11
I120
sg12
g13
sg14
S'avetowrc'
p3691
sba(itravian_raidmap
raid
p3692
(dp3693
g6
I10168
sg7
S'Romani'
p3694
sg9
I0
sg10
I192
sg11
I62
sg12
g13
sg14
S'binik'
p3695
sba(itravian_raidmap
raid
p3696
(dp3697
g6
I10238
sg7
S'Romani'
p3698
sg9
I0
sg10
I189
sg11
I63
sg12
g13
sg14
S'livio71'
p3699
sba(itravian_raidmap
raid
p3700
(dp3701
g6
I14686
sg7
S'Teutoni'
p3702
sg9
I0
sg10
I153
sg11
I82
sg12
g13
sg14
S'lanpizva'
p3703
sba(itravian_raidmap
raid
p3704
(dp3705
g6
I10168
sg7
S'Romani'
p3706
sg9
I0
sg10
I190
sg11
I70
sg12
g13
sg14
S'binik'
p3707
sba(itravian_raidmap
raid
p3708
(dp3709
g6
I10168
sg7
S'Romani'
p3710
sg9
I0
sg10
I193
sg11
I62
sg12
g13
sg14
S'binik'
p3711
sba(itravian_raidmap
raid
p3712
(dp3713
g6
I8455
sg7
S'Romani'
p3714
sg9
I0
sg10
I260
sg11
I81
sg12
g13
sg14
S'brodway'
p3715
sba(itravian_raidmap
raid
p3716
(dp3717
g6
I14686
sg7
S'Teutoni'
p3718
sg9
I0
sg10
I167
sg11
I58
sg12
g13
sg14
S'lanpizva'
p3719
sba(itravian_raidmap
raid
p3720
(dp3721
g6
I14361
sg7
S'Teutoni'
p3722
sg9
I0
sg10
I173
sg11
I87
sg12
g13
sg14
S'_HeLlLaS_'
p3723
sba(itravian_raidmap
raid
p3724
(dp3725
g6
I8437
sg7
S'Galli'
p3726
sg9
I0
sg10
I168
sg11
I48
sg12
g13
sg14
S'carroarmato'
p3727
sba(itravian_raidmap
raid
p3728
(dp3729
g6
I8437
sg7
S'Galli'
p3730
sg9
I0
sg10
I167
sg11
I52
sg12
g13
sg14
S'carroarmato'
p3731
sba(itravian_raidmap
raid
p3732
(dp3733
g6
I8437
sg7
S'Galli'
p3734
sg9
I0
sg10
I169
sg11
I52
sg12
g13
sg14
S'carroarmato'
p3735
sba(itravian_raidmap
raid
p3736
(dp3737
g6
I14682
sg7
S'Teutoni'
p3738
sg9
I0
sg10
I180
sg11
I39
sg12
g13
sg14
S'Dom89'
p3739
sba(itravian_raidmap
raid
p3740
(dp3741
g6
I14682
sg7
S'Teutoni'
p3742
sg9
I0
sg10
I180
sg11
I40
sg12
g13
sg14
S'Dom89'
p3743
sba(itravian_raidmap
raid
p3744
(dp3745
g6
I8437
sg7
S'Galli'
p3746
sg9
I0
sg10
I169
sg11
I53
sg12
g13
sg14
S'carroarmato'
p3747
sba(itravian_raidmap
raid
p3748
(dp3749
g6
I14682
sg7
S'Teutoni'
p3750
sg9
I0
sg10
I184
sg11
I27
sg12
g13
sg14
S'Dom89'
p3751
sba(itravian_raidmap
raid
p3752
(dp3753
g6
I13188
sg7
S'Teutoni'
p3754
sg9
I0
sg10
I200
sg11
I143
sg12
g13
sg14
S'Zio Mario'
p3755
sba(itravian_raidmap
raid
p3756
(dp3757
g6
I8437
sg7
S'Galli'
p3758
sg9
I0
sg10
I171
sg11
I50
sg12
g13
sg14
S'carroarmato'
p3759
sba(itravian_raidmap
raid
p3760
(dp3761
g6
I14682
sg7
S'Teutoni'
p3762
sg9
I0
sg10
I184
sg11
I30
sg12
g13
sg14
S'Dom89'
p3763
sba(itravian_raidmap
raid
p3764
(dp3765
g6
I8437
sg7
S'Galli'
p3766
sg9
I0
sg10
I171
sg11
I51
sg12
g13
sg14
S'carroarmato'
p3767
sba(itravian_raidmap
raid
p3768
(dp3769
g6
I8437
sg7
S'Galli'
p3770
sg9
I0
sg10
I171
sg11
I52
sg12
g13
sg14
S'carroarmato'
p3771
sba(itravian_raidmap
raid
p3772
(dp3773
g6
I14682
sg7
S'Teutoni'
p3774
sg9
I0
sg10
I185
sg11
I30
sg12
g13
sg14
S'Dom89'
p3775
sba(itravian_raidmap
raid
p3776
(dp3777
g6
I8437
sg7
S'Galli'
p3778
sg9
I0
sg10
I172
sg11
I50
sg12
g13
sg14
S'carroarmato'
p3779
sba(itravian_raidmap
raid
p3780
(dp3781
g6
I9852
sg7
S'Romani'
p3782
sg9
I0
sg10
I224
sg11
I29
sg12
g13
sg14
S'Tetris'
p3783
sba(itravian_raidmap
raid
p3784
(dp3785
g6
I8437
sg7
S'Galli'
p3786
sg9
I0
sg10
I172
sg11
I51
sg12
g13
sg14
S'carroarmato'
p3787
sba(itravian_raidmap
raid
p3788
(dp3789
g6
I10133
sg7
S'Romani'
p3790
sg9
I0
sg10
I177
sg11
I122
sg12
g13
sg14
S'moky83'
p3791
sba(itravian_raidmap
raid
p3792
(dp3793
g6
I6586
sg7
S'Galli'
p3794
sg9
I0
sg10
I244
sg11
I70
sg12
g13
sg14
S'marcopancio'
p3795
sba(itravian_raidmap
raid
p3796
(dp3797
g6
I8437
sg7
S'Galli'
p3798
sg9
I0
sg10
I173
sg11
I52
sg12
g13
sg14
S'carroarmato'
p3799
sba(itravian_raidmap
raid
p3800
(dp3801
g6
I14682
sg7
S'Teutoni'
p3802
sg9
I0
sg10
I189
sg11
I23
sg12
g13
sg14
S'Dom89'
p3803
sba(itravian_raidmap
raid
p3804
(dp3805
g6
I14682
sg7
S'Teutoni'
p3806
sg9
I0
sg10
I189
sg11
I29
sg12
g13
sg14
S'Dom89'
p3807
sba(itravian_raidmap
raid
p3808
(dp3809
g6
I14361
sg7
S'Teutoni'
p3810
sg9
I0
sg10
I179
sg11
I98
sg12
g13
sg14
S'_HeLlLaS_'
p3811
sba(itravian_raidmap
raid
p3812
(dp3813
g6
I8437
sg7
S'Galli'
p3814
sg9
I0
sg10
I173
sg11
I56
sg12
g13
sg14
S'carroarmato'
p3815
sba(itravian_raidmap
raid
p3816
(dp3817
g6
I14361
sg7
S'Teutoni'
p3818
sg9
I0
sg10
I179
sg11
I99
sg12
g13
sg14
S'_HeLlLaS_'
p3819
sba(itravian_raidmap
raid
p3820
(dp3821
g6
I14682
sg7
S'Teutoni'
p3822
sg9
I0
sg10
I190
sg11
I38
sg12
g13
sg14
S'Dom89'
p3823
sba(itravian_raidmap
raid
p3824
(dp3825
g6
I14682
sg7
S'Teutoni'
p3826
sg9
I0
sg10
I191
sg11
I36
sg12
g13
sg14
S'Dom89'
p3827
sba(itravian_raidmap
raid
p3828
(dp3829
g6
I14682
sg7
S'Teutoni'
p3830
sg9
I0
sg10
I191
sg11
I38
sg12
g13
sg14
S'Dom89'
p3831
sba(itravian_raidmap
raid
p3832
(dp3833
g6
I6586
sg7
S'Galli'
p3834
sg9
I0
sg10
I251
sg11
I61
sg12
g13
sg14
S'marcopancio'
p3835
sba(itravian_raidmap
raid
p3836
(dp3837
g6
I14682
sg7
S'Teutoni'
p3838
sg9
I0
sg10
I192
sg11
I36
sg12
g13
sg14
S'Dom89'
p3839
sba(itravian_raidmap
raid
p3840
(dp3841
g6
I14682
sg7
S'Teutoni'
p3842
sg9
I0
sg10
I193
sg11
I34
sg12
g13
sg14
S'Dom89'
p3843
sba(itravian_raidmap
raid
p3844
(dp3845
g6
I14682
sg7
S'Teutoni'
p3846
sg9
I0
sg10
I192
sg11
I40
sg12
g13
sg14
S'Dom89'
p3847
sba(itravian_raidmap
raid
p3848
(dp3849
g6
I14682
sg7
S'Teutoni'
p3850
sg9
I0
sg10
I193
sg11
I36
sg12
g13
sg14
S'Dom89'
p3851
sba(itravian_raidmap
raid
p3852
(dp3853
g6
I14682
sg7
S'Teutoni'
p3854
sg9
I0
sg10
I193
sg11
I37
sg12
g13
sg14
S'Dom89'
p3855
sba(itravian_raidmap
raid
p3856
(dp3857
g6
I14682
sg7
S'Teutoni'
p3858
sg9
I0
sg10
I194
sg11
I38
sg12
g13
sg14
S'Dom89'
p3859
sba(itravian_raidmap
raid
p3860
(dp3861
g6
I14361
sg7
S'Teutoni'
p3862
sg9
I0
sg10
I189
sg11
I94
sg12
g13
sg14
S'_HeLlLaS_'
p3863
sba(itravian_raidmap
raid
p3864
(dp3865
g6
I14361
sg7
S'Teutoni'
p3866
sg9
I0
sg10
I189
sg11
I97
sg12
g13
sg14
S'_HeLlLaS_'
p3867
sba(itravian_raidmap
raid
p3868
(dp3869
g6
I14361
sg7
S'Teutoni'
p3870
sg9
I0
sg10
I178
sg11
I116
sg12
g13
sg14
S'_HeLlLaS_'
p3871
sba(itravian_raidmap
raid
p3872
(dp3873
g6
I14361
sg7
S'Teutoni'
p3874
sg9
I0
sg10
I192
sg11
I96
sg12
g13
sg14
S'_HeLlLaS_'
p3875
sba(itravian_raidmap
raid
p3876
(dp3877
g6
I14682
sg7
S'Teutoni'
p3878
sg9
I0
sg10
I199
sg11
I40
sg12
g13
sg14
S'Dom89'
p3879
sba(itravian_raidmap
raid
p3880
(dp3881
g6
I14361
sg7
S'Teutoni'
p3882
sg9
I0
sg10
I194
sg11
I96
sg12
g13
sg14
S'_HeLlLaS_'
p3883
sba(itravian_raidmap
raid
p3884
(dp3885
g6
I14361
sg7
S'Teutoni'
p3886
sg9
I0
sg10
I184
sg11
I114
sg12
g13
sg14
S'_HeLlLaS_'
p3887
sba(itravian_raidmap
raid
p3888
(dp3889
g6
I14361
sg7
S'Teutoni'
p3890
sg9
I0
sg10
I192
sg11
I100
sg12
g13
sg14
S'_HeLlLaS_'
p3891
sba(itravian_raidmap
raid
p3892
(dp3893
g6
I10086
sg7
S'Romani'
p3894
sg9
I0
sg10
I225
sg11
I48
sg12
g13
sg14
S'THC'
p3895
sba(itravian_raidmap
raid
p3896
(dp3897
g6
I10086
sg7
S'Romani'
p3898
sg9
I0
sg10
I225
sg11
I49
sg12
g13
sg14
S'THC'
p3899
sba(itravian_raidmap
raid
p3900
(dp3901
g6
I14361
sg7
S'Teutoni'
p3902
sg9
I0
sg10
I192
sg11
I103
sg12
g13
sg14
S'_HeLlLaS_'
p3903
sba(itravian_raidmap
raid
p3904
(dp3905
g6
I10086
sg7
S'Romani'
p3906
sg9
I0
sg10
I225
sg11
I51
sg12
g13
sg14
S'THC'
p3907
sba(itravian_raidmap
raid
p3908
(dp3909
g6
I10086
sg7
S'Romani'
p3910
sg9
I0
sg10
I226
sg11
I47
sg12
g13
sg14
S'THC'
p3911
sba(itravian_raidmap
raid
p3912
(dp3913
g6
I14361
sg7
S'Teutoni'
p3914
sg9
I0
sg10
I191
sg11
I106
sg12
g13
sg14
S'_HeLlLaS_'
p3915
sba(itravian_raidmap
raid
p3916
(dp3917
g6
I10086
sg7
S'Romani'
p3918
sg9
I0
sg10
I226
sg11
I49
sg12
g13
sg14
S'THC'
p3919
sba(itravian_raidmap
raid
p3920
(dp3921
g6
I10086
sg7
S'Romani'
p3922
sg9
I0
sg10
I227
sg11
I47
sg12
g13
sg14
S'THC'
p3923
sba(itravian_raidmap
raid
p3924
(dp3925
g6
I10086
sg7
S'Romani'
p3926
sg9
I0
sg10
I227
sg11
I49
sg12
g13
sg14
S'THC'
p3927
sba(itravian_raidmap
raid
p3928
(dp3929
g6
I10086
sg7
S'Romani'
p3930
sg9
I0
sg10
I227
sg11
I50
sg12
g13
sg14
S'THC'
p3931
sba(itravian_raidmap
raid
p3932
(dp3933
g6
I10086
sg7
S'Romani'
p3934
sg9
I0
sg10
I227
sg11
I51
sg12
g13
sg14
S'THC'
p3935
sba(itravian_raidmap
raid
p3936
(dp3937
g6
I10086
sg7
S'Romani'
p3938
sg9
I0
sg10
I228
sg11
I47
sg12
g13
sg14
S'THC'
p3939
sba(itravian_raidmap
raid
p3940
(dp3941
g6
I10086
sg7
S'Romani'
p3942
sg9
I0
sg10
I228
sg11
I49
sg12
g13
sg14
S'THC'
p3943
sba(itravian_raidmap
raid
p3944
(dp3945
g6
I9852
sg7
S'Romani'
p3946
sg9
I0
sg10
I240
sg11
I36
sg12
g13
sg14
S'Tetris'
p3947
sba(itravian_raidmap
raid
p3948
(dp3949
g6
I10086
sg7
S'Romani'
p3950
sg9
I0
sg10
I228
sg11
I50
sg12
g13
sg14
S'THC'
p3951
sba(itravian_raidmap
raid
p3952
(dp3953
g6
I14361
sg7
S'Teutoni'
p3954
sg9
I0
sg10
I199
sg11
I98
sg12
g13
sg14
S'_HeLlLaS_'
p3955
sba(itravian_raidmap
raid
p3956
(dp3957
g6
I9852
sg7
S'Romani'
p3958
sg9
I0
sg10
I241
sg11
I31
sg12
g13
sg14
S'Tetris'
p3959
sba(itravian_raidmap
raid
p3960
(dp3961
g6
I9852
sg7
S'Romani'
p3962
sg9
I0
sg10
I240
sg11
I38
sg12
g13
sg14
S'Tetris'
p3963
sba(itravian_raidmap
raid
p3964
(dp3965
g6
I10086
sg7
S'Romani'
p3966
sg9
I0
sg10
I228
sg11
I51
sg12
g13
sg14
S'THC'
p3967
sba(itravian_raidmap
raid
p3968
(dp3969
g6
I10086
sg7
S'Romani'
p3970
sg9
I0
sg10
I229
sg11
I48
sg12
g13
sg14
S'THC'
p3971
sba(itravian_raidmap
raid
p3972
(dp3973
g6
I14361
sg7
S'Teutoni'
p3974
sg9
I0
sg10
I195
sg11
I111
sg12
g13
sg14
S'_HeLlLaS_'
p3975
sba(itravian_raidmap
raid
p3976
(dp3977
g6
I14361
sg7
S'Teutoni'
p3978
sg9
I0
sg10
I197
sg11
I108
sg12
g13
sg14
S'_HeLlLaS_'
p3979
sba(itravian_raidmap
raid
p3980
(dp3981
g6
I14361
sg7
S'Teutoni'
p3982
sg9
I0
sg10
I205
sg11
I95
sg12
g13
sg14
S'_HeLlLaS_'
p3983
sba(itravian_raidmap
raid
p3984
(dp3985
g6
I14361
sg7
S'Teutoni'
p3986
sg9
I0
sg10
I205
sg11
I96
sg12
g13
sg14
S'_HeLlLaS_'
p3987
sba(itravian_raidmap
raid
p3988
(dp3989
g6
I16252
sg7
S'Teutoni'
p3990
sg9
I0
sg10
I142
sg11
I53
sg12
g13
sg14
S'peter griffin'
p3991
sba(itravian_raidmap
raid
p3992
(dp3993
g6
I16252
sg7
S'Teutoni'
p3994
sg9
I0
sg10
I142
sg11
I55
sg12
g13
sg14
S'peter griffin'
p3995
sba(itravian_raidmap
raid
p3996
(dp3997
g6
I14361
sg7
S'Teutoni'
p3998
sg9
I0
sg10
I204
sg11
I106
sg12
g13
sg14
S'_HeLlLaS_'
p3999
sba(itravian_raidmap
raid
p4000
(dp4001
g6
I6586
sg7
S'Galli'
p4002
sg9
I0
sg10
I267
sg11
I57
sg12
g13
sg14
S'marcopancio'
p4003
sba(itravian_raidmap
raid
p4004
(dp4005
g6
I10238
sg7
S'Romani'
p4006
sg9
I0
sg10
I218
sg11
I88
sg12
g13
sg14
S'livio71'
p4007
sba(itravian_raidmap
raid
p4008
(dp4009
g6
I9223
sg7
S'Galli'
p4010
sg9
I0
sg10
I146
sg11
I85
sg12
g13
sg14
S'fuvin'
p4011
sba(itravian_raidmap
raid
p4012
(dp4013
g6
I16252
sg7
S'Teutoni'
p4014
sg9
I0
sg10
I149
sg11
I50
sg12
g13
sg14
S'peter griffin'
p4015
sba(itravian_raidmap
raid
p4016
(dp4017
g6
I16252
sg7
S'Teutoni'
p4018
sg9
I0
sg10
I149
sg11
I51
sg12
g13
sg14
S'peter griffin'
p4019
sba(itravian_raidmap
raid
p4020
(dp4021
g6
I16252
sg7
S'Teutoni'
p4022
sg9
I0
sg10
I150
sg11
I51
sg12
g13
sg14
S'peter griffin'
p4023
sba(itravian_raidmap
raid
p4024
(dp4025
g6
I9223
sg7
S'Galli'
p4026
sg9
I0
sg10
I148
sg11
I84
sg12
g13
sg14
S'fuvin'
p4027
sba(itravian_raidmap
raid
p4028
(dp4029
g6
I6586
sg7
S'Galli'
p4030
sg9
I0
sg10
I269
sg11
I63
sg12
g13
sg14
S'marcopancio'
p4031
sba(itravian_raidmap
raid
p4032
(dp4033
g6
I15513
sg7
S'Teutoni'
p4034
sg9
I0
sg10
I190
sg11
I11
sg12
g13
sg14
S'-M-'
p4035
sba(itravian_raidmap
raid
p4036
(dp4037
g6
I16252
sg7
S'Teutoni'
p4038
sg9
I0
sg10
I153
sg11
I52
sg12
g13
sg14
S'peter griffin'
p4039
sba(itravian_raidmap
raid
p4040
(dp4041
g6
I6586
sg7
S'Galli'
p4042
sg9
I0
sg10
I272
sg11
I58
sg12
g13
sg14
S'marcopancio'
p4043
sba(itravian_raidmap
raid
p4044
(dp4045
g6
I15513
sg7
S'Teutoni'
p4046
sg9
I0
sg10
I192
sg11
I11
sg12
g13
sg14
S'-M-'
p4047
sba(itravian_raidmap
raid
p4048
(dp4049
g6
I6586
sg7
S'Galli'
p4050
sg9
I0
sg10
I272
sg11
I61
sg12
g13
sg14
S'marcopancio'
p4051
sba(itravian_raidmap
raid
p4052
(dp4053
g6
I15513
sg7
S'Teutoni'
p4054
sg9
I0
sg10
I194
sg11
I12
sg12
g13
sg14
S'-M-'
p4055
sba(itravian_raidmap
raid
p4056
(dp4057
g6
I15513
sg7
S'Teutoni'
p4058
sg9
I0
sg10
I195
sg11
I11
sg12
g13
sg14
S'-M-'
p4059
sba(itravian_raidmap
raid
p4060
(dp4061
g6
I15513
sg7
S'Teutoni'
p4062
sg9
I0
sg10
I195
sg11
I13
sg12
g13
sg14
S'-M-'
p4063
sba(itravian_raidmap
raid
p4064
(dp4065
g6
I15513
sg7
S'Teutoni'
p4066
sg9
I0
sg10
I195
sg11
I15
sg12
g13
sg14
S'-M-'
p4067
sba(itravian_raidmap
raid
p4068
(dp4069
g6
I15513
sg7
S'Teutoni'
p4070
sg9
I0
sg10
I196
sg11
I9
sg12
g13
sg14
S'-M-'
p4071
sba(itravian_raidmap
raid
p4072
(dp4073
g6
I15513
sg7
S'Teutoni'
p4074
sg9
I0
sg10
I197
sg11
I12
sg12
g13
sg14
S'-M-'
p4075
sba(itravian_raidmap
raid
p4076
(dp4077
g6
I15513
sg7
S'Teutoni'
p4078
sg9
I0
sg10
I197
sg11
I14
sg12
g13
sg14
S'-M-'
p4079
sba(itravian_raidmap
raid
p4080
(dp4081
g6
I15513
sg7
S'Teutoni'
p4082
sg9
I0
sg10
I197
sg11
I15
sg12
g13
sg14
S'-M-'
p4083
sba(itravian_raidmap
raid
p4084
(dp4085
g6
I8692
sg7
S'Galli'
p4086
sg9
I0
sg10
I198
sg11
I2
sg12
g13
sg14
S'valer x'
p4087
sba(itravian_raidmap
raid
p4088
(dp4089
g6
I15513
sg7
S'Teutoni'
p4090
sg9
I0
sg10
I199
sg11
I5
sg12
g13
sg14
S'-M-'
p4091
sba(itravian_raidmap
raid
p4092
(dp4093
g6
I15513
sg7
S'Teutoni'
p4094
sg9
I0
sg10
I199
sg11
I11
sg12
g13
sg14
S'-M-'
p4095
sba(itravian_raidmap
raid
p4096
(dp4097
g6
I15513
sg7
S'Teutoni'
p4098
sg9
I0
sg10
I199
sg11
I12
sg12
g13
sg14
S'-M-'
p4099
sba(itravian_raidmap
raid
p4100
(dp4101
g6
I9206
sg7
S'Galli'
p4102
sg9
I0
sg10
I177
sg11
I22
sg12
g13
sg14
S'jhonnytt'
p4103
sba(itravian_raidmap
raid
p4104
(dp4105
g6
I8692
sg7
S'Galli'
p4106
sg9
I0
sg10
I199
sg11
I0
sg12
g13
sg14
S'valer x'
p4107
sba(itravian_raidmap
raid
p4108
(dp4109
g6
I15513
sg7
S'Teutoni'
p4110
sg9
I0
sg10
I199
sg11
I19
sg12
g13
sg14
S'-M-'
p4111
sba(itravian_raidmap
raid
p4112
(dp4113
g6
I8692
sg7
S'Galli'
p4114
sg9
I0
sg10
I200
sg11
I0
sg12
g13
sg14
S'valer x'
p4115
sba(itravian_raidmap
raid
p4116
(dp4117
g6
I15513
sg7
S'Teutoni'
p4118
sg9
I0
sg10
I201
sg11
I1
sg12
g13
sg14
S'-M-'
p4119
sba(itravian_raidmap
raid
p4120
(dp4121
g6
I8692
sg7
S'Galli'
p4122
sg9
I0
sg10
I200
sg11
I1
sg12
g13
sg14
S'valer x'
p4123
sba(itravian_raidmap
raid
p4124
(dp4125
g6
I8692
sg7
S'Galli'
p4126
sg9
I0
sg10
I200
sg11
I-3
sg12
g13
sg14
S'valer x'
p4127
sba(itravian_raidmap
raid
p4128
(dp4129
g6
I15513
sg7
S'Teutoni'
p4130
sg9
I0
sg10
I202
sg11
I13
sg12
g13
sg14
S'-M-'
p4131
sba(itravian_raidmap
raid
p4132
(dp4133
g6
I8692
sg7
S'Galli'
p4134
sg9
I0
sg10
I201
sg11
I0
sg12
g13
sg14
S'valer x'
p4135
sba(itravian_raidmap
raid
p4136
(dp4137
g6
I8692
sg7
S'Galli'
p4138
sg9
I0
sg10
I201
sg11
I-2
sg12
g13
sg14
S'valer x'
p4139
sba(itravian_raidmap
raid
p4140
(dp4141
g6
I15513
sg7
S'Teutoni'
p4142
sg9
I0
sg10
I210
sg11
I13
sg12
g13
sg14
S'-M-'
p4143
sba(itravian_raidmap
raid
p4144
(dp4145
g6
I8692
sg7
S'Galli'
p4146
sg9
I0
sg10
I207
sg11
I-5
sg12
g13
sg14
S'valer x'
p4147
sba(itravian_raidmap
raid
p4148
(dp4149
g6
I14761
sg7
S'Teutoni'
p4150
sg9
I0
sg10
I204
sg11
I133
sg12
g13
sg14
S'ASD'
p4151
sba(itravian_raidmap
raid
p4152
(dp4153
g6
I14761
sg7
S'Teutoni'
p4154
sg9
I0
sg10
I209
sg11
I144
sg12
g13
sg14
S'ASD'
p4155
sba(itravian_raidmap
raid
p4156
(dp4157
g6
I8692
sg7
S'Galli'
p4158
sg9
I0
sg10
I196
sg11
I89
sg12
g13
sg14
S'valer x'
p4159
sba(itravian_raidmap
raid
p4160
(dp4161
g6
I14761
sg7
S'Teutoni'
p4162
sg9
I0
sg10
I208
sg11
I150
sg12
g13
sg14
S'ASD'
p4163
sba(itravian_raidmap
raid
p4164
(dp4165
g6
I8692
sg7
S'Galli'
p4166
sg9
I0
sg10
I200
sg11
I91
sg12
g13
sg14
S'valer x'
p4167
sba(itravian_raidmap
raid
p4168
(dp4169
g6
I8399
sg7
S'Galli'
p4170
sg9
I0
sg10
I195
sg11
I125
sg12
g13
sg14
S'saetta'
p4171
sba(itravian_raidmap
raid
p4172
(dp4173
g6
I9223
sg7
S'Galli'
p4174
sg9
I0
sg10
I176
sg11
I105
sg12
g13
sg14
S'fuvin'
p4175
sba(itravian_raidmap
raid
p4176
(dp4177
g6
I12008
sg7
S'Romani'
p4178
sg9
I0
sg10
I185
sg11
I96
sg12
g13
sg14
S'Stomoxys'
p4179
sba(itravian_raidmap
raid
p4180
(dp4181
g6
I12008
sg7
S'Romani'
p4182
sg9
I0
sg10
I178
sg11
I114
sg12
g13
sg14
S'Stomoxys'
p4183
sba(itravian_raidmap
raid
p4184
(dp4185
g6
I9223
sg7
S'Galli'
p4186
sg9
I0
sg10
I178
sg11
I108
sg12
g13
sg14
S'fuvin'
p4187
sba(itravian_raidmap
raid
p4188
(dp4189
g6
I12008
sg7
S'Romani'
p4190
sg9
I0
sg10
I179
sg11
I116
sg12
g13
sg14
S'Stomoxys'
p4191
sba(itravian_raidmap
raid
p4192
(dp4193
g6
I12012
sg7
S'Romani'
p4194
sg9
I0
sg10
I185
sg11
I108
sg12
g13
sg14
S'Stomoxys'
p4195
sba(itravian_raidmap
raid
p4196
(dp4197
g6
I9223
sg7
S'Galli'
p4198
sg9
I0
sg10
I179
sg11
I110
sg12
g13
sg14
S'fuvin'
p4199
sba(itravian_raidmap
raid
p4200
(dp4201
g6
I9223
sg7
S'Galli'
p4202
sg9
I0
sg10
I182
sg11
I105
sg12
g13
sg14
S'fuvin'
p4203
sba(itravian_raidmap
raid
p4204
(dp4205
g6
I9223
sg7
S'Galli'
p4206
sg9
I0
sg10
I181
sg11
I110
sg12
g13
sg14
S'fuvin'
p4207
sba(itravian_raidmap
raid
p4208
(dp4209
g6
I12008
sg7
S'Romani'
p4210
sg9
I0
sg10
I180
sg11
I122
sg12
g13
sg14
S'Stomoxys'
p4211
sba(itravian_raidmap
raid
p4212
(dp4213
g6
I12008
sg7
S'Romani'
p4214
sg9
I0
sg10
I181
sg11
I122
sg12
g13
sg14
S'Stomoxys'
p4215
sba(itravian_raidmap
raid
p4216
(dp4217
g6
I12012
sg7
S'Romani'
p4218
sg9
I0
sg10
I187
sg11
I113
sg12
g13
sg14
S'Stomoxys'
p4219
sba(itravian_raidmap
raid
p4220
(dp4221
g6
I12008
sg7
S'Romani'
p4222
sg9
I0
sg10
I185
sg11
I122
sg12
g13
sg14
S'Stomoxys'
p4223
sba(itravian_raidmap
raid
p4224
(dp4225
g6
I12012
sg7
S'Romani'
p4226
sg9
I0
sg10
I207
sg11
I95
sg12
g13
sg14
S'Stomoxys'
p4227
sba(itravian_raidmap
raid
p4228
(dp4229
g6
I9223
sg7
S'Galli'
p4230
sg9
I0
sg10
I203
sg11
I103
sg12
g13
sg14
S'fuvin'
p4231
sba(itravian_raidmap
raid
p4232
(dp4233
g6
I13007
sg7
S'Romani'
p4234
sg9
I0
sg10
I167
sg11
I108
sg12
g13
sg14
S'KLUN4'
p4235
sba(itravian_raidmap
raid
p4236
(dp4237
g6
I9223
sg7
S'Galli'
p4238
sg9
I0
sg10
I203
sg11
I109
sg12
g13
sg14
S'fuvin'
p4239
sba(itravian_raidmap
raid
p4240
(dp4241
g6
I9223
sg7
S'Galli'
p4242
sg9
I0
sg10
I211
sg11
I97
sg12
g13
sg14
S'fuvin'
p4243
sba(itravian_raidmap
raid
p4244
(dp4245
g6
I9690
sg7
S'Galli'
p4246
sg9
I0
sg10
I213
sg11
I24
sg12
g13
sg14
S'Tosondoro'
p4247
sba(itravian_raidmap
raid
p4248
(dp4249
g6
I9690
sg7
S'Galli'
p4250
sg9
I0
sg10
I218
sg11
I23
sg12
g13
sg14
S'Tosondoro'
p4251
sba(itravian_raidmap
raid
p4252
(dp4253
g6
I9690
sg7
S'Galli'
p4254
sg9
I0
sg10
I218
sg11
I24
sg12
g13
sg14
S'Tosondoro'
p4255
sba(itravian_raidmap
raid
p4256
(dp4257
g6
I9690
sg7
S'Galli'
p4258
sg9
I0
sg10
I219
sg11
I19
sg12
g13
sg14
S'Tosondoro'
p4259
sba(itravian_raidmap
raid
p4260
(dp4261
g6
I9690
sg7
S'Galli'
p4262
sg9
I0
sg10
I219
sg11
I23
sg12
g13
sg14
S'Tosondoro'
p4263
sba(itravian_raidmap
raid
p4264
(dp4265
g6
I9690
sg7
S'Galli'
p4266
sg9
I0
sg10
I220
sg11
I18
sg12
g13
sg14
S'Tosondoro'
p4267
sba(itravian_raidmap
raid
p4268
(dp4269
g6
I9690
sg7
S'Galli'
p4270
sg9
I0
sg10
I223
sg11
I10
sg12
g13
sg14
S'Tosondoro'
p4271
sba(itravian_raidmap
raid
p4272
(dp4273
g6
I9690
sg7
S'Galli'
p4274
sg9
I0
sg10
I224
sg11
I12
sg12
g13
sg14
S'Tosondoro'
p4275
sba(itravian_raidmap
raid
p4276
(dp4277
g6
I9223
sg7
S'Galli'
p4278
sg9
I0
sg10
I224
sg11
I98
sg12
g13
sg14
S'fuvin'
p4279
sba(itravian_raidmap
raid
p4280
(dp4281
g6
I9690
sg7
S'Galli'
p4282
sg9
I0
sg10
I227
sg11
I19
sg12
g13
sg14
S'Tosondoro'
p4283
sba(itravian_raidmap
raid
p4284
(dp4285
g6
I9690
sg7
S'Galli'
p4286
sg9
I0
sg10
I227
sg11
I23
sg12
g13
sg14
S'Tosondoro'
p4287
sba(itravian_raidmap
raid
p4288
(dp4289
g6
I13779
sg7
S'Romani'
p4290
sg9
I0
sg10
I185
sg11
I38
sg12
g13
sg14
S'kanaki'
p4291
sba(itravian_raidmap
raid
p4292
(dp4293
g6
I9690
sg7
S'Galli'
p4294
sg9
I0
sg10
I229
sg11
I20
sg12
g13
sg14
S'Tosondoro'
p4295
sba(itravian_raidmap
raid
p4296
(dp4297
g6
I14502
sg7
S'Romani'
p4298
sg9
I0
sg10
I166
sg11
I32
sg12
g13
sg14
S'dinamite'
p4299
sba(itravian_raidmap
raid
p4300
(dp4301
g6
I13779
sg7
S'Romani'
p4302
sg9
I0
sg10
I197
sg11
I22
sg12
g13
sg14
S'kanaki'
p4303
sba(itravian_raidmap
raid
p4304
(dp4305
g6
I10720
sg7
S'Galli'
p4306
sg9
I0
sg10
I180
sg11
I78
sg12
g13
sg14
S'gianox'
p4307
sba(itravian_raidmap
raid
p4308
(dp4309
g6
I19025
sg7
S'Teutoni'
p4310
sg9
I0
sg10
I176
sg11
I59
sg12
g13
sg14
S'S4RGON'
p4311
sba(itravian_raidmap
raid
p4312
(dp4313
g6
I14502
sg7
S'Romani'
p4314
sg9
I0
sg10
I171
sg11
I48
sg12
g13
sg14
S'dinamite'
p4315
sba(itravian_raidmap
raid
p4316
(dp4317
g6
I19021
sg7
S'Teutoni'
p4318
sg9
I0
sg10
I176
sg11
I63
sg12
g13
sg14
S'S4RGON'
p4319
sba(itravian_raidmap
raid
p4320
(dp4321
g6
I19025
sg7
S'Teutoni'
p4322
sg9
I0
sg10
I172
sg11
I75
sg12
g13
sg14
S'S4RGON'
p4323
sba(itravian_raidmap
raid
p4324
(dp4325
g6
I9952
sg7
S'Galli'
p4326
sg9
I0
sg10
I201
sg11
I121
sg12
g13
sg14
S'Thomas Magno'
p4327
sba(itravian_raidmap
raid
p4328
(dp4329
g6
I14502
sg7
S'Romani'
p4330
sg9
I0
sg10
I174
sg11
I43
sg12
g13
sg14
S'dinamite'
p4331
sba(itravian_raidmap
raid
p4332
(dp4333
g6
I14502
sg7
S'Romani'
p4334
sg9
I0
sg10
I176
sg11
I34
sg12
g13
sg14
S'dinamite'
p4335
sba(itravian_raidmap
raid
p4336
(dp4337
g6
I19021
sg7
S'Teutoni'
p4338
sg9
I0
sg10
I175
sg11
I71
sg12
g13
sg14
S'S4RGON'
p4339
sba(itravian_raidmap
raid
p4340
(dp4341
g6
I19025
sg7
S'Teutoni'
p4342
sg9
I0
sg10
I173
sg11
I77
sg12
g13
sg14
S'S4RGON'
p4343
sba(itravian_raidmap
raid
p4344
(dp4345
g6
I19021
sg7
S'Teutoni'
p4346
sg9
I0
sg10
I179
sg11
I64
sg12
g13
sg14
S'S4RGON'
p4347
sba(itravian_raidmap
raid
p4348
(dp4349
g6
I19025
sg7
S'Teutoni'
p4350
sg9
I0
sg10
I173
sg11
I80
sg12
g13
sg14
S'S4RGON'
p4351
sba(itravian_raidmap
raid
p4352
(dp4353
g6
I19021
sg7
S'Teutoni'
p4354
sg9
I0
sg10
I179
sg11
I66
sg12
g13
sg14
S'S4RGON'
p4355
sba(itravian_raidmap
raid
p4356
(dp4357
g6
I19021
sg7
S'Teutoni'
p4358
sg9
I0
sg10
I177
sg11
I73
sg12
g13
sg14
S'S4RGON'
p4359
sba(itravian_raidmap
raid
p4360
(dp4361
g6
I19021
sg7
S'Teutoni'
p4362
sg9
I0
sg10
I182
sg11
I60
sg12
g13
sg14
S'S4RGON'
p4363
sba(itravian_raidmap
raid
p4364
(dp4365
g6
I14502
sg7
S'Romani'
p4366
sg9
I0
sg10
I179
sg11
I33
sg12
g13
sg14
S'dinamite'
p4367
sba(itravian_raidmap
raid
p4368
(dp4369
g6
I19021
sg7
S'Teutoni'
p4370
sg9
I0
sg10
I181
sg11
I64
sg12
g13
sg14
S'S4RGON'
p4371
sba(itravian_raidmap
raid
p4372
(dp4373
g6
I9952
sg7
S'Galli'
p4374
sg9
I0
sg10
I207
sg11
I117
sg12
g13
sg14
S'Thomas Magno'
p4375
sba(itravian_raidmap
raid
p4376
(dp4377
g6
I14502
sg7
S'Romani'
p4378
sg9
I0
sg10
I180
sg11
I35
sg12
g13
sg14
S'dinamite'
p4379
sba(itravian_raidmap
raid
p4380
(dp4381
g6
I19021
sg7
S'Teutoni'
p4382
sg9
I0
sg10
I183
sg11
I63
sg12
g13
sg14
S'S4RGON'
p4383
sba(itravian_raidmap
raid
p4384
(dp4385
g6
I14502
sg7
S'Romani'
p4386
sg9
I0
sg10
I181
sg11
I30
sg12
g13
sg14
S'dinamite'
p4387
sba(itravian_raidmap
raid
p4388
(dp4389
g6
I14502
sg7
S'Romani'
p4390
sg9
I0
sg10
I181
sg11
I31
sg12
g13
sg14
S'dinamite'
p4391
sba(itravian_raidmap
raid
p4392
(dp4393
g6
I19021
sg7
S'Teutoni'
p4394
sg9
I0
sg10
I183
sg11
I64
sg12
g13
sg14
S'S4RGON'
p4395
sba(itravian_raidmap
raid
p4396
(dp4397
g6
I9952
sg7
S'Galli'
p4398
sg9
I0
sg10
I198
sg11
I133
sg12
g13
sg14
S'Thomas Magno'
p4399
sba(itravian_raidmap
raid
p4400
(dp4401
g6
I19021
sg7
S'Teutoni'
p4402
sg9
I0
sg10
I181
sg11
I70
sg12
g13
sg14
S'S4RGON'
p4403
sba(itravian_raidmap
raid
p4404
(dp4405
g6
I19021
sg7
S'Teutoni'
p4406
sg9
I0
sg10
I183
sg11
I65
sg12
g13
sg14
S'S4RGON'
p4407
sba(itravian_raidmap
raid
p4408
(dp4409
g6
I9952
sg7
S'Galli'
p4410
sg9
I0
sg10
I204
sg11
I126
sg12
g13
sg14
S'Thomas Magno'
p4411
sba(itravian_raidmap
raid
p4412
(dp4413
g6
I14502
sg7
S'Romani'
p4414
sg9
I0
sg10
I180
sg11
I46
sg12
g13
sg14
S'dinamite'
p4415
sba(itravian_raidmap
raid
p4416
(dp4417
g6
I9952
sg7
S'Galli'
p4418
sg9
I0
sg10
I213
sg11
I113
sg12
g13
sg14
S'Thomas Magno'
p4419
sba(itravian_raidmap
raid
p4420
(dp4421
g6
I19021
sg7
S'Teutoni'
p4422
sg9
I0
sg10
I186
sg11
I69
sg12
g13
sg14
S'S4RGON'
p4423
sba(itravian_raidmap
raid
p4424
(dp4425
g6
I14502
sg7
S'Romani'
p4426
sg9
I0
sg10
I185
sg11
I32
sg12
g13
sg14
S'dinamite'
p4427
sba(itravian_raidmap
raid
p4428
(dp4429
g6
I19021
sg7
S'Teutoni'
p4430
sg9
I0
sg10
I189
sg11
I64
sg12
g13
sg14
S'S4RGON'
p4431
sba(itravian_raidmap
raid
p4432
(dp4433
g6
I19021
sg7
S'Teutoni'
p4434
sg9
I0
sg10
I184
sg11
I78
sg12
g13
sg14
S'S4RGON'
p4435
sba(itravian_raidmap
raid
p4436
(dp4437
g6
I14502
sg7
S'Romani'
p4438
sg9
I0
sg10
I186
sg11
I33
sg12
g13
sg14
S'dinamite'
p4439
sba(itravian_raidmap
raid
p4440
(dp4441
g6
I14502
sg7
S'Romani'
p4442
sg9
I0
sg10
I179
sg11
I62
sg12
g13
sg14
S'dinamite'
p4443
sba(itravian_raidmap
raid
p4444
(dp4445
g6
I14502
sg7
S'Romani'
p4446
sg9
I0
sg10
I181
sg11
I62
sg12
g13
sg14
S'dinamite'
p4447
sba(itravian_raidmap
raid
p4448
(dp4449
g6
I14502
sg7
S'Romani'
p4450
sg9
I0
sg10
I192
sg11
I25
sg12
g13
sg14
S'dinamite'
p4451
sba(itravian_raidmap
raid
p4452
(dp4453
g6
I9952
sg7
S'Galli'
p4454
sg9
I0
sg10
I205
sg11
I139
sg12
g13
sg14
S'Thomas Magno'
p4455
sba(itravian_raidmap
raid
p4456
(dp4457
g6
I14502
sg7
S'Romani'
p4458
sg9
I0
sg10
I192
sg11
I37
sg12
g13
sg14
S'dinamite'
p4459
sba(itravian_raidmap
raid
p4460
(dp4461
g6
I14502
sg7
S'Romani'
p4462
sg9
I0
sg10
I194
sg11
I26
sg12
g13
sg14
S'dinamite'
p4463
sba(itravian_raidmap
raid
p4464
(dp4465
g6
I19021
sg7
S'Teutoni'
p4466
sg9
I0
sg10
I195
sg11
I92
sg12
g13
sg14
S'S4RGON'
p4467
sba(itravian_raidmap
raid
p4468
(dp4469
g6
I19021
sg7
S'Teutoni'
p4470
sg9
I0
sg10
I215
sg11
I62
sg12
g13
sg14
S'S4RGON'
p4471
sba(itravian_raidmap
raid
p4472
(dp4473
g6
I19021
sg7
S'Teutoni'
p4474
sg9
I0
sg10
I207
sg11
I89
sg12
g13
sg14
S'S4RGON'
p4475
sba(itravian_raidmap
raid
p4476
(dp4477
g6
I15830
sg7
S'Romani'
p4478
sg9
I0
sg10
I147
sg11
I62
sg12
g13
sg14
S'Ganja Lover'
p4479
sba(itravian_raidmap
raid
p4480
(dp4481
g6
I10718
sg7
S'Galli'
p4482
sg9
I0
sg10
I232
sg11
I41
sg12
g13
sg14
S'gianox'
p4483
sba(itravian_raidmap
raid
p4484
(dp4485
g6
I15830
sg7
S'Romani'
p4486
sg9
I0
sg10
I152
sg11
I65
sg12
g13
sg14
S'Ganja Lover'
p4487
sba(itravian_raidmap
raid
p4488
(dp4489
g6
I15830
sg7
S'Romani'
p4490
sg9
I0
sg10
I153
sg11
I63
sg12
g13
sg14
S'Ganja Lover'
p4491
sba(itravian_raidmap
raid
p4492
(dp4493
g6
I15830
sg7
S'Romani'
p4494
sg9
I0
sg10
I154
sg11
I64
sg12
g13
sg14
S'Ganja Lover'
p4495
sba(itravian_raidmap
raid
p4496
(dp4497
g6
I15830
sg7
S'Romani'
p4498
sg9
I0
sg10
I163
sg11
I44
sg12
g13
sg14
S'Ganja Lover'
p4499
sba(itravian_raidmap
raid
p4500
(dp4501
g6
I15830
sg7
S'Romani'
p4502
sg9
I0
sg10
I152
sg11
I74
sg12
g13
sg14
S'Ganja Lover'
p4503
sba(itravian_raidmap
raid
p4504
(dp4505
g6
I15830
sg7
S'Romani'
p4506
sg9
I0
sg10
I162
sg11
I49
sg12
g13
sg14
S'Ganja Lover'
p4507
sba(itravian_raidmap
raid
p4508
(dp4509
g6
I15830
sg7
S'Romani'
p4510
sg9
I0
sg10
I157
sg11
I64
sg12
g13
sg14
S'Ganja Lover'
p4511
sba(itravian_raidmap
raid
p4512
(dp4513
g6
I15830
sg7
S'Romani'
p4514
sg9
I0
sg10
I160
sg11
I57
sg12
g13
sg14
S'Ganja Lover'
p4515
sba(itravian_raidmap
raid
p4516
(dp4517
g6
I13817
sg7
S'Romani'
p4518
sg9
I0
sg10
I223
sg11
I119
sg12
g13
sg14
S'ga-ste'
p4519
sba(itravian_raidmap
raid
p4520
(dp4521
g6
I15830
sg7
S'Romani'
p4522
sg9
I0
sg10
I167
sg11
I43
sg12
g13
sg14
S'Ganja Lover'
p4523
sba(itravian_raidmap
raid
p4524
(dp4525
g6
I15830
sg7
S'Romani'
p4526
sg9
I0
sg10
I149
sg11
I91
sg12
g13
sg14
S'Ganja Lover'
p4527
sba(itravian_raidmap
raid
p4528
(dp4529
g6
I15830
sg7
S'Romani'
p4530
sg9
I0
sg10
I166
sg11
I60
sg12
g13
sg14
S'Ganja Lover'
p4531
sba(itravian_raidmap
raid
p4532
(dp4533
g6
I15830
sg7
S'Romani'
p4534
sg9
I0
sg10
I167
sg11
I63
sg12
g13
sg14
S'Ganja Lover'
p4535
sba(itravian_raidmap
raid
p4536
(dp4537
g6
I13817
sg7
S'Romani'
p4538
sg9
I0
sg10
I229
sg11
I124
sg12
g13
sg14
S'ga-ste'
p4539
sba(itravian_raidmap
raid
p4540
(dp4541
g6
I13817
sg7
S'Romani'
p4542
sg9
I0
sg10
I231
sg11
I125
sg12
g13
sg14
S'ga-ste'
p4543
sba(itravian_raidmap
raid
p4544
(dp4545
g6
I15830
sg7
S'Romani'
p4546
sg9
I0
sg10
I160
sg11
I90
sg12
g13
sg14
S'Ganja Lover'
p4547
sba(itravian_raidmap
raid
p4548
(dp4549
g6
I15830
sg7
S'Romani'
p4550
sg9
I0
sg10
I167
sg11
I80
sg12
g13
sg14
S'Ganja Lover'
p4551
sba(itravian_raidmap
raid
p4552
(dp4553
g6
I9952
sg7
S'Galli'
p4554
sg9
I0
sg10
I273
sg11
I86
sg12
g13
sg14
S'Thomas Magno'
p4555
sba(itravian_raidmap
raid
p4556
(dp4557
g6
I15830
sg7
S'Romani'
p4558
sg9
I0
sg10
I182
sg11
I48
sg12
g13
sg14
S'Ganja Lover'
p4559
sba(itravian_raidmap
raid
p4560
(dp4561
g6
I9952
sg7
S'Galli'
p4562
sg9
I0
sg10
I274
sg11
I85
sg12
g13
sg14
S'Thomas Magno'
p4563
sba(itravian_raidmap
raid
p4564
(dp4565
g6
I10720
sg7
S'Galli'
p4566
sg9
I0
sg10
I245
sg11
I84
sg12
g13
sg14
S'gianox'
p4567
sba(itravian_raidmap
raid
p4568
(dp4569
g6
I10718
sg7
S'Galli'
p4570
sg9
I0
sg10
I251
sg11
I77
sg12
g13
sg14
S'gianox'
p4571
sba(itravian_raidmap
raid
p4572
(dp4573
g6
I15830
sg7
S'Romani'
p4574
sg9
I0
sg10
I186
sg11
I68
sg12
g13
sg14
S'Ganja Lover'
p4575
sba(itravian_raidmap
raid
p4576
(dp4577
g6
I10718
sg7
S'Galli'
p4578
sg9
I0
sg10
I256
sg11
I87
sg12
g13
sg14
S'gianox'
p4579
sba(itravian_raidmap
raid
p4580
(dp4581
g6
I10720
sg7
S'Galli'
p4582
sg9
I0
sg10
I259
sg11
I88
sg12
g13
sg14
S'gianox'
p4583
sba(itravian_raidmap
raid
p4584
(dp4585
g6
I10718
sg7
S'Galli'
p4586
sg9
I0
sg10
I264
sg11
I73
sg12
g13
sg14
S'gianox'
p4587
sba(itravian_raidmap
raid
p4588
(dp4589
g6
I10718
sg7
S'Galli'
p4590
sg9
I0
sg10
I263
sg11
I84
sg12
g13
sg14
S'gianox'
p4591
sba(itravian_raidmap
raid
p4592
(dp4593
g6
I10718
sg7
S'Galli'
p4594
sg9
I0
sg10
I265
sg11
I82
sg12
g13
sg14
S'gianox'
p4595
sba(itravian_raidmap
raid
p4596
(dp4597
g6
I13105
sg7
S'Galli'
p4598
sg9
I0
sg10
I198
sg11
I83
sg12
g13
sg14
S'Mighel'
p4599
sba(itravian_raidmap
raid
p4600
(dp4601
g6
I13105
sg7
S'Galli'
p4602
sg9
I0
sg10
I202
sg11
I77
sg12
g13
sg14
S'Mighel'
p4603
sba(itravian_raidmap
raid
p4604
(dp4605
g6
I13105
sg7
S'Galli'
p4606
sg9
I0
sg10
I202
sg11
I81
sg12
g13
sg14
S'Mighel'
p4607
sba(itravian_raidmap
raid
p4608
(dp4609
g6
I25097
sg7
S'Teutoni'
p4610
sg9
I0
sg10
I156
sg11
I41
sg12
g13
sg14
S'mezzodestro'
p4611
sba(itravian_raidmap
raid
p4612
(dp4613
g6
I25097
sg7
S'Teutoni'
p4614
sg9
I0
sg10
I152
sg11
I54
sg12
g13
sg14
S'mezzodestro'
p4615
sba(itravian_raidmap
raid
p4616
(dp4617
g6
I25097
sg7
S'Teutoni'
p4618
sg9
I0
sg10
I156
sg11
I47
sg12
g13
sg14
S'mezzodestro'
p4619
sba(itravian_raidmap
raid
p4620
(dp4621
g6
I25097
sg7
S'Teutoni'
p4622
sg9
I0
sg10
I157
sg11
I47
sg12
g13
sg14
S'mezzodestro'
p4623
sba(itravian_raidmap
raid
p4624
(dp4625
g6
I18766
sg7
S'Romani'
p4626
sg9
I0
sg10
I183
sg11
I27
sg12
g13
sg14
S'KiRaG'
p4627
sba(itravian_raidmap
raid
p4628
(dp4629
g6
I25097
sg7
S'Teutoni'
p4630
sg9
I0
sg10
I159
sg11
I51
sg12
g13
sg14
S'mezzodestro'
p4631
sba(itravian_raidmap
raid
p4632
(dp4633
g6
I25097
sg7
S'Teutoni'
p4634
sg9
I0
sg10
I166
sg11
I40
sg12
g13
sg14
S'mezzodestro'
p4635
sba(itravian_raidmap
raid
p4636
(dp4637
g6
I25097
sg7
S'Teutoni'
p4638
sg9
I0
sg10
I161
sg11
I57
sg12
g13
sg14
S'mezzodestro'
p4639
sba(itravian_raidmap
raid
p4640
(dp4641
g6
I25097
sg7
S'Teutoni'
p4642
sg9
I0
sg10
I166
sg11
I42
sg12
g13
sg14
S'mezzodestro'
p4643
sba(itravian_raidmap
raid
p4644
(dp4645
g6
I25097
sg7
S'Teutoni'
p4646
sg9
I0
sg10
I162
sg11
I57
sg12
g13
sg14
S'mezzodestro'
p4647
sba(itravian_raidmap
raid
p4648
(dp4649
g6
I25097
sg7
S'Teutoni'
p4650
sg9
I0
sg10
I166
sg11
I50
sg12
g13
sg14
S'mezzodestro'
p4651
sba(itravian_raidmap
raid
p4652
(dp4653
g6
I25097
sg7
S'Teutoni'
p4654
sg9
I0
sg10
I166
sg11
I51
sg12
g13
sg14
S'mezzodestro'
p4655
sba(itravian_raidmap
raid
p4656
(dp4657
g6
I25097
sg7
S'Teutoni'
p4658
sg9
I0
sg10
I161
sg11
I67
sg12
g13
sg14
S'mezzodestro'
p4659
sba(itravian_raidmap
raid
p4660
(dp4661
g6
I25097
sg7
S'Teutoni'
p4662
sg9
I0
sg10
I167
sg11
I53
sg12
g13
sg14
S'mezzodestro'
p4663
sba(itravian_raidmap
raid
p4664
(dp4665
g6
I25097
sg7
S'Teutoni'
p4666
sg9
I0
sg10
I168
sg11
I51
sg12
g13
sg14
S'mezzodestro'
p4667
sba(itravian_raidmap
raid
p4668
(dp4669
g6
I25097
sg7
S'Teutoni'
p4670
sg9
I0
sg10
I168
sg11
I53
sg12
g13
sg14
S'mezzodestro'
p4671
sba(itravian_raidmap
raid
p4672
(dp4673
g6
I25097
sg7
S'Teutoni'
p4674
sg9
I0
sg10
I161
sg11
I73
sg12
g13
sg14
S'mezzodestro'
p4675
sba(itravian_raidmap
raid
p4676
(dp4677
g6
I25097
sg7
S'Teutoni'
p4678
sg9
I0
sg10
I173
sg11
I48
sg12
g13
sg14
S'mezzodestro'
p4679
sba(itravian_raidmap
raid
p4680
(dp4681
g6
I25097
sg7
S'Teutoni'
p4682
sg9
I0
sg10
I166
sg11
I72
sg12
g13
sg14
S'mezzodestro'
p4683
sba(itravian_raidmap
raid
p4684
(dp4685
g6
I18768
sg7
S'Romani'
p4686
sg9
I0
sg10
I196
sg11
I36
sg12
g13
sg14
S'KiRaG'
p4687
sba(itravian_raidmap
raid
p4688
(dp4689
g6
I25097
sg7
S'Teutoni'
p4690
sg9
I0
sg10
I179
sg11
I43
sg12
g13
sg14
S'mezzodestro'
p4691
sba(itravian_raidmap
raid
p4692
(dp4693
g6
I25097
sg7
S'Teutoni'
p4694
sg9
I0
sg10
I164
sg11
I92
sg12
g13
sg14
S'mezzodestro'
p4695
sba(itravian_raidmap
raid
p4696
(dp4697
g6
I18766
sg7
S'Romani'
p4698
sg9
I0
sg10
I202
sg11
I29
sg12
g13
sg14
S'KiRaG'
p4699
sba(itravian_raidmap
raid
p4700
(dp4701
g6
I25097
sg7
S'Teutoni'
p4702
sg9
I0
sg10
I185
sg11
I50
sg12
g13
sg14
S'mezzodestro'
p4703
sba(itravian_raidmap
raid
p4704
(dp4705
g6
I18768
sg7
S'Romani'
p4706
sg9
I0
sg10
I208
sg11
I28
sg12
g13
sg14
S'KiRaG'
p4707
sba(itravian_raidmap
raid
p4708
(dp4709
g6
I18768
sg7
S'Romani'
p4710
sg9
I0
sg10
I206
sg11
I45
sg12
g13
sg14
S'KiRaG'
p4711
sba(itravian_raidmap
raid
p4712
(dp4713
g6
I18766
sg7
S'Romani'
p4714
sg9
I0
sg10
I210
sg11
I24
sg12
g13
sg14
S'KiRaG'
p4715
sba(itravian_raidmap
raid
p4716
(dp4717
g6
I18768
sg7
S'Romani'
p4718
sg9
I0
sg10
I210
sg11
I30
sg12
g13
sg14
S'KiRaG'
p4719
sba(itravian_raidmap
raid
p4720
(dp4721
g6
I18766
sg7
S'Romani'
p4722
sg9
I0
sg10
I212
sg11
I30
sg12
g13
sg14
S'KiRaG'
p4723
sba(itravian_raidmap
raid
p4724
(dp4725
g6
I18768
sg7
S'Romani'
p4726
sg9
I0
sg10
I212
sg11
I32
sg12
g13
sg14
S'KiRaG'
p4727
sba(itravian_raidmap
raid
p4728
(dp4729
g6
I18766
sg7
S'Romani'
p4730
sg9
I0
sg10
I213
sg11
I26
sg12
g13
sg14
S'KiRaG'
p4731
sba(itravian_raidmap
raid
p4732
(dp4733
g6
I18766
sg7
S'Romani'
p4734
sg9
I0
sg10
I213
sg11
I30
sg12
g13
sg14
S'KiRaG'
p4735
sba(itravian_raidmap
raid
p4736
(dp4737
g6
I18768
sg7
S'Romani'
p4738
sg9
I0
sg10
I213
sg11
I32
sg12
g13
sg14
S'KiRaG'
p4739
sba(itravian_raidmap
raid
p4740
(dp4741
g6
I25097
sg7
S'Teutoni'
p4742
sg9
I0
sg10
I191
sg11
I71
sg12
g13
sg14
S'mezzodestro'
p4743
sba(itravian_raidmap
raid
p4744
(dp4745
g6
I18768
sg7
S'Romani'
p4746
sg9
I0
sg10
I213
sg11
I33
sg12
g13
sg14
S'KiRaG'
p4747
sba(itravian_raidmap
raid
p4748
(dp4749
g6
I18766
sg7
S'Romani'
p4750
sg9
I0
sg10
I214
sg11
I31
sg12
g13
sg14
S'KiRaG'
p4751
sba(itravian_raidmap
raid
p4752
(dp4753
g6
I25097
sg7
S'Teutoni'
p4754
sg9
I0
sg10
I197
sg11
I69
sg12
g13
sg14
S'mezzodestro'
p4755
sba(itravian_raidmap
raid
p4756
(dp4757
g6
I18766
sg7
S'Romani'
p4758
sg9
I0
sg10
I220
sg11
I24
sg12
g13
sg14
S'KiRaG'
p4759
sba(itravian_raidmap
raid
p4760
(dp4761
g6
I18766
sg7
S'Romani'
p4762
sg9
I0
sg10
I218
sg11
I39
sg12
g13
sg14
S'KiRaG'
p4763
sba(itravian_raidmap
raid
p4764
(dp4765
g6
I25097
sg7
S'Teutoni'
p4766
sg9
I0
sg10
I206
sg11
I67
sg12
g13
sg14
S'mezzodestro'
p4767
sba(itravian_raidmap
raid
p4768
(dp4769
g6
I18766
sg7
S'Romani'
p4770
sg9
I0
sg10
I225
sg11
I20
sg12
g13
sg14
S'KiRaG'
p4771
sba(itravian_raidmap
raid
p4772
(dp4773
g6
I18766
sg7
S'Romani'
p4774
sg9
I0
sg10
I226
sg11
I22
sg12
g13
sg14
S'KiRaG'
p4775
sba(itravian_raidmap
raid
p4776
(dp4777
g6
I18766
sg7
S'Romani'
p4778
sg9
I0
sg10
I227
sg11
I16
sg12
g13
sg14
S'KiRaG'
p4779
sba(itravian_raidmap
raid
p4780
(dp4781
g6
I18766
sg7
S'Romani'
p4782
sg9
I0
sg10
I228
sg11
I15
sg12
g13
sg14
S'KiRaG'
p4783
sba(itravian_raidmap
raid
p4784
(dp4785
g6
I18768
sg7
S'Romani'
p4786
sg9
I0
sg10
I229
sg11
I34
sg12
g13
sg14
S'KiRaG'
p4787
sba(itravian_raidmap
raid
p4788
(dp4789
g6
I18766
sg7
S'Romani'
p4790
sg9
I0
sg10
I232
sg11
I12
sg12
g13
sg14
S'KiRaG'
p4791
sba(itravian_raidmap
raid
p4792
(dp4793
g6
I25097
sg7
S'Teutoni'
p4794
sg9
I0
sg10
I209
sg11
I89
sg12
g13
sg14
S'mezzodestro'
p4795
sba(itravian_raidmap
raid
p4796
(dp4797
g6
I18188
sg7
S'Galli'
p4798
sg9
I0
sg10
I171
sg11
I34
sg12
g13
sg14
S'Pitois'
p4799
sba(itravian_raidmap
raid
p4800
(dp4801
g6
I18188
sg7
S'Galli'
p4802
sg9
I0
sg10
I170
sg11
I40
sg12
g13
sg14
S'Pitois'
p4803
sba(itravian_raidmap
raid
p4804
(dp4805
g6
I18188
sg7
S'Galli'
p4806
sg9
I0
sg10
I172
sg11
I34
sg12
g13
sg14
S'Pitois'
p4807
sba(itravian_raidmap
raid
p4808
(dp4809
g6
I18188
sg7
S'Galli'
p4810
sg9
I0
sg10
I171
sg11
I41
sg12
g13
sg14
S'Pitois'
p4811
sba(itravian_raidmap
raid
p4812
(dp4813
g6
I18188
sg7
S'Galli'
p4814
sg9
I0
sg10
I172
sg11
I42
sg12
g13
sg14
S'Pitois'
p4815
sba(itravian_raidmap
raid
p4816
(dp4817
g6
I18188
sg7
S'Galli'
p4818
sg9
I0
sg10
I171
sg11
I47
sg12
g13
sg14
S'Pitois'
p4819
sba(itravian_raidmap
raid
p4820
(dp4821
g6
I18188
sg7
S'Galli'
p4822
sg9
I0
sg10
I173
sg11
I40
sg12
g13
sg14
S'Pitois'
p4823
sba(itravian_raidmap
raid
p4824
(dp4825
g6
I18188
sg7
S'Galli'
p4826
sg9
I0
sg10
I173
sg11
I41
sg12
g13
sg14
S'Pitois'
p4827
sba(itravian_raidmap
raid
p4828
(dp4829
g6
I18188
sg7
S'Galli'
p4830
sg9
I0
sg10
I173
sg11
I42
sg12
g13
sg14
S'Pitois'
p4831
sba(itravian_raidmap
raid
p4832
(dp4833
g6
I18188
sg7
S'Galli'
p4834
sg9
I0
sg10
I173
sg11
I43
sg12
g13
sg14
S'Pitois'
p4835
sba(itravian_raidmap
raid
p4836
(dp4837
g6
I18188
sg7
S'Galli'
p4838
sg9
I0
sg10
I174
sg11
I40
sg12
g13
sg14
S'Pitois'
p4839
sba(itravian_raidmap
raid
p4840
(dp4841
g6
I18188
sg7
S'Galli'
p4842
sg9
I0
sg10
I174
sg11
I42
sg12
g13
sg14
S'Pitois'
p4843
sba(itravian_raidmap
raid
p4844
(dp4845
g6
I18188
sg7
S'Galli'
p4846
sg9
I0
sg10
I173
sg11
I51
sg12
g13
sg14
S'Pitois'
p4847
sba(itravian_raidmap
raid
p4848
(dp4849
g6
I18188
sg7
S'Galli'
p4850
sg9
I0
sg10
I175
sg11
I48
sg12
g13
sg14
S'Pitois'
p4851
sba(itravian_raidmap
raid
p4852
(dp4853
g6
I18188
sg7
S'Galli'
p4854
sg9
I0
sg10
I184
sg11
I23
sg12
g13
sg14
S'Pitois'
p4855
sba(itravian_raidmap
raid
p4856
(dp4857
g6
I18188
sg7
S'Galli'
p4858
sg9
I0
sg10
I193
sg11
I17
sg12
g13
sg14
S'Pitois'
p4859
sba(itravian_raidmap
raid
p4860
(dp4861
g6
I30662
sg7
S'Teutoni'
p4862
sg9
I0
sg10
I158
sg11
I67
sg12
g13
sg14
S'damicabi'
p4863
sba(itravian_raidmap
raid
p4864
(dp4865
g6
I30662
sg7
S'Teutoni'
p4866
sg9
I0
sg10
I172
sg11
I64
sg12
g13
sg14
S'damicabi'
p4867
sba(itravian_raidmap
raid
p4868
(dp4869
g6
I30662
sg7
S'Teutoni'
p4870
sg9
I0
sg10
I174
sg11
I67
sg12
g13
sg14
S'damicabi'
p4871
sba(itravian_raidmap
raid
p4872
(dp4873
g6
I30662
sg7
S'Teutoni'
p4874
sg9
I0
sg10
I191
sg11
I37
sg12
g13
sg14
S'damicabi'
p4875
sba(itravian_raidmap
raid
p4876
(dp4877
g6
I30662
sg7
S'Teutoni'
p4878
sg9
I0
sg10
I192
sg11
I38
sg12
g13
sg14
S'damicabi'
p4879
sba(itravian_raidmap
raid
p4880
(dp4881
g6
I30662
sg7
S'Teutoni'
p4882
sg9
I0
sg10
I193
sg11
I35
sg12
g13
sg14
S'damicabi'
p4883
sba(itravian_raidmap
raid
p4884
(dp4885
g6
I30662
sg7
S'Teutoni'
p4886
sg9
I0
sg10
I193
sg11
I45
sg12
g13
sg14
S'damicabi'
p4887
sba(itravian_raidmap
raid
p4888
(dp4889
g6
I30662
sg7
S'Teutoni'
p4890
sg9
I0
sg10
I191
sg11
I54
sg12
g13
sg14
S'damicabi'
p4891
sba(itravian_raidmap
raid
p4892
(dp4893
g6
I30662
sg7
S'Teutoni'
p4894
sg9
I0
sg10
I196
sg11
I40
sg12
g13
sg14
S'damicabi'
p4895
sba(itravian_raidmap
raid
p4896
(dp4897
g6
I30662
sg7
S'Teutoni'
p4898
sg9
I0
sg10
I199
sg11
I25
sg12
g13
sg14
S'damicabi'
p4899
sba(itravian_raidmap
raid
p4900
(dp4901
g6
I30662
sg7
S'Teutoni'
p4902
sg9
I0
sg10
I192
sg11
I58
sg12
g13
sg14
S'damicabi'
p4903
sba(itravian_raidmap
raid
p4904
(dp4905
g6
I30662
sg7
S'Teutoni'
p4906
sg9
I0
sg10
I194
sg11
I56
sg12
g13
sg14
S'damicabi'
p4907
sba(itravian_raidmap
raid
p4908
(dp4909
g6
I30662
sg7
S'Teutoni'
p4910
sg9
I0
sg10
I199
sg11
I50
sg12
g13
sg14
S'damicabi'
p4911
sba(itravian_raidmap
raid
p4912
(dp4913
g6
I30662
sg7
S'Teutoni'
p4914
sg9
I0
sg10
I199
sg11
I51
sg12
g13
sg14
S'damicabi'
p4915
sba(itravian_raidmap
raid
p4916
(dp4917
g6
I30662
sg7
S'Teutoni'
p4918
sg9
I0
sg10
I201
sg11
I49
sg12
g13
sg14
S'damicabi'
p4919
sba(itravian_raidmap
raid
p4920
(dp4921
g6
I18188
sg7
S'Galli'
p4922
sg9
I0
sg10
I210
sg11
I89
sg12
g13
sg14
S'Pitois'
p4923
sba(itravian_raidmap
raid
p4924
(dp4925
g6
I30662
sg7
S'Teutoni'
p4926
sg9
I0
sg10
I197
sg11
I70
sg12
g13
sg14
S'damicabi'
p4927
sba(itravian_raidmap
raid
p4928
(dp4929
g6
I30662
sg7
S'Teutoni'
p4930
sg9
I0
sg10
I203
sg11
I50
sg12
g13
sg14
S'damicabi'
p4931
sba(itravian_raidmap
raid
p4932
(dp4933
g6
I30662
sg7
S'Teutoni'
p4934
sg9
I0
sg10
I210
sg11
I42
sg12
g13
sg14
S'damicabi'
p4935
sba(itravian_raidmap
raid
p4936
(dp4937
g6
I30662
sg7
S'Teutoni'
p4938
sg9
I0
sg10
I212
sg11
I38
sg12
g13
sg14
S'damicabi'
p4939
sba(itravian_raidmap
raid
p4940
(dp4941
g6
I30662
sg7
S'Teutoni'
p4942
sg9
I0
sg10
I213
sg11
I38
sg12
g13
sg14
S'damicabi'
p4943
sba(itravian_raidmap
raid
p4944
(dp4945
g6
I30662
sg7
S'Teutoni'
p4946
sg9
I0
sg10
I207
sg11
I66
sg12
g13
sg14
S'damicabi'
p4947
sba(itravian_raidmap
raid
p4948
(dp4949
g6
I30662
sg7
S'Teutoni'
p4950
sg9
I0
sg10
I207
sg11
I67
sg12
g13
sg14
S'damicabi'
p4951
sba(itravian_raidmap
raid
p4952
(dp4953
g6
I30662
sg7
S'Teutoni'
p4954
sg9
I0
sg10
I207
sg11
I70
sg12
g13
sg14
S'damicabi'
p4955
sba(itravian_raidmap
raid
p4956
(dp4957
g6
I30662
sg7
S'Teutoni'
p4958
sg9
I0
sg10
I208
sg11
I70
sg12
g13
sg14
S'damicabi'
p4959
sba(itravian_raidmap
raid
p4960
(dp4961
g6
I30662
sg7
S'Teutoni'
p4962
sg9
I0
sg10
I207
sg11
I76
sg12
g13
sg14
S'damicabi'
p4963
sba(itravian_raidmap
raid
p4964
(dp4965
g6
I30662
sg7
S'Teutoni'
p4966
sg9
I0
sg10
I210
sg11
I69
sg12
g13
sg14
S'damicabi'
p4967
sba(itravian_raidmap
raid
p4968
(dp4969
g6
I30662
sg7
S'Teutoni'
p4970
sg9
I0
sg10
I208
sg11
I76
sg12
g13
sg14
S'damicabi'
p4971
sba(itravian_raidmap
raid
p4972
(dp4973
g6
I30662
sg7
S'Teutoni'
p4974
sg9
I0
sg10
I208
sg11
I77
sg12
g13
sg14
S'damicabi'
p4975
sba(itravian_raidmap
raid
p4976
(dp4977
g6
I30662
sg7
S'Teutoni'
p4978
sg9
I0
sg10
I210
sg11
I75
sg12
g13
sg14
S'damicabi'
p4979
sba(itravian_raidmap
raid
p4980
(dp4981
g6
I30662
sg7
S'Teutoni'
p4982
sg9
I0
sg10
I214
sg11
I65
sg12
g13
sg14
S'damicabi'
p4983
sba(itravian_raidmap
raid
p4984
(dp4985
g6
I30662
sg7
S'Teutoni'
p4986
sg9
I0
sg10
I218
sg11
I57
sg12
g13
sg14
S'damicabi'
p4987
sba(itravian_raidmap
raid
p4988
(dp4989
g6
I30662
sg7
S'Teutoni'
p4990
sg9
I0
sg10
I208
sg11
I89
sg12
g13
sg14
S'damicabi'
p4991
sba(itravian_raidmap
raid
p4992
(dp4993
g6
I30662
sg7
S'Teutoni'
p4994
sg9
I0
sg10
I226
sg11
I19
sg12
g13
sg14
S'damicabi'
p4995
sba(itravian_raidmap
raid
p4996
(dp4997
g6
I30662
sg7
S'Teutoni'
p4998
sg9
I0
sg10
I215
sg11
I86
sg12
g13
sg14
S'damicabi'
p4999
sba(itravian_raidmap
raid
p5000
(dp5001
g6
I30662
sg7
S'Teutoni'
p5002
sg9
I0
sg10
I230
sg11
I42
sg12
g13
sg14
S'damicabi'
p5003
sba(itravian_raidmap
raid
p5004
(dp5005
g6
I30662
sg7
S'Teutoni'
p5006
sg9
I0
sg10
I237
sg11
I28
sg12
g13
sg14
S'damicabi'
p5007
sba(itravian_raidmap
raid
p5008
(dp5009
g6
I28576
sg7
S'Romani'
p5010
sg9
I0
sg10
I158
sg11
I99
sg12
g13
sg14
S'durbans2'
p5011
sba(itravian_raidmap
raid
p5012
(dp5013
g6
I28576
sg7
S'Romani'
p5014
sg9
I0
sg10
I179
sg11
I78
sg12
g13
sg14
S'durbans2'
p5015
sba(itravian_raidmap
raid
p5016
(dp5017
g6
I28576
sg7
S'Romani'
p5018
sg9
I0
sg10
I166
sg11
I103
sg12
g13
sg14
S'durbans2'
p5019
sbasb.