(itravian_raidmap
raidlist
p0
(dp1
S'raids'
p2
(lp3
(itravian_raidmap
raid
p4
(dp5
S'popolazione'
p6
I2
sS'tribu'
p7
S'Teutoni'
p8
sS'done'
p9
I0
sS'yp'
p10
I128
sS'xp'
p11
I83
sS'id'
p12
S''
p13
sS'giocatore'
p14
S'gobolin'
p15
sba(itravian_raidmap
raid
p16
(dp17
g6
I744
sg7
S'Teutoni'
p18
sg9
I0
sg10
I111
sg11
I70
sg12
g13
sg14
S'ilgordo88'
p19
sba(itravian_raidmap
raid
p20
(dp21
g6
I695
sg7
S'Teutoni'
p22
sg9
I0
sg10
I121
sg11
I68
sg12
g13
sg14
S'Gigione XIV'
p23
sba(itravian_raidmap
raid
p24
(dp25
g6
I180
sg7
S'Romani'
p26
sg9
I0
sg10
I109
sg11
I65
sg12
g13
sg14
S'Leonidas'
p27
sba(itravian_raidmap
raid
p28
(dp29
g6
I645
sg7
S'Teutoni'
p30
sg9
I0
sg10
I134
sg11
I51
sg12
g13
sg14
S'edwige'
p31
sba(itravian_raidmap
raid
p32
(dp33
g6
I403
sg7
S'Teutoni'
p34
sg9
I0
sg10
I136
sg11
I74
sg12
g13
sg14
S'Ciccio_Ciccio'
p35
sba(itravian_raidmap
raid
p36
(dp37
g6
I2
sg7
S'Teutoni'
p38
sg9
I0
sg10
I156
sg11
I70
sg12
g13
sg14
S'otto7329'
p39
sba(itravian_raidmap
raid
p40
(dp41
g6
I0
sg7
S'Teutoni'
p42
sg9
I0
sg10
I150
sg11
I87
sg12
g13
sg14
S'ponza'
p43
sba(itravian_raidmap
raid
p44
(dp45
g6
I317
sg7
S'Romani'
p46
sg9
I0
sg10
I128
sg11
I45
sg12
g13
sg14
S'misterchia'
p47
sba(itravian_raidmap
raid
p48
(dp49
g6
I583
sg7
S'Teutoni'
p50
sg9
I0
sg10
I134
sg11
I93
sg12
g13
sg14
S'Uzumaki Naruto'
p51
sba(itravian_raidmap
raid
p52
(dp53
g6
I460
sg7
S'Teutoni'
p54
sg9
I0
sg10
I164
sg11
I43
sg12
g13
sg14
S'jenny81'
p55
sba(itravian_raidmap
raid
p56
(dp57
g6
I25
sg7
S'Romani'
p58
sg9
I0
sg10
I136
sg11
I63
sg12
g13
sg14
S'sole'
p59
sba(itravian_raidmap
raid
p60
(dp61
g6
I363
sg7
S'Teutoni'
p62
sg9
I0
sg10
I174
sg11
I44
sg12
g13
sg14
S'Sicarus'
p63
sba(itravian_raidmap
raid
p64
(dp65
g6
I469
sg7
S'Romani'
p66
sg9
I0
sg10
I119
sg11
I70
sg12
g13
sg14
S'scarabeo4'
p67
sba(itravian_raidmap
raid
p68
(dp69
g6
I27
sg7
S'Teutoni'
p70
sg9
I0
sg10
I195
sg11
I10
sg12
g13
sg14
S'walter'
p71
sba(itravian_raidmap
raid
p72
(dp73
g6
I652
sg7
S'Teutoni'
p74
sg9
I0
sg10
I154
sg11
I77
sg12
g13
sg14
S'SIOBAN'
p75
sba(itravian_raidmap
raid
p76
(dp77
g6
I765
sg7
S'Teutoni'
p78
sg9
I0
sg10
I166
sg11
I33
sg12
g13
sg14
S'Montanaro'
p79
sba(itravian_raidmap
raid
p80
(dp81
g6
I177
sg7
S'Teutoni'
p82
sg9
I0
sg10
I191
sg11
I45
sg12
g13
sg14
S'iron_man'
p83
sba(itravian_raidmap
raid
p84
(dp85
g6
I171
sg7
S'Romani'
p86
sg9
I0
sg10
I139
sg11
I73
sg12
g13
sg14
S'Pop'
p87
sba(itravian_raidmap
raid
p88
(dp89
g6
I292
sg7
S'Galli'
p90
sg9
I0
sg10
I106
sg11
I69
sg12
g13
sg14
S'generaleqwerty'
p91
sba(itravian_raidmap
raid
p92
(dp93
g6
I381
sg7
S'Teutoni'
p94
sg9
I0
sg10
I179
sg11
I86
sg12
g13
sg14
S'merryterry'
p95
sba(itravian_raidmap
raid
p96
(dp97
g6
I1727
sg7
S'Teutoni'
p98
sg9
I0
sg10
I138
sg11
I49
sg12
g13
sg14
S'JGOR'
p99
sba(itravian_raidmap
raid
p100
(dp101
g6
I863
sg7
S'Romani'
p102
sg9
I0
sg10
I129
sg11
I48
sg12
g13
sg14
S'ilmare69'
p103
sba(itravian_raidmap
raid
p104
(dp105
g6
I205
sg7
S'Romani'
p106
sg9
I0
sg10
I149
sg11
I79
sg12
g13
sg14
S'skyzzoh'
p107
sba(itravian_raidmap
raid
p108
(dp109
g6
I586
sg7
S'Teutoni'
p110
sg9
I0
sg10
I194
sg11
I45
sg12
g13
sg14
S'giangi81'
p111
sba(itravian_raidmap
raid
p112
(dp113
g6
I2257
sg7
S'Teutoni'
p114
sg9
I0
sg10
I118
sg11
I65
sg12
g13
sg14
S'dragan63'
p115
sba(itravian_raidmap
raid
p116
(dp117
g6
I922
sg7
S'Romani'
p118
sg9
I0
sg10
I131
sg11
I59
sg12
g13
sg14
S'BARQUI'
p119
sba(itravian_raidmap
raid
p120
(dp121
g6
I602
sg7
S'Romani'
p122
sg9
I0
sg10
I150
sg11
I45
sg12
g13
sg14
S'Attila84'
p123
sba(itravian_raidmap
raid
p124
(dp125
g6
I407
sg7
S'Romani'
p126
sg9
I0
sg10
I163
sg11
I22
sg12
g13
sg14
S'mexes984'
p127
sba(itravian_raidmap
raid
p128
(dp129
g6
I374
sg7
S'Galli'
p130
sg9
I0
sg10
I113
sg11
I76
sg12
g13
sg14
S'krall'
p131
sba(itravian_raidmap
raid
p132
(dp133
g6
I365
sg7
S'Galli'
p134
sg9
I0
sg10
I123
sg11
I61
sg12
g13
sg14
S'mauroza'
p135
sba(itravian_raidmap
raid
p136
(dp137
g6
I365
sg7
S'Galli'
p138
sg9
I0
sg10
I124
sg11
I61
sg12
g13
sg14
S'mauroza'
p139
sba(itravian_raidmap
raid
p140
(dp141
g6
I699
sg7
S'Romani'
p142
sg9
I0
sg10
I155
sg11
I15
sg12
g13
sg14
S'Aran.'
p143
sba(itravian_raidmap
raid
p144
(dp145
g6
I237
sg7
S'Teutoni'
p146
sg9
I0
sg10
I214
sg11
I50
sg12
g13
sg14
S'frig94'
p147
sba(itravian_raidmap
raid
p148
(dp149
g6
I921
sg7
S'Teutoni'
p150
sg9
I0
sg10
I192
sg11
I39
sg12
g13
sg14
S'xfidia'
p151
sba(itravian_raidmap
raid
p152
(dp153
g6
I401
sg7
S'Romani'
p154
sg9
I0
sg10
I155
sg11
I73
sg12
g13
sg14
S'acetonotte'
p155
sba(itravian_raidmap
raid
p156
(dp157
g6
I307
sg7
S'Teutoni'
p158
sg9
I0
sg10
I223
sg11
I12
sg12
g13
sg14
S'Drio'
p159
sba(itravian_raidmap
raid
p160
(dp161
g6
I1108
sg7
S'Teutoni'
p162
sg9
I0
sg10
I185
sg11
I54
sg12
g13
sg14
S'greta98'
p163
sba(itravian_raidmap
raid
p164
(dp165
g6
I322
sg7
S'Teutoni'
p166
sg9
I0
sg10
I193
sg11
I113
sg12
g13
sg14
S'Rum'
p167
sba(itravian_raidmap
raid
p168
(dp169
g6
I380
sg7
S'Teutoni'
p170
sg9
I0
sg10
I210
sg11
I71
sg12
g13
sg14
S'amos95'
p171
sba(itravian_raidmap
raid
p172
(dp173
g6
I208
sg7
S'Teutoni'
p174
sg9
I0
sg10
I228
sg11
I14
sg12
g13
sg14
S'framax'
p175
sba(itravian_raidmap
raid
p176
(dp177
g6
I201
sg7
S'Teutoni'
p178
sg9
I0
sg10
I228
sg11
I18
sg12
g13
sg14
S'achille'
p179
sba(itravian_raidmap
raid
p180
(dp181
g6
I903
sg7
S'Teutoni'
p182
sg9
I0
sg10
I181
sg11
I90
sg12
g13
sg14
S'Halmir'
p183
sba(itravian_raidmap
raid
p184
(dp185
g6
I903
sg7
S'Teutoni'
p186
sg9
I0
sg10
I181
sg11
I91
sg12
g13
sg14
S'Halmir'
p187
sba(itravian_raidmap
raid
p188
(dp189
g6
I288
sg7
S'Romani'
p190
sg9
I0
sg10
I169
sg11
I59
sg12
g13
sg14
S'marko93'
p191
sba(itravian_raidmap
raid
p192
(dp193
g6
I182
sg7
S'Romani'
p194
sg9
I0
sg10
I166
sg11
I78
sg12
g13
sg14
S'Linneo78'
p195
sba(itravian_raidmap
raid
p196
(dp197
g6
I903
sg7
S'Teutoni'
p198
sg9
I0
sg10
I182
sg11
I91
sg12
g13
sg14
S'Halmir'
p199
sba(itravian_raidmap
raid
p200
(dp201
g6
I197
sg7
S'Teutoni'
p202
sg9
I0
sg10
I217
sg11
I83
sg12
g13
sg14
S'Robby96'
p203
sba(itravian_raidmap
raid
p204
(dp205
g6
I1517
sg7
S'Romani'
p206
sg9
I0
sg10
I122
sg11
I56
sg12
g13
sg14
S'AiKiDo'
p207
sba(itravian_raidmap
raid
p208
(dp209
g6
I877
sg7
S'Teutoni'
p210
sg9
I0
sg10
I188
sg11
I89
sg12
g13
sg14
S'Re Bex XIV'
p211
sba(itravian_raidmap
raid
p212
(dp213
g6
I1385
sg7
S'Romani'
p214
sg9
I0
sg10
I132
sg11
I47
sg12
g13
sg14
S'One Piece'
p215
sba(itravian_raidmap
raid
p216
(dp217
g6
I610
sg7
S'Romani'
p218
sg9
I0
sg10
I165
sg11
I46
sg12
g13
sg14
S'danicosta'
p219
sba(itravian_raidmap
raid
p220
(dp221
g6
I610
sg7
S'Romani'
p222
sg9
I0
sg10
I165
sg11
I47
sg12
g13
sg14
S'danicosta'
p223
sba(itravian_raidmap
raid
p224
(dp225
g6
I95
sg7
S'Teutoni'
p226
sg9
I0
sg10
I240
sg11
I19
sg12
g13
sg14
S'AndyWiFi'
p227
sba(itravian_raidmap
raid
p228
(dp229
g6
I381
sg7
S'Romani'
p230
sg9
I0
sg10
I180
sg11
I23
sg12
g13
sg14
S'Rosis'
p231
sba(itravian_raidmap
raid
p232
(dp233
g6
I15
sg7
S'Teutoni'
p234
sg9
I0
sg10
I237
sg11
I63
sg12
g13
sg14
S'lamanu'
p235
sba(itravian_raidmap
raid
p236
(dp237
g6
I85
sg7
S'Teutoni'
p238
sg9
I0
sg10
I242
sg11
I25
sg12
g13
sg14
S'sicur'
p239
sba(itravian_raidmap
raid
p240
(dp241
g6
I258
sg7
S'Teutoni'
p242
sg9
I0
sg10
I209
sg11
I111
sg12
g13
sg14
S'marghe92'
p243
sba(itravian_raidmap
raid
p244
(dp245
g6
I1202
sg7
S'Teutoni'
p246
sg9
I0
sg10
I199
sg11
I22
sg12
g13
sg14
S'allupata'
p247
sba(itravian_raidmap
raid
p248
(dp249
g6
I710
sg7
S'Romani'
p250
sg9
I0
sg10
I167
sg11
I32
sg12
g13
sg14
S'Thiamai'
p251
sba(itravian_raidmap
raid
p252
(dp253
g6
I623
sg7
S'Romani'
p254
sg9
I0
sg10
I158
sg11
I73
sg12
g13
sg14
S'stella3'
p255
sba(itravian_raidmap
raid
p256
(dp257
g6
I341
sg7
S'Romani'
p258
sg9
I0
sg10
I179
sg11
I47
sg12
g13
sg14
S'sam92'
p259
sba(itravian_raidmap
raid
p260
(dp261
g6
I1202
sg7
S'Teutoni'
p262
sg9
I0
sg10
I200
sg11
I22
sg12
g13
sg14
S'allupata'
p263
sba(itravian_raidmap
raid
p264
(dp265
g6
I620
sg7
S'Galli'
p266
sg9
I0
sg10
I136
sg11
I38
sg12
g13
sg14
S'sidd'
p267
sba(itravian_raidmap
raid
p268
(dp269
g6
I710
sg7
S'Romani'
p270
sg9
I0
sg10
I168
sg11
I32
sg12
g13
sg14
S'Thiamai'
p271
sba(itravian_raidmap
raid
p272
(dp273
g6
I1219
sg7
S'Romani'
p274
sg9
I0
sg10
I149
sg11
I26
sg12
g13
sg14
S'ELEUTERIO'
p275
sba(itravian_raidmap
raid
p276
(dp277
g6
I620
sg7
S'Galli'
p278
sg9
I0
sg10
I137
sg11
I38
sg12
g13
sg14
S'sidd'
p279
sba(itravian_raidmap
raid
p280
(dp281
g6
I664
sg7
S'Romani'
p282
sg9
I0
sg10
I170
sg11
I42
sg12
g13
sg14
S'robymcrae'
p283
sba(itravian_raidmap
raid
p284
(dp285
g6
I352
sg7
S'Teutoni'
p286
sg9
I0
sg10
I232
sg11
I51
sg12
g13
sg14
S'wytone'
p287
sba(itravian_raidmap
raid
p288
(dp289
g6
I414
sg7
S'Romani'
p290
sg9
I0
sg10
I172
sg11
I68
sg12
g13
sg14
S'soldier_95'
p291
sba(itravian_raidmap
raid
p292
(dp293
g6
I490
sg7
S'Romani'
p294
sg9
I0
sg10
I181
sg11
I20
sg12
g13
sg14
S'Simone_alex'
p295
sba(itravian_raidmap
raid
p296
(dp297
g6
I1607
sg7
S'Teutoni'
p298
sg9
I0
sg10
I185
sg11
I40
sg12
g13
sg14
S'Vasco1987'
p299
sba(itravian_raidmap
raid
p300
(dp301
g6
I1607
sg7
S'Teutoni'
p302
sg9
I0
sg10
I185
sg11
I43
sg12
g13
sg14
S'Vasco1987'
p303
sba(itravian_raidmap
raid
p304
(dp305
g6
I784
sg7
S'Romani'
p306
sg9
I0
sg10
I147
sg11
I89
sg12
g13
sg14
S'Skoolan'
p307
sba(itravian_raidmap
raid
p308
(dp309
g6
I268
sg7
S'Romani'
p310
sg9
I0
sg10
I189
sg11
I34
sg12
g13
sg14
S'walleygator'
p311
sba(itravian_raidmap
raid
p312
(dp313
g6
I1850
sg7
S'Teutoni'
p314
sg9
I0
sg10
I181
sg11
I16
sg12
g13
sg14
S'Shura'
p315
sba(itravian_raidmap
raid
p316
(dp317
g6
I1607
sg7
S'Teutoni'
p318
sg9
I0
sg10
I186
sg11
I45
sg12
g13
sg14
S'Vasco1987'
p319
sba(itravian_raidmap
raid
p320
(dp321
g6
I1850
sg7
S'Teutoni'
p322
sg9
I0
sg10
I181
sg11
I22
sg12
g13
sg14
S'Shura'
p323
sba(itravian_raidmap
raid
p324
(dp325
g6
I784
sg7
S'Romani'
p326
sg9
I0
sg10
I148
sg11
I91
sg12
g13
sg14
S'Skoolan'
p327
sba(itravian_raidmap
raid
p328
(dp329
g6
I343
sg7
S'Romani'
p330
sg9
I0
sg10
I191
sg11
I-2
sg12
g13
sg14
S'aleche2001'
p331
sba(itravian_raidmap
raid
p332
(dp333
g6
I503
sg7
S'Romani'
p334
sg9
I0
sg10
I168
sg11
I77
sg12
g13
sg14
S'Talitha'
p335
sba(itravian_raidmap
raid
p336
(dp337
g6
I145
sg7
S'Teutoni'
p338
sg9
I0
sg10
I247
sg11
I38
sg12
g13
sg14
S'Toby!!'
p339
sba(itravian_raidmap
raid
p340
(dp341
g6
I315
sg7
S'Romani'
p342
sg9
I0
sg10
I190
sg11
I29
sg12
g13
sg14
S'peppus'
p343
sba(itravian_raidmap
raid
p344
(dp345
g6
I268
sg7
S'Romani'
p346
sg9
I0
sg10
I191
sg11
I35
sg12
g13
sg14
S'walleygator'
p347
sba(itravian_raidmap
raid
p348
(dp349
g6
I293
sg7
S'Romani'
p350
sg9
I0
sg10
I156
sg11
I115
sg12
g13
sg14
S'Cesare84'
p351
sba(itravian_raidmap
raid
p352
(dp353
g6
I353
sg7
S'Romani'
p354
sg9
I0
sg10
I186
sg11
I46
sg12
g13
sg14
S'cavalli'
p355
sba(itravian_raidmap
raid
p356
(dp357
g6
I662
sg7
S'Galli'
p358
sg9
I0
sg10
I127
sg11
I72
sg12
g13
sg14
S'Duka4'
p359
sba(itravian_raidmap
raid
p360
(dp361
g6
I1663
sg7
S'Teutoni'
p362
sg9
I0
sg10
I193
sg11
I14
sg12
g13
sg14
S'the illusionist'
p363
sba(itravian_raidmap
raid
p364
(dp365
g6
I600
sg7
S'Romani'
p366
sg9
I0
sg10
I183
sg11
I15
sg12
g13
sg14
S'trebalnaik'
p367
sba(itravian_raidmap
raid
p368
(dp369
g6
I668
sg7
S'Romani'
p370
sg9
I0
sg10
I151
sg11
I101
sg12
g13
sg14
S'chameleon'
p371
sba(itravian_raidmap
raid
p372
(dp373
g6
I522
sg7
S'Romani'
p374
sg9
I0
sg10
I163
sg11
I95
sg12
g13
sg14
S'iaia91'
p375
sba(itravian_raidmap
raid
p376
(dp377
g6
I192
sg7
S'Galli'
p378
sg9
I0
sg10
I161
sg11
I44
sg12
g13
sg14
S'follettopazzo'
p379
sba(itravian_raidmap
raid
p380
(dp381
g6
I856
sg7
S'Romani'
p382
sg9
I0
sg10
I175
sg11
I19
sg12
g13
sg14
S'Luna69'
p383
sba(itravian_raidmap
raid
p384
(dp385
g6
I472
sg7
S'Romani'
p386
sg9
I0
sg10
I191
sg11
I13
sg12
g13
sg14
S'matteo6'
p387
sba(itravian_raidmap
raid
p388
(dp389
g6
I472
sg7
S'Romani'
p390
sg9
I0
sg10
I191
sg11
I14
sg12
g13
sg14
S'matteo6'
p391
sba(itravian_raidmap
raid
p392
(dp393
g6
I153
sg7
S'Teutoni'
p394
sg9
I0
sg10
I255
sg11
I34
sg12
g13
sg14
S'anty96'
p395
sba(itravian_raidmap
raid
p396
(dp397
g6
I1102
sg7
S'Romani'
p398
sg9
I0
sg10
I159
sg11
I57
sg12
g13
sg14
S'sailor3'
p399
sba(itravian_raidmap
raid
p400
(dp401
g6
I682
sg7
S'Teutoni'
p402
sg9
I0
sg10
I238
sg11
I14
sg12
g13
sg14
S'max65'
p403
sba(itravian_raidmap
raid
p404
(dp405
g6
I241
sg7
S'Romani'
p406
sg9
I0
sg10
I179
sg11
I96
sg12
g13
sg14
S'Catello Salerno'
p407
sba(itravian_raidmap
raid
p408
(dp409
g6
I1663
sg7
S'Teutoni'
p410
sg9
I0
sg10
I201
sg11
I5
sg12
g13
sg14
S'the illusionist'
p411
sba(itravian_raidmap
raid
p412
(dp413
g6
I1665
sg7
S'Teutoni'
p414
sg9
I0
sg10
I202
sg11
I5
sg12
g13
sg14
S'the illusionist'
p415
sba(itravian_raidmap
raid
p416
(dp417
g6
I678
sg7
S'Romani'
p418
sg9
I0
sg10
I185
sg11
I28
sg12
g13
sg14
S'GundamRX91'
p419
sba(itravian_raidmap
raid
p420
(dp421
g6
I132
sg7
S'Romani'
p422
sg9
I0
sg10
I205
sg11
I42
sg12
g13
sg14
S'cynthia90'
p423
sba(itravian_raidmap
raid
p424
(dp425
g6
I678
sg7
S'Romani'
p426
sg9
I0
sg10
I186
sg11
I28
sg12
g13
sg14
S'GundamRX91'
p427
sba(itravian_raidmap
raid
p428
(dp429
g6
I213
sg7
S'Teutoni'
p430
sg9
I0
sg10
I249
sg11
I75
sg12
g13
sg14
S'dragonlegend'
p431
sba(itravian_raidmap
raid
p432
(dp433
g6
I565
sg7
S'Romani'
p434
sg9
I0
sg10
I176
sg11
I79
sg12
g13
sg14
S'ZAPOTEC'
p435
sba(itravian_raidmap
raid
p436
(dp437
g6
I9
sg7
S'Romani'
p438
sg9
I0
sg10
I212
sg11
I36
sg12
g13
sg14
S'GioFacchi'
p439
sba(itravian_raidmap
raid
p440
(dp441
g6
I150
sg7
S'Teutoni'
p442
sg9
I0
sg10
I253
sg11
I75
sg12
g13
sg14
S'casper'
p443
sba(itravian_raidmap
raid
p444
(dp445
g6
I662
sg7
S'Romani'
p446
sg9
I0
sg10
I188
sg11
I29
sg12
g13
sg14
S'scipione II'
p447
sba(itravian_raidmap
raid
p448
(dp449
g6
I1665
sg7
S'Teutoni'
p450
sg9
I0
sg10
I206
sg11
I-4
sg12
g13
sg14
S'the illusionist'
p451
sba(itravian_raidmap
raid
p452
(dp453
g6
I1894
sg7
S'Teutoni'
p454
sg9
I0
sg10
I197
sg11
I12
sg12
g13
sg14
S'leoinno'
p455
sba(itravian_raidmap
raid
p456
(dp457
g6
I545
sg7
S'Romani'
p458
sg9
I0
sg10
I179
sg11
I79
sg12
g13
sg14
S'conquistadoras'
p459
sba(itravian_raidmap
raid
p460
(dp461
g6
I1894
sg7
S'Teutoni'
p462
sg9
I0
sg10
I197
sg11
I14
sg12
g13
sg14
S'leoinno'
p463
sba(itravian_raidmap
raid
p464
(dp465
g6
I1894
sg7
S'Teutoni'
p466
sg9
I0
sg10
I197
sg11
I15
sg12
g13
sg14
S'leoinno'
p467
sba(itravian_raidmap
raid
p468
(dp469
g6
I557
sg7
S'Romani'
p470
sg9
I0
sg10
I186
sg11
I60
sg12
g13
sg14
S'don chisciotte'
p471
sba(itravian_raidmap
raid
p472
(dp473
g6
I1102
sg7
S'Romani'
p474
sg9
I0
sg10
I165
sg11
I56
sg12
g13
sg14
S'sailor3'
p475
sba(itravian_raidmap
raid
p476
(dp477
g6
I1150
sg7
S'Teutoni'
p478
sg9
I0
sg10
I203
sg11
I102
sg12
g13
sg14
S'NEROSKAL'
p479
sba(itravian_raidmap
raid
p480
(dp481
g6
I791
sg7
S'Teutoni'
p482
sg9
I0
sg10
I241
sg11
I15
sg12
g13
sg14
S'Hagen'
p483
sba(itravian_raidmap
raid
p484
(dp485
g6
I1150
sg7
S'Teutoni'
p486
sg9
I0
sg10
I203
sg11
I103
sg12
g13
sg14
S'NEROSKAL'
p487
sba(itravian_raidmap
raid
p488
(dp489
g6
I535
sg7
S'Teutoni'
p490
sg9
I0
sg10
I242
sg11
I70
sg12
g13
sg14
S'dbshad87'
p491
sba(itravian_raidmap
raid
p492
(dp493
g6
I313
sg7
S'Romani'
p494
sg9
I0
sg10
I206
sg11
I8
sg12
g13
sg14
S'pescerosso'
p495
sba(itravian_raidmap
raid
p496
(dp497
g6
I791
sg7
S'Teutoni'
p498
sg9
I0
sg10
I242
sg11
I15
sg12
g13
sg14
S'Hagen'
p499
sba(itravian_raidmap
raid
p500
(dp501
g6
I1894
sg7
S'Teutoni'
p502
sg9
I0
sg10
I199
sg11
I19
sg12
g13
sg14
S'leoinno'
p503
sba(itravian_raidmap
raid
p504
(dp505
g6
I1356
sg7
S'Teutoni'
p506
sg9
I0
sg10
I216
sg11
I46
sg12
g13
sg14
S'afcalex'
p507
sba(itravian_raidmap
raid
p508
(dp509
g6
I145
sg7
S'Galli'
p510
sg9
I0
sg10
I168
sg11
I55
sg12
g13
sg14
S'Baudric'
p511
sba(itravian_raidmap
raid
p512
(dp513
g6
I375
sg7
S'Romani'
p514
sg9
I0
sg10
I204
sg11
I17
sg12
g13
sg14
S'PAC-FOOD'
p515
sba(itravian_raidmap
raid
p516
(dp517
g6
I218
sg7
S'Teutoni'
p518
sg9
I0
sg10
I256
sg11
I71
sg12
g13
sg14
S'totos89'
p519
sba(itravian_raidmap
raid
p520
(dp521
g6
I1110
sg7
S'Teutoni'
p522
sg9
I0
sg10
I213
sg11
I90
sg12
g13
sg14
S'Gandalfilbianco'
p523
sba(itravian_raidmap
raid
p524
(dp525
g6
I1068
sg7
S'Romani'
p526
sg9
I0
sg10
I162
sg11
I74
sg12
g13
sg14
S'Liborio'
p527
sba(itravian_raidmap
raid
p528
(dp529
g6
I635
sg7
S'Teutoni'
p530
sg9
I0
sg10
I233
sg11
I91
sg12
g13
sg14
S'Soul Eater'
p531
sba(itravian_raidmap
raid
p532
(dp533
g6
I896
sg7
S'Romani'
p534
sg9
I0
sg10
I178
sg11
I51
sg12
g13
sg14
S'brunda'
p535
sba(itravian_raidmap
raid
p536
(dp537
g6
I1068
sg7
S'Romani'
p538
sg9
I0
sg10
I163
sg11
I74
sg12
g13
sg14
S'Liborio'
p539
sba(itravian_raidmap
raid
p540
(dp541
g6
I2520
sg7
S'Teutoni'
p542
sg9
I0
sg10
I163
sg11
I71
sg12
g13
sg14
S'vanniii'
p543
sba(itravian_raidmap
raid
p544
(dp545
g6
I1068
sg7
S'Romani'
p546
sg9
I0
sg10
I163
sg11
I75
sg12
g13
sg14
S'Liborio'
p547
sba(itravian_raidmap
raid
p548
(dp549
g6
I671
sg7
S'Romani'
p550
sg9
I0
sg10
I195
sg11
I4
sg12
g13
sg14
S'sans_savansss'
p551
sba(itravian_raidmap
raid
p552
(dp553
g6
I2520
sg7
S'Teutoni'
p554
sg9
I0
sg10
I164
sg11
I71
sg12
g13
sg14
S'vanniii'
p555
sba(itravian_raidmap
raid
p556
(dp557
g6
I896
sg7
S'Romani'
p558
sg9
I0
sg10
I180
sg11
I49
sg12
g13
sg14
S'brunda'
p559
sba(itravian_raidmap
raid
p560
(dp561
g6
I531
sg7
S'Romani'
p562
sg9
I0
sg10
I197
sg11
I40
sg12
g13
sg14
S'relick_89'
p563
sba(itravian_raidmap
raid
p564
(dp565
g6
I600
sg7
S'Romani'
p566
sg9
I0
sg10
I198
sg11
I13
sg12
g13
sg14
S'trebalnaik'
p567
sba(itravian_raidmap
raid
p568
(dp569
g6
I696
sg7
S'Teutoni'
p570
sg9
I0
sg10
I239
sg11
I74
sg12
g13
sg14
S'Trobox'
p571
sba(itravian_raidmap
raid
p572
(dp573
g6
I1447
sg7
S'Romani'
p574
sg9
I0
sg10
I159
sg11
I47
sg12
g13
sg14
S'Lupin III'
p575
sba(itravian_raidmap
raid
p576
(dp577
g6
I365
sg7
S'Galli'
p578
sg9
I0
sg10
I144
sg11
I92
sg12
g13
sg14
S'petrone'
p579
sba(itravian_raidmap
raid
p580
(dp581
g6
I2520
sg7
S'Teutoni'
p582
sg9
I0
sg10
I164
sg11
I74
sg12
g13
sg14
S'vanniii'
p583
sba(itravian_raidmap
raid
p584
(dp585
g6
I196
sg7
S'Romani'
p586
sg9
I0
sg10
I215
sg11
I16
sg12
g13
sg14
S'giulio00'
p587
sba(itravian_raidmap
raid
p588
(dp589
g6
I1041
sg7
S'Romani'
p590
sg9
I0
sg10
I175
sg11
I53
sg12
g13
sg14
S'morgano'
p591
sba(itravian_raidmap
raid
p592
(dp593
g6
I748
sg7
S'Teutoni'
p594
sg9
I0
sg10
I238
sg11
I77
sg12
g13
sg14
S'daluk95'
p595
sba(itravian_raidmap
raid
p596
(dp597
g6
I115
sg7
S'Romani'
p598
sg9
I0
sg10
I202
sg11
I85
sg12
g13
sg14
S'duro17'
p599
sba(itravian_raidmap
raid
p600
(dp601
g6
I945
sg7
S'Romani'
p602
sg9
I0
sg10
I168
sg11
I82
sg12
g13
sg14
S'nerone1'
p603
sba(itravian_raidmap
raid
p604
(dp605
g6
I671
sg7
S'Romani'
p606
sg9
I0
sg10
I197
sg11
I16
sg12
g13
sg14
S'sans_savansss'
p607
sba(itravian_raidmap
raid
p608
(dp609
g6
I458
sg7
S'Teutoni'
p610
sg9
I0
sg10
I253
sg11
I68
sg12
g13
sg14
S'paolini95'
p611
sba(itravian_raidmap
raid
p612
(dp613
g6
I748
sg7
S'Teutoni'
p614
sg9
I0
sg10
I239
sg11
I76
sg12
g13
sg14
S'daluk95'
p615
sba(itravian_raidmap
raid
p616
(dp617
g6
I425
sg7
S'Romani'
p618
sg9
I0
sg10
I172
sg11
I116
sg12
g13
sg14
S'Il_Tasca'
p619
sba(itravian_raidmap
raid
p620
(dp621
g6
I1041
sg7
S'Romani'
p622
sg9
I0
sg10
I176
sg11
I52
sg12
g13
sg14
S'morgano'
p623
sba(itravian_raidmap
raid
p624
(dp625
g6
I1041
sg7
S'Romani'
p626
sg9
I0
sg10
I176
sg11
I54
sg12
g13
sg14
S'morgano'
p627
sba(itravian_raidmap
raid
p628
(dp629
g6
I945
sg7
S'Romani'
p630
sg9
I0
sg10
I169
sg11
I82
sg12
g13
sg14
S'nerone1'
p631
sba(itravian_raidmap
raid
p632
(dp633
g6
I405
sg7
S'Romani'
p634
sg9
I0
sg10
I191
sg11
I86
sg12
g13
sg14
S'Laura sciuto'
p635
sba(itravian_raidmap
raid
p636
(dp637
g6
I1426
sg7
S'Romani'
p638
sg9
I0
sg10
I169
sg11
I22
sg12
g13
sg14
S'UFO'
p639
sba(itravian_raidmap
raid
p640
(dp641
g6
I1356
sg7
S'Teutoni'
p642
sg9
I0
sg10
I224
sg11
I52
sg12
g13
sg14
S'afcalex'
p643
sba(itravian_raidmap
raid
p644
(dp645
g6
I1356
sg7
S'Teutoni'
p646
sg9
I0
sg10
I224
sg11
I53
sg12
g13
sg14
S'afcalex'
p647
sba(itravian_raidmap
raid
p648
(dp649
g6
I86
sg7
S'Romani'
p650
sg9
I0
sg10
I222
sg11
I23
sg12
g13
sg14
S'sghidda'
p651
sba(itravian_raidmap
raid
p652
(dp653
g6
I1426
sg7
S'Romani'
p654
sg9
I0
sg10
I170
sg11
I20
sg12
g13
sg14
S'UFO'
p655
sba(itravian_raidmap
raid
p656
(dp657
g6
I1426
sg7
S'Romani'
p658
sg9
I0
sg10
I170
sg11
I21
sg12
g13
sg14
S'UFO'
p659
sba(itravian_raidmap
raid
p660
(dp661
g6
I2804
sg7
S'Teutoni'
p662
sg9
I0
sg10
I144
sg11
I102
sg12
g13
sg14
S'Crazyjam'
p663
sba(itravian_raidmap
raid
p664
(dp665
g6
I1426
sg7
S'Romani'
p666
sg9
I0
sg10
I172
sg11
I19
sg12
g13
sg14
S'UFO'
p667
sba(itravian_raidmap
raid
p668
(dp669
g6
I1457
sg7
S'Romani'
p670
sg9
I0
sg10
I166
sg11
I45
sg12
g13
sg14
S'Sede Roma'
p671
sba(itravian_raidmap
raid
p672
(dp673
g6
I443
sg7
S'Romani'
p674
sg9
I0
sg10
I210
sg11
I25
sg12
g13
sg14
S'amedeo-stoppa'
p675
sba(itravian_raidmap
raid
p676
(dp677
g6
I2804
sg7
S'Teutoni'
p678
sg9
I0
sg10
I144
sg11
I103
sg12
g13
sg14
S'Crazyjam'
p679
sba(itravian_raidmap
raid
p680
(dp681
g6
I720
sg7
S'Teutoni'
p682
sg9
I0
sg10
I248
sg11
I72
sg12
g13
sg14
S'cecchino'
p683
sba(itravian_raidmap
raid
p684
(dp685
g6
I2804
sg7
S'Teutoni'
p686
sg9
I0
sg10
I145
sg11
I103
sg12
g13
sg14
S'Crazyjam'
p687
sba(itravian_raidmap
raid
p688
(dp689
g6
I323
sg7
S'Romani'
p690
sg9
I0
sg10
I192
sg11
I102
sg12
g13
sg14
S'asataram'
p691
sba(itravian_raidmap
raid
p692
(dp693
g6
I707
sg7
S'Romani'
p694
sg9
I0
sg10
I182
sg11
I90
sg12
g13
sg14
S'fabio 7'
p695
sba(itravian_raidmap
raid
p696
(dp697
g6
I1347
sg7
S'Teutoni'
p698
sg9
I0
sg10
I225
sg11
I72
sg12
g13
sg14
S'fabiococco'
p699
sba(itravian_raidmap
raid
p700
(dp701
g6
I707
sg7
S'Romani'
p702
sg9
I0
sg10
I183
sg11
I89
sg12
g13
sg14
S'fabio 7'
p703
sba(itravian_raidmap
raid
p704
(dp705
g6
I687
sg7
S'Teutoni'
p706
sg9
I0
sg10
I250
sg11
I79
sg12
g13
sg14
S'LETHAL'
p707
sba(itravian_raidmap
raid
p708
(dp709
g6
I1399
sg7
S'Romani'
p710
sg9
I0
sg10
I171
sg11
I48
sg12
g13
sg14
S'isakiller'
p711
sba(itravian_raidmap
raid
p712
(dp713
g6
I801
sg7
S'Teutoni'
p714
sg9
I0
sg10
I256
sg11
I39
sg12
g13
sg14
S'SINATRA'
p715
sba(itravian_raidmap
raid
p716
(dp717
g6
I511
sg7
S'Romani'
p718
sg9
I0
sg10
I212
sg11
I-11
sg12
g13
sg14
S'peterpan62'
p719
sba(itravian_raidmap
raid
p720
(dp721
g6
I113
sg7
S'Romani'
p722
sg9
I0
sg10
I213
sg11
I81
sg12
g13
sg14
S'Matti46'
p723
sba(itravian_raidmap
raid
p724
(dp725
g6
I240
sg7
S'Romani'
p726
sg9
I0
sg10
I219
sg11
I43
sg12
g13
sg14
S'Navao'
p727
sba(itravian_raidmap
raid
p728
(dp729
g6
I801
sg7
S'Teutoni'
p730
sg9
I0
sg10
I257
sg11
I37
sg12
g13
sg14
S'SINATRA'
p731
sba(itravian_raidmap
raid
p732
(dp733
g6
I1399
sg7
S'Romani'
p734
sg9
I0
sg10
I172
sg11
I47
sg12
g13
sg14
S'isakiller'
p735
sba(itravian_raidmap
raid
p736
(dp737
g6
I305
sg7
S'Romani'
p738
sg9
I0
sg10
I221
sg11
I-6
sg12
g13
sg14
S'ste_sk'
p739
sba(itravian_raidmap
raid
p740
(dp741
g6
I1399
sg7
S'Romani'
p742
sg9
I0
sg10
I172
sg11
I48
sg12
g13
sg14
S'isakiller'
p743
sba(itravian_raidmap
raid
p744
(dp745
g6
I2378
sg7
S'Teutoni'
p746
sg9
I0
sg10
I167
sg11
I108
sg12
g13
sg14
S'-crichetto-'
p747
sba(itravian_raidmap
raid
p748
(dp749
g6
I1843
sg7
S'Teutoni'
p750
sg9
I0
sg10
I219
sg11
I18
sg12
g13
sg14
S'il vecchio'
p751
sba(itravian_raidmap
raid
p752
(dp753
g6
I1843
sg7
S'Teutoni'
p754
sg9
I0
sg10
I220
sg11
I18
sg12
g13
sg14
S'il vecchio'
p755
sba(itravian_raidmap
raid
p756
(dp757
g6
I1843
sg7
S'Teutoni'
p758
sg9
I0
sg10
I220
sg11
I19
sg12
g13
sg14
S'il vecchio'
p759
sba(itravian_raidmap
raid
p760
(dp761
g6
I1347
sg7
S'Teutoni'
p762
sg9
I0
sg10
I230
sg11
I69
sg12
g13
sg14
S'fabiococco'
p763
sba(itravian_raidmap
raid
p764
(dp765
g6
I1843
sg7
S'Teutoni'
p766
sg9
I0
sg10
I220
sg11
I20
sg12
g13
sg14
S'il vecchio'
p767
sba(itravian_raidmap
raid
p768
(dp769
g6
I408
sg7
S'Romani'
p770
sg9
I0
sg10
I218
sg11
I13
sg12
g13
sg14
S'drago13'
p771
sba(itravian_raidmap
raid
p772
(dp773
g6
I3218
sg7
S'Teutoni'
p774
sg9
I0
sg10
I167
sg11
I25
sg12
g13
sg14
S'sasycorona987'
p775
sba(itravian_raidmap
raid
p776
(dp777
g6
I3218
sg7
S'Teutoni'
p778
sg9
I0
sg10
I168
sg11
I25
sg12
g13
sg14
S'sasycorona987'
p779
sba(itravian_raidmap
raid
p780
(dp781
g6
I2378
sg7
S'Teutoni'
p782
sg9
I0
sg10
I172
sg11
I107
sg12
g13
sg14
S'-crichetto-'
p783
sba(itravian_raidmap
raid
p784
(dp785
g6
I598
sg7
S'Romani'
p786
sg9
I0
sg10
I181
sg11
I112
sg12
g13
sg14
S'AMBRAGIRL88'
p787
sba(itravian_raidmap
raid
p788
(dp789
g6
I1025
sg7
S'Galli'
p790
sg9
I0
sg10
I138
sg11
I75
sg12
g13
sg14
S'Akira'
p791
sba(itravian_raidmap
raid
p792
(dp793
g6
I3218
sg7
S'Teutoni'
p794
sg9
I0
sg10
I169
sg11
I21
sg12
g13
sg14
S'sasycorona987'
p795
sba(itravian_raidmap
raid
p796
(dp797
g6
I167
sg7
S'Romani'
p798
sg9
I0
sg10
I220
sg11
I67
sg12
g13
sg14
S'sentinela'
p799
sba(itravian_raidmap
raid
p800
(dp801
g6
I857
sg7
S'Romani'
p802
sg9
I0
sg10
I201
sg11
I30
sg12
g13
sg14
S'Michael4ever'
p803
sba(itravian_raidmap
raid
p804
(dp805
g6
I3218
sg7
S'Teutoni'
p806
sg9
I0
sg10
I169
sg11
I23
sg12
g13
sg14
S'sasycorona987'
p807
sba(itravian_raidmap
raid
p808
(dp809
g6
I359
sg7
S'Romani'
p810
sg9
I0
sg10
I211
sg11
I71
sg12
g13
sg14
S'Ronin James Dio'
p811
sba(itravian_raidmap
raid
p812
(dp813
g6
I3218
sg7
S'Teutoni'
p814
sg9
I0
sg10
I169
sg11
I24
sg12
g13
sg14
S'sasycorona987'
p815
sba(itravian_raidmap
raid
p816
(dp817
g6
I452
sg7
S'Romani'
p818
sg9
I0
sg10
I196
sg11
I98
sg12
g13
sg14
S'tino79'
p819
sba(itravian_raidmap
raid
p820
(dp821
g6
I3218
sg7
S'Teutoni'
p822
sg9
I0
sg10
I169
sg11
I27
sg12
g13
sg14
S'sasycorona987'
p823
sba(itravian_raidmap
raid
p824
(dp825
g6
I265
sg7
S'Romani'
p826
sg9
I0
sg10
I227
sg11
I2
sg12
g13
sg14
S'liciakiss'
p827
sba(itravian_raidmap
raid
p828
(dp829
g6
I3218
sg7
S'Teutoni'
p830
sg9
I0
sg10
I170
sg11
I23
sg12
g13
sg14
S'sasycorona987'
p831
sba(itravian_raidmap
raid
p832
(dp833
g6
I452
sg7
S'Romani'
p834
sg9
I0
sg10
I197
sg11
I98
sg12
g13
sg14
S'tino79'
p835
sba(itravian_raidmap
raid
p836
(dp837
g6
I384
sg7
S'Romani'
p838
sg9
I0
sg10
I223
sg11
I3
sg12
g13
sg14
S'barbagianni'
p839
sba(itravian_raidmap
raid
p840
(dp841
g6
I1076
sg7
S'Romani'
p842
sg9
I0
sg10
I196
sg11
I-7
sg12
g13
sg14
S'King_Matty'
p843
sba(itravian_raidmap
raid
p844
(dp845
g6
I53
sg7
S'Romani'
p846
sg9
I0
sg10
I218
sg11
I92
sg12
g13
sg14
S'back8'
p847
sba(itravian_raidmap
raid
p848
(dp849
g6
I1139
sg7
S'Teutoni'
p850
sg9
I0
sg10
I245
sg11
I68
sg12
g13
sg14
S'ronzino'
p851
sba(itravian_raidmap
raid
p852
(dp853
g6
I267
sg7
S'Romani'
p854
sg9
I0
sg10
I197
sg11
I116
sg12
g13
sg14
S'pinoilcretino'
p855
sba(itravian_raidmap
raid
p856
(dp857
g6
I501
sg7
S'Romani'
p858
sg9
I0
sg10
I220
sg11
I7
sg12
g13
sg14
S'AndrewRed'
p859
sba(itravian_raidmap
raid
p860
(dp861
g6
I1139
sg7
S'Teutoni'
p862
sg9
I0
sg10
I246
sg11
I68
sg12
g13
sg14
S'ronzino'
p863
sba(itravian_raidmap
raid
p864
(dp865
g6
I720
sg7
S'Romani'
p866
sg9
I0
sg10
I177
sg11
I116
sg12
g13
sg14
S'lucathemonster'
p867
sba(itravian_raidmap
raid
p868
(dp869
g6
I545
sg7
S'Romani'
p870
sg9
I0
sg10
I218
sg11
I14
sg12
g13
sg14
S'usama'
p871
sba(itravian_raidmap
raid
p872
(dp873
g6
I672
sg7
S'Galli'
p874
sg9
I0
sg10
I173
sg11
I15
sg12
g13
sg14
S'silva_95'
p875
sba(itravian_raidmap
raid
p876
(dp877
g6
I222
sg7
S'Romani'
p878
sg9
I0
sg10
I225
sg11
I54
sg12
g13
sg14
S'devil.92'
p879
sba(itravian_raidmap
raid
p880
(dp881
g6
I1634
sg7
S'Teutoni'
p882
sg9
I0
sg10
I210
sg11
I109
sg12
g13
sg14
S'DEDO1958'
p883
sba(itravian_raidmap
raid
p884
(dp885
g6
I720
sg7
S'Romani'
p886
sg9
I0
sg10
I177
sg11
I118
sg12
g13
sg14
S'lucathemonster'
p887
sba(itravian_raidmap
raid
p888
(dp889
g6
I731
sg7
S'Galli'
p890
sg9
I0
sg10
I157
sg11
I71
sg12
g13
sg14
S'Jason x'
p891
sba(itravian_raidmap
raid
p892
(dp893
g6
I689
sg7
S'Galli'
p894
sg9
I0
sg10
I170
sg11
I37
sg12
g13
sg14
S'cinghio'
p895
sba(itravian_raidmap
raid
p896
(dp897
g6
I1347
sg7
S'Teutoni'
p898
sg9
I0
sg10
I246
sg11
I45
sg12
g13
sg14
S'fabiococco'
p899
sba(itravian_raidmap
raid
p900
(dp901
g6
I689
sg7
S'Galli'
p902
sg9
I0
sg10
I171
sg11
I37
sg12
g13
sg14
S'cinghio'
p903
sba(itravian_raidmap
raid
p904
(dp905
g6
I2888
sg7
S'Teutoni'
p906
sg9
I0
sg10
I189
sg11
I23
sg12
g13
sg14
S'gladys73'
p907
sba(itravian_raidmap
raid
p908
(dp909
g6
I2888
sg7
S'Teutoni'
p910
sg9
I0
sg10
I189
sg11
I24
sg12
g13
sg14
S'gladys73'
p911
sba(itravian_raidmap
raid
p912
(dp913
g6
I2662
sg7
S'Romani'
p914
sg9
I0
sg10
I124
sg11
I63
sg12
g13
sg14
S'NI!'
p915
sba(itravian_raidmap
raid
p916
(dp917
g6
I2888
sg7
S'Teutoni'
p918
sg9
I0
sg10
I189
sg11
I29
sg12
g13
sg14
S'gladys73'
p919
sba(itravian_raidmap
raid
p920
(dp921
g6
I731
sg7
S'Galli'
p922
sg9
I0
sg10
I160
sg11
I69
sg12
g13
sg14
S'Jason x'
p923
sba(itravian_raidmap
raid
p924
(dp925
g6
I398
sg7
S'Romani'
p926
sg9
I0
sg10
I200
sg11
I109
sg12
g13
sg14
S'ottaviano6'
p927
sba(itravian_raidmap
raid
p928
(dp929
g6
I3147
sg7
S'Teutoni'
p930
sg9
I0
sg10
I169
sg11
I67
sg12
g13
sg14
S'russorusso'
p931
sba(itravian_raidmap
raid
p932
(dp933
g6
I2662
sg7
S'Romani'
p934
sg9
I0
sg10
I125
sg11
I63
sg12
g13
sg14
S'NI!'
p935
sba(itravian_raidmap
raid
p936
(dp937
g6
I316
sg7
S'Romani'
p938
sg9
I0
sg10
I230
sg11
I26
sg12
g13
sg14
S'TuridduGiulianu'
p939
sba(itravian_raidmap
raid
p940
(dp941
g6
I1970
sg7
S'Teutoni'
p942
sg9
I0
sg10
I228
sg11
I11
sg12
g13
sg14
S'Kamirio'
p943
sba(itravian_raidmap
raid
p944
(dp945
g6
I969
sg7
S'Romani'
p946
sg9
I0
sg10
I201
sg11
I47
sg12
g13
sg14
S'lorenzo911'
p947
sba(itravian_raidmap
raid
p948
(dp949
g6
I2888
sg7
S'Teutoni'
p950
sg9
I0
sg10
I191
sg11
I28
sg12
g13
sg14
S'gladys73'
p951
sba(itravian_raidmap
raid
p952
(dp953
g6
I2888
sg7
S'Teutoni'
p954
sg9
I0
sg10
I192
sg11
I25
sg12
g13
sg14
S'gladys73'
p955
sba(itravian_raidmap
raid
p956
(dp957
g6
I2888
sg7
S'Teutoni'
p958
sg9
I0
sg10
I192
sg11
I26
sg12
g13
sg14
S'gladys73'
p959
sba(itravian_raidmap
raid
p960
(dp961
g6
I2888
sg7
S'Teutoni'
p962
sg9
I0
sg10
I190
sg11
I38
sg12
g13
sg14
S'gladys73'
p963
sba(itravian_raidmap
raid
p964
(dp965
g6
I1076
sg7
S'Romani'
p966
sg9
I0
sg10
I203
sg11
I-5
sg12
g13
sg14
S'King_Matty'
p967
sba(itravian_raidmap
raid
p968
(dp969
g6
I274
sg7
S'Galli'
p970
sg9
I0
sg10
I185
sg11
I57
sg12
g13
sg14
S'Milito95'
p971
sba(itravian_raidmap
raid
p972
(dp973
g6
I1172
sg7
S'Romani'
p974
sg9
I0
sg10
I200
sg11
I-2
sg12
g13
sg14
S'lenders92'
p975
sba(itravian_raidmap
raid
p976
(dp977
g6
I467
sg7
S'Romani'
p978
sg9
I0
sg10
I211
sg11
I85
sg12
g13
sg14
S'melalomu'
p979
sba(itravian_raidmap
raid
p980
(dp981
g6
I1320
sg7
S'Galli'
p982
sg9
I0
sg10
I129
sg11
I83
sg12
g13
sg14
S'roste'
p983
sba(itravian_raidmap
raid
p984
(dp985
g6
I755
sg7
S'Romani'
p986
sg9
I0
sg10
I199
sg11
I86
sg12
g13
sg14
S'BlackWolf90'
p987
sba(itravian_raidmap
raid
p988
(dp989
g6
I505
sg7
S'Romani'
p990
sg9
I0
sg10
I217
sg11
I65
sg12
g13
sg14
S'Lele65'
p991
sba(itravian_raidmap
raid
p992
(dp993
g6
I1172
sg7
S'Romani'
p994
sg9
I0
sg10
I201
sg11
I-2
sg12
g13
sg14
S'lenders92'
p995
sba(itravian_raidmap
raid
p996
(dp997
g6
I1320
sg7
S'Galli'
p998
sg9
I0
sg10
I130
sg11
I83
sg12
g13
sg14
S'roste'
p999
sba(itravian_raidmap
raid
p1000
(dp1001
g6
I631
sg7
S'Romani'
p1002
sg9
I0
sg10
I217
sg11
I49
sg12
g13
sg14
S'Cpt.Gaz96'
p1003
sba(itravian_raidmap
raid
p1004
(dp1005
g6
I1139
sg7
S'Teutoni'
p1006
sg9
I0
sg10
I255
sg11
I71
sg12
g13
sg14
S'ronzino'
p1007
sba(itravian_raidmap
raid
p1008
(dp1009
g6
I631
sg7
S'Romani'
p1010
sg9
I0
sg10
I217
sg11
I50
sg12
g13
sg14
S'Cpt.Gaz96'
p1011
sba(itravian_raidmap
raid
p1012
(dp1013
g6
I3036
sg7
S'Teutoni'
p1014
sg9
I0
sg10
I173
sg11
I81
sg12
g13
sg14
S'he-man'
p1015
sba(itravian_raidmap
raid
p1016
(dp1017
g6
I1634
sg7
S'Teutoni'
p1018
sg9
I0
sg10
I222
sg11
I105
sg12
g13
sg14
S'DEDO1958'
p1019
sba(itravian_raidmap
raid
p1020
(dp1021
g6
I841
sg7
S'Romani'
p1022
sg9
I0
sg10
I196
sg11
I88
sg12
g13
sg14
S'voyage'
p1023
sba(itravian_raidmap
raid
p1024
(dp1025
g6
I114
sg7
S'Galli'
p1026
sg9
I0
sg10
I179
sg11
I94
sg12
g13
sg14
S'framics'
p1027
sba(itravian_raidmap
raid
p1028
(dp1029
g6
I159
sg7
S'Romani'
p1030
sg9
I0
sg10
I240
sg11
I32
sg12
g13
sg14
S'sdipietro1'
p1031
sba(itravian_raidmap
raid
p1032
(dp1033
g6
I841
sg7
S'Romani'
p1034
sg9
I0
sg10
I197
sg11
I88
sg12
g13
sg14
S'voyage'
p1035
sba(itravian_raidmap
raid
p1036
(dp1037
g6
I1941
sg7
S'Teutoni'
p1038
sg9
I0
sg10
I235
sg11
I11
sg12
g13
sg14
S'.Leon\xc3\xacdas'
p1039
sba(itravian_raidmap
raid
p1040
(dp1041
g6
I270
sg7
S'Romani'
p1042
sg9
I0
sg10
I212
sg11
I109
sg12
g13
sg14
S'falco-arturo'
p1043
sba(itravian_raidmap
raid
p1044
(dp1045
g6
I2034
sg7
S'Romani'
p1046
sg9
I0
sg10
I141
sg11
I95
sg12
g13
sg14
S'maelis'
p1047
sba(itravian_raidmap
raid
p1048
(dp1049
g6
I1941
sg7
S'Teutoni'
p1050
sg9
I0
sg10
I236
sg11
I11
sg12
g13
sg14
S'.Leon\xc3\xacdas'
p1051
sba(itravian_raidmap
raid
p1052
(dp1053
g6
I147
sg7
S'Romani'
p1054
sg9
I0
sg10
I242
sg11
I31
sg12
g13
sg14
S'sese95'
p1055
sba(itravian_raidmap
raid
p1056
(dp1057
g6
I1601
sg7
S'Galli'
p1058
sg9
I0
sg10
I124
sg11
I77
sg12
g13
sg14
S'Blood_Daemon'
p1059
sba(itravian_raidmap
raid
p1060
(dp1061
g6
I237
sg7
S'Romani'
p1062
sg9
I0
sg10
I226
sg11
I83
sg12
g13
sg14
S'ld1981'
p1063
sba(itravian_raidmap
raid
p1064
(dp1065
g6
I145
sg7
S'Romani'
p1066
sg9
I0
sg10
I226
sg11
I94
sg12
g13
sg14
S'gladiator1046'
p1067
sba(itravian_raidmap
raid
p1068
(dp1069
g6
I550
sg7
S'Romani'
p1070
sg9
I0
sg10
I229
sg11
I5
sg12
g13
sg14
S'theaviator2'
p1071
sba(itravian_raidmap
raid
p1072
(dp1073
g6
I132
sg7
S'Romani'
p1074
sg9
I0
sg10
I218
sg11
I113
sg12
g13
sg14
S'star'
p1075
sba(itravian_raidmap
raid
p1076
(dp1077
g6
I1601
sg7
S'Galli'
p1078
sg9
I0
sg10
I125
sg11
I77
sg12
g13
sg14
S'Blood_Daemon'
p1079
sba(itravian_raidmap
raid
p1080
(dp1081
g6
I293
sg7
S'Romani'
p1082
sg9
I0
sg10
I231
sg11
I65
sg12
g13
sg14
S'giggio 182'
p1083
sba(itravian_raidmap
raid
p1084
(dp1085
g6
I3036
sg7
S'Teutoni'
p1086
sg9
I0
sg10
I175
sg11
I89
sg12
g13
sg14
S'he-man'
p1087
sba(itravian_raidmap
raid
p1088
(dp1089
g6
I3036
sg7
S'Teutoni'
p1090
sg9
I0
sg10
I176
sg11
I89
sg12
g13
sg14
S'he-man'
p1091
sba(itravian_raidmap
raid
p1092
(dp1093
g6
I1244
sg7
S'Romani'
p1094
sg9
I0
sg10
I202
sg11
I29
sg12
g13
sg14
S'Artes'
p1095
sba(itravian_raidmap
raid
p1096
(dp1097
g6
I1601
sg7
S'Galli'
p1098
sg9
I0
sg10
I126
sg11
I78
sg12
g13
sg14
S'Blood_Daemon'
p1099
sba(itravian_raidmap
raid
p1100
(dp1101
g6
I3035
sg7
S'Teutoni'
p1102
sg9
I0
sg10
I177
sg11
I88
sg12
g13
sg14
S'he-man'
p1103
sba(itravian_raidmap
raid
p1104
(dp1105
g6
I3035
sg7
S'Teutoni'
p1106
sg9
I0
sg10
I177
sg11
I89
sg12
g13
sg14
S'he-man'
p1107
sba(itravian_raidmap
raid
p1108
(dp1109
g6
I1244
sg7
S'Romani'
p1110
sg9
I0
sg10
I203
sg11
I28
sg12
g13
sg14
S'Artes'
p1111
sba(itravian_raidmap
raid
p1112
(dp1113
g6
I1244
sg7
S'Romani'
p1114
sg9
I0
sg10
I203
sg11
I29
sg12
g13
sg14
S'Artes'
p1115
sba(itravian_raidmap
raid
p1116
(dp1117
g6
I357
sg7
S'Romani'
p1118
sg9
I0
sg10
I212
sg11
I112
sg12
g13
sg14
S'chiccoibra8'
p1119
sba(itravian_raidmap
raid
p1120
(dp1121
g6
I1970
sg7
S'Teutoni'
p1122
sg9
I0
sg10
I240
sg11
I15
sg12
g13
sg14
S'Kamirio'
p1123
sba(itravian_raidmap
raid
p1124
(dp1125
g6
I1303
sg7
S'Romani'
p1126
sg9
I0
sg10
I184
sg11
I86
sg12
g13
sg14
S'nefer'
p1127
sba(itravian_raidmap
raid
p1128
(dp1129
g6
I59
sg7
S'Romani'
p1130
sg9
I0
sg10
I246
sg11
I53
sg12
g13
sg14
S'edu93'
p1131
sba(itravian_raidmap
raid
p1132
(dp1133
g6
I3035
sg7
S'Teutoni'
p1134
sg9
I0
sg10
I177
sg11
I92
sg12
g13
sg14
S'he-man'
p1135
sba(itravian_raidmap
raid
p1136
(dp1137
g6
I2360
sg7
S'Teutoni'
p1138
sg9
I0
sg10
I225
sg11
I19
sg12
g13
sg14
S'fabryolo'
p1139
sba(itravian_raidmap
raid
p1140
(dp1141
g6
I1894
sg7
S'Teutoni'
p1142
sg9
I0
sg10
I241
sg11
I38
sg12
g13
sg14
S'chandrica'
p1143
sba(itravian_raidmap
raid
p1144
(dp1145
g6
I1601
sg7
S'Galli'
p1146
sg9
I0
sg10
I125
sg11
I82
sg12
g13
sg14
S'Blood_Daemon'
p1147
sba(itravian_raidmap
raid
p1148
(dp1149
g6
I2360
sg7
S'Teutoni'
p1150
sg9
I0
sg10
I225
sg11
I20
sg12
g13
sg14
S'fabryolo'
p1151
sba(itravian_raidmap
raid
p1152
(dp1153
g6
I295
sg7
S'Romani'
p1154
sg9
I0
sg10
I240
sg11
I36
sg12
g13
sg14
S'MITTICO86'
p1155
sba(itravian_raidmap
raid
p1156
(dp1157
g6
I444
sg7
S'Romani'
p1158
sg9
I0
sg10
I234
sg11
I37
sg12
g13
sg14
S'debug'
p1159
sba(itravian_raidmap
raid
p1160
(dp1161
g6
I1303
sg7
S'Romani'
p1162
sg9
I0
sg10
I184
sg11
I87
sg12
g13
sg14
S'nefer'
p1163
sba(itravian_raidmap
raid
p1164
(dp1165
g6
I2034
sg7
S'Romani'
p1166
sg9
I0
sg10
I148
sg11
I94
sg12
g13
sg14
S'maelis'
p1167
sba(itravian_raidmap
raid
p1168
(dp1169
g6
I1970
sg7
S'Teutoni'
p1170
sg9
I0
sg10
I240
sg11
I28
sg12
g13
sg14
S'Kamirio'
p1171
sba(itravian_raidmap
raid
p1172
(dp1173
g6
I361
sg7
S'Romani'
p1174
sg9
I0
sg10
I224
sg11
I88
sg12
g13
sg14
S'murigno'
p1175
sba(itravian_raidmap
raid
p1176
(dp1177
g6
I1894
sg7
S'Teutoni'
p1178
sg9
I0
sg10
I242
sg11
I38
sg12
g13
sg14
S'chandrica'
p1179
sba(itravian_raidmap
raid
p1180
(dp1181
g6
I3035
sg7
S'Teutoni'
p1182
sg9
I0
sg10
I180
sg11
I89
sg12
g13
sg14
S'he-man'
p1183
sba(itravian_raidmap
raid
p1184
(dp1185
g6
I73
sg7
S'Romani'
p1186
sg9
I0
sg10
I235
sg11
I92
sg12
g13
sg14
S'Ale_6'
p1187
sba(itravian_raidmap
raid
p1188
(dp1189
g6
I1894
sg7
S'Teutoni'
p1190
sg9
I0
sg10
I243
sg11
I38
sg12
g13
sg14
S'chandrica'
p1191
sba(itravian_raidmap
raid
p1192
(dp1193
g6
I1894
sg7
S'Teutoni'
p1194
sg9
I0
sg10
I243
sg11
I39
sg12
g13
sg14
S'chandrica'
p1195
sba(itravian_raidmap
raid
p1196
(dp1197
g6
I559
sg7
S'Romani'
p1198
sg9
I0
sg10
I218
sg11
I88
sg12
g13
sg14
S'Nakan'
p1199
sba(itravian_raidmap
raid
p1200
(dp1201
g6
I559
sg7
S'Romani'
p1202
sg9
I0
sg10
I218
sg11
I89
sg12
g13
sg14
S'Nakan'
p1203
sba(itravian_raidmap
raid
p1204
(dp1205
g6
I2762
sg7
S'Romani'
p1206
sg9
I0
sg10
I140
sg11
I54
sg12
g13
sg14
S'mimmopx'
p1207
sba(itravian_raidmap
raid
p1208
(dp1209
g6
I295
sg7
S'Romani'
p1210
sg9
I0
sg10
I238
sg11
I64
sg12
g13
sg14
S'morris1208'
p1211
sba(itravian_raidmap
raid
p1212
(dp1213
g6
I1207
sg7
S'Romani'
p1214
sg9
I0
sg10
I207
sg11
I41
sg12
g13
sg14
S'gilberto'
p1215
sba(itravian_raidmap
raid
p1216
(dp1217
g6
I111
sg7
S'Romani'
p1218
sg9
I0
sg10
I236
sg11
I93
sg12
g13
sg14
S'happyflyer'
p1219
sba(itravian_raidmap
raid
p1220
(dp1221
g6
I2762
sg7
S'Romani'
p1222
sg9
I0
sg10
I141
sg11
I53
sg12
g13
sg14
S'mimmopx'
p1223
sba(itravian_raidmap
raid
p1224
(dp1225
g6
I2259
sg7
S'Teutoni'
p1226
sg9
I0
sg10
I205
sg11
I115
sg12
g13
sg14
S'sdody'
p1227
sba(itravian_raidmap
raid
p1228
(dp1229
g6
I3017
sg7
S'Romani'
p1230
sg9
I0
sg10
I133
sg11
I47
sg12
g13
sg14
S'ce.se.re'
p1231
sba(itravian_raidmap
raid
p1232
(dp1233
g6
I2762
sg7
S'Romani'
p1234
sg9
I0
sg10
I141
sg11
I54
sg12
g13
sg14
S'mimmopx'
p1235
sba(itravian_raidmap
raid
p1236
(dp1237
g6
I354
sg7
S'Romani'
p1238
sg9
I0
sg10
I243
sg11
I29
sg12
g13
sg14
S'pilo1289'
p1239
sba(itravian_raidmap
raid
p1240
(dp1241
g6
I2208
sg7
S'Romani'
p1242
sg9
I0
sg10
I170
sg11
I30
sg12
g13
sg14
S'peiozz'
p1243
sba(itravian_raidmap
raid
p1244
(dp1245
g6
I4245
sg7
S'Teutoni'
p1246
sg9
I0
sg10
I130
sg11
I90
sg12
g13
sg14
S'bailyss'
p1247
sba(itravian_raidmap
raid
p1248
(dp1249
g6
I631
sg7
S'Romani'
p1250
sg9
I0
sg10
I233
sg11
I24
sg12
g13
sg14
S'Gio95'
p1251
sba(itravian_raidmap
raid
p1252
(dp1253
g6
I289
sg7
S'Galli'
p1254
sg9
I0
sg10
I204
sg11
I14
sg12
g13
sg14
S'Chiappe'
p1255
sba(itravian_raidmap
raid
p1256
(dp1257
g6
I2762
sg7
S'Romani'
p1258
sg9
I0
sg10
I142
sg11
I53
sg12
g13
sg14
S'mimmopx'
p1259
sba(itravian_raidmap
raid
p1260
(dp1261
g6
I4245
sg7
S'Teutoni'
p1262
sg9
I0
sg10
I130
sg11
I91
sg12
g13
sg14
S'bailyss'
p1263
sba(itravian_raidmap
raid
p1264
(dp1265
g6
I2259
sg7
S'Teutoni'
p1266
sg9
I0
sg10
I206
sg11
I115
sg12
g13
sg14
S'sdody'
p1267
sba(itravian_raidmap
raid
p1268
(dp1269
g6
I4301
sg7
S'Teutoni'
p1270
sg9
I0
sg10
I153
sg11
I35
sg12
g13
sg14
S'sundio'
p1271
sba(itravian_raidmap
raid
p1272
(dp1273
g6
I22
sg7
S'Romani'
p1274
sg9
I0
sg10
I248
sg11
I73
sg12
g13
sg14
S'angelo andrea'
p1275
sba(itravian_raidmap
raid
p1276
(dp1277
g6
I1072
sg7
S'Romani'
p1278
sg9
I0
sg10
I196
sg11
I95
sg12
g13
sg14
S'oasi'
p1279
sba(itravian_raidmap
raid
p1280
(dp1281
g6
I4301
sg7
S'Teutoni'
p1282
sg9
I0
sg10
I153
sg11
I36
sg12
g13
sg14
S'sundio'
p1283
sba(itravian_raidmap
raid
p1284
(dp1285
g6
I631
sg7
S'Romani'
p1286
sg9
I0
sg10
I234
sg11
I24
sg12
g13
sg14
S'Gio95'
p1287
sba(itravian_raidmap
raid
p1288
(dp1289
g6
I2762
sg7
S'Romani'
p1290
sg9
I0
sg10
I143
sg11
I53
sg12
g13
sg14
S'mimmopx'
p1291
sba(itravian_raidmap
raid
p1292
(dp1293
g6
I314
sg7
S'Galli'
p1294
sg9
I0
sg10
I201
sg11
I38
sg12
g13
sg14
S'pracca'
p1295
sba(itravian_raidmap
raid
p1296
(dp1297
g6
I4301
sg7
S'Teutoni'
p1298
sg9
I0
sg10
I154
sg11
I35
sg12
g13
sg14
S'sundio'
p1299
sba(itravian_raidmap
raid
p1300
(dp1301
g6
I4301
sg7
S'Teutoni'
p1302
sg9
I0
sg10
I154
sg11
I36
sg12
g13
sg14
S'sundio'
p1303
sba(itravian_raidmap
raid
p1304
(dp1305
g6
I2259
sg7
S'Teutoni'
p1306
sg9
I0
sg10
I209
sg11
I113
sg12
g13
sg14
S'sdody'
p1307
sba(itravian_raidmap
raid
p1308
(dp1309
g6
I285
sg7
S'Romani'
p1310
sg9
I0
sg10
I237
sg11
I78
sg12
g13
sg14
S'Cpra Tibetana'
p1311
sba(itravian_raidmap
raid
p1312
(dp1313
g6
I4301
sg7
S'Teutoni'
p1314
sg9
I0
sg10
I155
sg11
I34
sg12
g13
sg14
S'sundio'
p1315
sba(itravian_raidmap
raid
p1316
(dp1317
g6
I841
sg7
S'Romani'
p1318
sg9
I0
sg10
I227
sg11
I23
sg12
g13
sg14
S'Maid_Marian'
p1319
sba(itravian_raidmap
raid
p1320
(dp1321
g6
I4301
sg7
S'Teutoni'
p1322
sg9
I0
sg10
I155
sg11
I35
sg12
g13
sg14
S'sundio'
p1323
sba(itravian_raidmap
raid
p1324
(dp1325
g6
I1323
sg7
S'Romani'
p1326
sg9
I0
sg10
I209
sg11
I16
sg12
g13
sg14
S'I GIOVA'
p1327
sba(itravian_raidmap
raid
p1328
(dp1329
g6
I3983
sg7
S'Teutoni'
p1330
sg9
I0
sg10
I169
sg11
I29
sg12
g13
sg14
S'narcio24'
p1331
sba(itravian_raidmap
raid
p1332
(dp1333
g6
I4301
sg7
S'Teutoni'
p1334
sg9
I0
sg10
I155
sg11
I36
sg12
g13
sg14
S'sundio'
p1335
sba(itravian_raidmap
raid
p1336
(dp1337
g6
I327
sg7
S'Galli'
p1338
sg9
I0
sg10
I204
sg11
I22
sg12
g13
sg14
S'Fabrizio1970'
p1339
sba(itravian_raidmap
raid
p1340
(dp1341
g6
I3017
sg7
S'Romani'
p1342
sg9
I0
sg10
I135
sg11
I51
sg12
g13
sg14
S'ce.se.re'
p1343
sba(itravian_raidmap
raid
p1344
(dp1345
g6
I4301
sg7
S'Teutoni'
p1346
sg9
I0
sg10
I156
sg11
I35
sg12
g13
sg14
S'sundio'
p1347
sba(itravian_raidmap
raid
p1348
(dp1349
g6
I1323
sg7
S'Romani'
p1350
sg9
I0
sg10
I210
sg11
I16
sg12
g13
sg14
S'I GIOVA'
p1351
sba(itravian_raidmap
raid
p1352
(dp1353
g6
I470
sg7
S'Romani'
p1354
sg9
I0
sg10
I243
sg11
I21
sg12
g13
sg14
S'sampey'
p1355
sba(itravian_raidmap
raid
p1356
(dp1357
g6
I4361
sg7
S'Teutoni'
p1358
sg9
I0
sg10
I157
sg11
I19
sg12
g13
sg14
S'SNICH'
p1359
sba(itravian_raidmap
raid
p1360
(dp1361
g6
I3017
sg7
S'Romani'
p1362
sg9
I0
sg10
I135
sg11
I53
sg12
g13
sg14
S'ce.se.re'
p1363
sba(itravian_raidmap
raid
p1364
(dp1365
g6
I3983
sg7
S'Teutoni'
p1366
sg9
I0
sg10
I170
sg11
I35
sg12
g13
sg14
S'narcio24'
p1367
sba(itravian_raidmap
raid
p1368
(dp1369
g6
I3017
sg7
S'Romani'
p1370
sg9
I0
sg10
I136
sg11
I52
sg12
g13
sg14
S'ce.se.re'
p1371
sba(itravian_raidmap
raid
p1372
(dp1373
g6
I565
sg7
S'Galli'
p1374
sg9
I0
sg10
I177
sg11
I87
sg12
g13
sg14
S'Cinghialot'
p1375
sba(itravian_raidmap
raid
p1376
(dp1377
g6
I4361
sg7
S'Teutoni'
p1378
sg9
I0
sg10
I158
sg11
I20
sg12
g13
sg14
S'SNICH'
p1379
sba(itravian_raidmap
raid
p1380
(dp1381
g6
I2594
sg7
S'Romani'
p1382
sg9
I0
sg10
I140
sg11
I82
sg12
g13
sg14
S'dmx'
p1383
sba(itravian_raidmap
raid
p1384
(dp1385
g6
I4361
sg7
S'Teutoni'
p1386
sg9
I0
sg10
I158
sg11
I21
sg12
g13
sg14
S'SNICH'
p1387
sba(itravian_raidmap
raid
p1388
(dp1389
g6
I2594
sg7
S'Romani'
p1390
sg9
I0
sg10
I141
sg11
I81
sg12
g13
sg14
S'dmx'
p1391
sba(itravian_raidmap
raid
p1392
(dp1393
g6
I3017
sg7
S'Romani'
p1394
sg9
I0
sg10
I137
sg11
I51
sg12
g13
sg14
S'ce.se.re'
p1395
sba(itravian_raidmap
raid
p1396
(dp1397
g6
I508
sg7
S'Romani'
p1398
sg9
I0
sg10
I240
sg11
I43
sg12
g13
sg14
S'inbarazzovallei'
p1399
sba(itravian_raidmap
raid
p1400
(dp1401
g6
I722
sg7
S'Romani'
p1402
sg9
I0
sg10
I235
sg11
I16
sg12
g13
sg14
S'luc.a'
p1403
sba(itravian_raidmap
raid
p1404
(dp1405
g6
I2594
sg7
S'Romani'
p1406
sg9
I0
sg10
I140
sg11
I83
sg12
g13
sg14
S'dmx'
p1407
sba(itravian_raidmap
raid
p1408
(dp1409
g6
I831
sg7
S'Romani'
p1410
sg9
I0
sg10
I231
sg11
I13
sg12
g13
sg14
S'jonnu ramones'
p1411
sba(itravian_raidmap
raid
p1412
(dp1413
g6
I2594
sg7
S'Romani'
p1414
sg9
I0
sg10
I141
sg11
I82
sg12
g13
sg14
S'dmx'
p1415
sba(itravian_raidmap
raid
p1416
(dp1417
g6
I1801
sg7
S'Romani'
p1418
sg9
I0
sg10
I191
sg11
I34
sg12
g13
sg14
S'Schicchi'
p1419
sba(itravian_raidmap
raid
p1420
(dp1421
g6
I4358
sg7
S'Teutoni'
p1422
sg9
I0
sg10
I159
sg11
I23
sg12
g13
sg14
S'SNICH'
p1423
sba(itravian_raidmap
raid
p1424
(dp1425
g6
I332
sg7
S'Romani'
p1426
sg9
I0
sg10
I245
sg11
I56
sg12
g13
sg14
S'Giusypoldina'
p1427
sba(itravian_raidmap
raid
p1428
(dp1429
g6
I168
sg7
S'Galli'
p1430
sg9
I0
sg10
I206
sg11
I57
sg12
g13
sg14
S'LOVE 5'
p1431
sba(itravian_raidmap
raid
p1432
(dp1433
g6
I2594
sg7
S'Romani'
p1434
sg9
I0
sg10
I142
sg11
I81
sg12
g13
sg14
S'dmx'
p1435
sba(itravian_raidmap
raid
p1436
(dp1437
g6
I2259
sg7
S'Teutoni'
p1438
sg9
I0
sg10
I211
sg11
I120
sg12
g13
sg14
S'sdody'
p1439
sba(itravian_raidmap
raid
p1440
(dp1441
g6
I2259
sg7
S'Teutoni'
p1442
sg9
I0
sg10
I210
sg11
I122
sg12
g13
sg14
S'sdody'
p1443
sba(itravian_raidmap
raid
p1444
(dp1445
g6
I722
sg7
S'Romani'
p1446
sg9
I0
sg10
I236
sg11
I16
sg12
g13
sg14
S'luc.a'
p1447
sba(itravian_raidmap
raid
p1448
(dp1449
g6
I3105
sg7
S'Romani'
p1450
sg9
I0
sg10
I120
sg11
I80
sg12
g13
sg14
S'Claudio X'
p1451
sba(itravian_raidmap
raid
p1452
(dp1453
g6
I1323
sg7
S'Romani'
p1454
sg9
I0
sg10
I213
sg11
I15
sg12
g13
sg14
S'I GIOVA'
p1455
sba(itravian_raidmap
raid
p1456
(dp1457
g6
I407
sg7
S'Romani'
p1458
sg9
I0
sg10
I237
sg11
I77
sg12
g13
sg14
S'giuser'
p1459
sba(itravian_raidmap
raid
p1460
(dp1461
g6
I731
sg7
S'Galli'
p1462
sg9
I0
sg10
I180
sg11
I69
sg12
g13
sg14
S'franico'
p1463
sba(itravian_raidmap
raid
p1464
(dp1465
g6
I584
sg7
S'Galli'
p1466
sg9
I0
sg10
I186
sg11
I70
sg12
g13
sg14
S'Dark-redfox'
p1467
sba(itravian_raidmap
raid
p1468
(dp1469
g6
I259
sg7
S'Romani'
p1470
sg9
I0
sg10
I254
sg11
I32
sg12
g13
sg14
S'ClaudiusCaesar'
p1471
sba(itravian_raidmap
raid
p1472
(dp1473
g6
I731
sg7
S'Galli'
p1474
sg9
I0
sg10
I181
sg11
I69
sg12
g13
sg14
S'franico'
p1475
sba(itravian_raidmap
raid
p1476
(dp1477
g6
I400
sg7
S'Romani'
p1478
sg9
I0
sg10
I233
sg11
I94
sg12
g13
sg14
S'super belluc'
p1479
sba(itravian_raidmap
raid
p1480
(dp1481
g6
I405
sg7
S'Romani'
p1482
sg9
I0
sg10
I250
sg11
I23
sg12
g13
sg14
S'Leonida94'
p1483
sba(itravian_raidmap
raid
p1484
(dp1485
g6
I318
sg7
S'Romani'
p1486
sg9
I0
sg10
I241
sg11
I82
sg12
g13
sg14
S'Memento mori'
p1487
sba(itravian_raidmap
raid
p1488
(dp1489
g6
I259
sg7
S'Romani'
p1490
sg9
I0
sg10
I256
sg11
I28
sg12
g13
sg14
S'ClaudiusCaesar'
p1491
sba(itravian_raidmap
raid
p1492
(dp1493
g6
I731
sg7
S'Galli'
p1494
sg9
I0
sg10
I182
sg11
I69
sg12
g13
sg14
S'franico'
p1495
sba(itravian_raidmap
raid
p1496
(dp1497
g6
I5122
sg7
S'Teutoni'
p1498
sg9
I0
sg10
I120
sg11
I63
sg12
g13
sg14
S'Noyz'
p1499
sba(itravian_raidmap
raid
p1500
(dp1501
g6
I3983
sg7
S'Teutoni'
p1502
sg9
I0
sg10
I178
sg11
I26
sg12
g13
sg14
S'narcio24'
p1503
sba(itravian_raidmap
raid
p1504
(dp1505
g6
I3410
sg7
S'Teutoni'
p1506
sg9
I0
sg10
I194
sg11
I58
sg12
g13
sg14
S'seem_it'
p1507
sba(itravian_raidmap
raid
p1508
(dp1509
g6
I3611
sg7
S'Romani'
p1510
sg9
I0
sg10
I114
sg11
I58
sg12
g13
sg14
S'ciappa'
p1511
sba(itravian_raidmap
raid
p1512
(dp1513
g6
I307
sg7
S'Romani'
p1514
sg9
I0
sg10
I244
sg11
I79
sg12
g13
sg14
S'Priscilla'
p1515
sba(itravian_raidmap
raid
p1516
(dp1517
g6
I463
sg7
S'Romani'
p1518
sg9
I0
sg10
I238
sg11
I78
sg12
g13
sg14
S'cris'
p1519
sba(itravian_raidmap
raid
p1520
(dp1521
g6
I5122
sg7
S'Teutoni'
p1522
sg9
I0
sg10
I121
sg11
I63
sg12
g13
sg14
S'Noyz'
p1523
sba(itravian_raidmap
raid
p1524
(dp1525
g6
I635
sg7
S'Romani'
p1526
sg9
I0
sg10
I221
sg11
I103
sg12
g13
sg14
S'ALE1993'
p1527
sba(itravian_raidmap
raid
p1528
(dp1529
g6
I263
sg7
S'Romani'
p1530
sg9
I0
sg10
I246
sg11
I79
sg12
g13
sg14
S'ste97'
p1531
sba(itravian_raidmap
raid
p1532
(dp1533
g6
I672
sg7
S'Romani'
p1534
sg9
I0
sg10
I220
sg11
I102
sg12
g13
sg14
S'Lupicino'
p1535
sba(itravian_raidmap
raid
p1536
(dp1537
g6
I857
sg7
S'Romani'
p1538
sg9
I0
sg10
I234
sg11
I25
sg12
g13
sg14
S'Michael4ever'
p1539
sba(itravian_raidmap
raid
p1540
(dp1541
g6
I272
sg7
S'Romani'
p1542
sg9
I0
sg10
I256
sg11
I34
sg12
g13
sg14
S'ervin'
p1543
sba(itravian_raidmap
raid
p1544
(dp1545
g6
I920
sg7
S'Romani'
p1546
sg9
I0
sg10
I206
sg11
I109
sg12
g13
sg14
S'martocchia'
p1547
sba(itravian_raidmap
raid
p1548
(dp1549
g6
I248
sg7
S'Romani'
p1550
sg9
I0
sg10
I251
sg11
I65
sg12
g13
sg14
S'nik.vr'
p1551
sba(itravian_raidmap
raid
p1552
(dp1553
g6
I1274
sg7
S'Romani'
p1554
sg9
I0
sg10
I206
sg11
I76
sg12
g13
sg14
S'tigredioro'
p1555
sba(itravian_raidmap
raid
p1556
(dp1557
g6
I727
sg7
S'Galli'
p1558
sg9
I0
sg10
I196
sg11
I-5
sg12
g13
sg14
S'iberico'
p1559
sba(itravian_raidmap
raid
p1560
(dp1561
g6
I727
sg7
S'Galli'
p1562
sg9
I0
sg10
I196
sg11
I-6
sg12
g13
sg14
S'iberico'
p1563
sba(itravian_raidmap
raid
p1564
(dp1565
g6
I683
sg7
S'Romani'
p1566
sg9
I0
sg10
I230
sg11
I78
sg12
g13
sg14
S'dagobert'
p1567
sba(itravian_raidmap
raid
p1568
(dp1569
g6
I635
sg7
S'Romani'
p1570
sg9
I0
sg10
I225
sg11
I97
sg12
g13
sg14
S'ALE1993'
p1571
sba(itravian_raidmap
raid
p1572
(dp1573
g6
I3410
sg7
S'Teutoni'
p1574
sg9
I0
sg10
I195
sg11
I62
sg12
g13
sg14
S'seem_it'
p1575
sba(itravian_raidmap
raid
p1576
(dp1577
g6
I3410
sg7
S'Teutoni'
p1578
sg9
I0
sg10
I195
sg11
I63
sg12
g13
sg14
S'seem_it'
p1579
sba(itravian_raidmap
raid
p1580
(dp1581
g6
I3410
sg7
S'Teutoni'
p1582
sg9
I0
sg10
I197
sg11
I57
sg12
g13
sg14
S'seem_it'
p1583
sba(itravian_raidmap
raid
p1584
(dp1585
g6
I2407
sg7
S'Romani'
p1586
sg9
I0
sg10
I160
sg11
I75
sg12
g13
sg14
S'danyontheroad'
p1587
sba(itravian_raidmap
raid
p1588
(dp1589
g6
I683
sg7
S'Romani'
p1590
sg9
I0
sg10
I231
sg11
I78
sg12
g13
sg14
S'dagobert'
p1591
sba(itravian_raidmap
raid
p1592
(dp1593
g6
I3410
sg7
S'Teutoni'
p1594
sg9
I0
sg10
I197
sg11
I58
sg12
g13
sg14
S'seem_it'
p1595
sba(itravian_raidmap
raid
p1596
(dp1597
g6
I676
sg7
S'Romani'
p1598
sg9
I0
sg10
I221
sg11
I105
sg12
g13
sg14
S'angels'
p1599
sba(itravian_raidmap
raid
p1600
(dp1601
g6
I572
sg7
S'Romani'
p1602
sg9
I0
sg10
I234
sg11
I85
sg12
g13
sg14
S'orebilacnip'
p1603
sba(itravian_raidmap
raid
p1604
(dp1605
g6
I484
sg7
S'Romani'
p1606
sg9
I0
sg10
I247
sg11
I54
sg12
g13
sg14
S'Stardel'
p1607
sba(itravian_raidmap
raid
p1608
(dp1609
g6
I5122
sg7
S'Teutoni'
p1610
sg9
I0
sg10
I124
sg11
I66
sg12
g13
sg14
S'Noyz'
p1611
sba(itravian_raidmap
raid
p1612
(dp1613
g6
I798
sg7
S'Romani'
p1614
sg9
I0
sg10
I212
sg11
I114
sg12
g13
sg14
S'robyriccio'
p1615
sba(itravian_raidmap
raid
p1616
(dp1617
g6
I635
sg7
S'Romani'
p1618
sg9
I0
sg10
I232
sg11
I85
sg12
g13
sg14
S'Snakerob'
p1619
sba(itravian_raidmap
raid
p1620
(dp1621
g6
I572
sg7
S'Romani'
p1622
sg9
I0
sg10
I235
sg11
I84
sg12
g13
sg14
S'orebilacnip'
p1623
sba(itravian_raidmap
raid
p1624
(dp1625
g6
I1801
sg7
S'Romani'
p1626
sg9
I0
sg10
I198
sg11
I40
sg12
g13
sg14
S'Schicchi'
p1627
sba(itravian_raidmap
raid
p1628
(dp1629
g6
I798
sg7
S'Romani'
p1630
sg9
I0
sg10
I212
sg11
I115
sg12
g13
sg14
S'robyriccio'
p1631
sba(itravian_raidmap
raid
p1632
(dp1633
g6
I635
sg7
S'Romani'
p1634
sg9
I0
sg10
I233
sg11
I84
sg12
g13
sg14
S'Snakerob'
p1635
sba(itravian_raidmap
raid
p1636
(dp1637
g6
I402
sg7
S'Romani'
p1638
sg9
I0
sg10
I249
sg11
I64
sg12
g13
sg14
S'lem210572'
p1639
sba(itravian_raidmap
raid
p1640
(dp1641
g6
I3017
sg7
S'Teutoni'
p1642
sg9
I0
sg10
I210
sg11
I77
sg12
g13
sg14
S'arin'
p1643
sba(itravian_raidmap
raid
p1644
(dp1645
g6
I1801
sg7
S'Romani'
p1646
sg9
I0
sg10
I199
sg11
I39
sg12
g13
sg14
S'Schicchi'
p1647
sba(itravian_raidmap
raid
p1648
(dp1649
g6
I526
sg7
S'Romani'
p1650
sg9
I0
sg10
I237
sg11
I87
sg12
g13
sg14
S'shaunwhite'
p1651
sba(itravian_raidmap
raid
p1652
(dp1653
g6
I2622
sg7
S'Romani'
p1654
sg9
I0
sg10
I146
sg11
I89
sg12
g13
sg14
S'EmyTheGoddess'
p1655
sba(itravian_raidmap
raid
p1656
(dp1657
g6
I360
sg7
S'Galli'
p1658
sg9
I0
sg10
I206
sg11
I56
sg12
g13
sg14
S'Formica Atomica'
p1659
sba(itravian_raidmap
raid
p1660
(dp1661
g6
I1801
sg7
S'Romani'
p1662
sg9
I0
sg10
I199
sg11
I40
sg12
g13
sg14
S'Schicchi'
p1663
sba(itravian_raidmap
raid
p1664
(dp1665
g6
I118
sg7
S'Galli'
p1666
sg9
I0
sg10
I215
sg11
I59
sg12
g13
sg14
S'el bres\xc3\xa0'
p1667
sba(itravian_raidmap
raid
p1668
(dp1669
g6
I2622
sg7
S'Romani'
p1670
sg9
I0
sg10
I145
sg11
I91
sg12
g13
sg14
S'EmyTheGoddess'
p1671
sba(itravian_raidmap
raid
p1672
(dp1673
g6
I526
sg7
S'Romani'
p1674
sg9
I0
sg10
I235
sg11
I93
sg12
g13
sg14
S'shaunwhite'
p1675
sba(itravian_raidmap
raid
p1676
(dp1677
g6
I920
sg7
S'Romani'
p1678
sg9
I0
sg10
I210
sg11
I111
sg12
g13
sg14
S'martocchia'
p1679
sba(itravian_raidmap
raid
p1680
(dp1681
g6
I5122
sg7
S'Teutoni'
p1682
sg9
I0
sg10
I126
sg11
I67
sg12
g13
sg14
S'Noyz'
p1683
sba(itravian_raidmap
raid
p1684
(dp1685
g6
I3410
sg7
S'Teutoni'
p1686
sg9
I0
sg10
I200
sg11
I62
sg12
g13
sg14
S'seem_it'
p1687
sba(itravian_raidmap
raid
p1688
(dp1689
g6
I925
sg7
S'Romani'
p1690
sg9
I0
sg10
I220
sg11
I90
sg12
g13
sg14
S'wizard'
p1691
sba(itravian_raidmap
raid
p1692
(dp1693
g6
I5122
sg7
S'Teutoni'
p1694
sg9
I0
sg10
I127
sg11
I66
sg12
g13
sg14
S'Noyz'
p1695
sba(itravian_raidmap
raid
p1696
(dp1697
g6
I5122
sg7
S'Teutoni'
p1698
sg9
I0
sg10
I126
sg11
I68
sg12
g13
sg14
S'Noyz'
p1699
sba(itravian_raidmap
raid
p1700
(dp1701
g6
I1265
sg7
S'Galli'
p1702
sg9
I0
sg10
I171
sg11
I54
sg12
g13
sg14
S'er meio'
p1703
sba(itravian_raidmap
raid
p1704
(dp1705
g6
I266
sg7
S'Romani'
p1706
sg9
I0
sg10
I254
sg11
I72
sg12
g13
sg14
S'Innuendo'
p1707
sba(itravian_raidmap
raid
p1708
(dp1709
g6
I577
sg7
S'Romani'
p1710
sg9
I0
sg10
I231
sg11
I101
sg12
g13
sg14
S'tommasino90'
p1711
sba(itravian_raidmap
raid
p1712
(dp1713
g6
I5122
sg7
S'Teutoni'
p1714
sg9
I0
sg10
I128
sg11
I66
sg12
g13
sg14
S'Noyz'
p1715
sba(itravian_raidmap
raid
p1716
(dp1717
g6
I5122
sg7
S'Teutoni'
p1718
sg9
I0
sg10
I127
sg11
I68
sg12
g13
sg14
S'Noyz'
p1719
sba(itravian_raidmap
raid
p1720
(dp1721
g6
I5122
sg7
S'Teutoni'
p1722
sg9
I0
sg10
I128
sg11
I67
sg12
g13
sg14
S'Noyz'
p1723
sba(itravian_raidmap
raid
p1724
(dp1725
g6
I1265
sg7
S'Galli'
p1726
sg9
I0
sg10
I172
sg11
I53
sg12
g13
sg14
S'er meio'
p1727
sba(itravian_raidmap
raid
p1728
(dp1729
g6
I1020
sg7
S'Romani'
p1730
sg9
I0
sg10
I232
sg11
I41
sg12
g13
sg14
S'pepus'
p1731
sba(itravian_raidmap
raid
p1732
(dp1733
g6
I5122
sg7
S'Teutoni'
p1734
sg9
I0
sg10
I128
sg11
I68
sg12
g13
sg14
S'Noyz'
p1735
sba(itravian_raidmap
raid
p1736
(dp1737
g6
I1265
sg7
S'Galli'
p1738
sg9
I0
sg10
I172
sg11
I54
sg12
g13
sg14
S'er meio'
p1739
sba(itravian_raidmap
raid
p1740
(dp1741
g6
I1020
sg7
S'Romani'
p1742
sg9
I0
sg10
I232
sg11
I42
sg12
g13
sg14
S'pepus'
p1743
sba(itravian_raidmap
raid
p1744
(dp1745
g6
I875
sg7
S'Galli'
p1746
sg9
I0
sg10
I192
sg11
I37
sg12
g13
sg14
S'igor79'
p1747
sba(itravian_raidmap
raid
p1748
(dp1749
g6
I3770
sg7
S'Teutoni'
p1750
sg9
I0
sg10
I183
sg11
I76
sg12
g13
sg14
S'pozzani'
p1751
sba(itravian_raidmap
raid
p1752
(dp1753
g6
I156
sg7
S'Galli'
p1754
sg9
I0
sg10
I216
sg11
I60
sg12
g13
sg14
S'leonard97'
p1755
sba(itravian_raidmap
raid
p1756
(dp1757
g6
I1020
sg7
S'Romani'
p1758
sg9
I0
sg10
I233
sg11
I42
sg12
g13
sg14
S'pepus'
p1759
sba(itravian_raidmap
raid
p1760
(dp1761
g6
I2520
sg7
S'Teutoni'
p1762
sg9
I0
sg10
I224
sg11
I106
sg12
g13
sg14
S'vanniii'
p1763
sba(itravian_raidmap
raid
p1764
(dp1765
g6
I3770
sg7
S'Teutoni'
p1766
sg9
I0
sg10
I185
sg11
I74
sg12
g13
sg14
S'pozzani'
p1767
sba(itravian_raidmap
raid
p1768
(dp1769
g6
I325
sg7
S'Romani'
p1770
sg9
I0
sg10
I254
sg11
I73
sg12
g13
sg14
S'scacco92'
p1771
sba(itravian_raidmap
raid
p1772
(dp1773
g6
I2520
sg7
S'Teutoni'
p1774
sg9
I0
sg10
I224
sg11
I107
sg12
g13
sg14
S'vanniii'
p1775
sba(itravian_raidmap
raid
p1776
(dp1777
g6
I5122
sg7
S'Teutoni'
p1778
sg9
I0
sg10
I128
sg11
I73
sg12
g13
sg14
S'Noyz'
p1779
sba(itravian_raidmap
raid
p1780
(dp1781
g6
I1223
sg7
S'Romani'
p1782
sg9
I0
sg10
I229
sg11
I20
sg12
g13
sg14
S'silviasi'
p1783
sba(itravian_raidmap
raid
p1784
(dp1785
g6
I1371
sg7
S'Romani'
p1786
sg9
I0
sg10
I223
sg11
I23
sg12
g13
sg14
S'Lo Zoppo'
p1787
sba(itravian_raidmap
raid
p1788
(dp1789
g6
I2995
sg7
S'Romani'
p1790
sg9
I0
sg10
I138
sg11
I83
sg12
g13
sg14
S'Marcus Pyrus'
p1791
sba(itravian_raidmap
raid
p1792
(dp1793
g6
I1223
sg7
S'Romani'
p1794
sg9
I0
sg10
I229
sg11
I21
sg12
g13
sg14
S'silviasi'
p1795
sba(itravian_raidmap
raid
p1796
(dp1797
g6
I122
sg7
S'Galli'
p1798
sg9
I0
sg10
I200
sg11
I107
sg12
g13
sg14
S'alc'
p1799
sba(itravian_raidmap
raid
p1800
(dp1801
g6
I446
sg7
S'Romani'
p1802
sg9
I0
sg10
I258
sg11
I37
sg12
g13
sg14
S'Gabi'
p1803
sba(itravian_raidmap
raid
p1804
(dp1805
g6
I1000
sg7
S'Romani'
p1806
sg9
I0
sg10
I237
sg11
I34
sg12
g13
sg14
S'gordon gekko'
p1807
sba(itravian_raidmap
raid
p1808
(dp1809
g6
I2995
sg7
S'Romani'
p1810
sg9
I0
sg10
I139
sg11
I83
sg12
g13
sg14
S'Marcus Pyrus'
p1811
sba(itravian_raidmap
raid
p1812
(dp1813
g6
I4495
sg7
S'Teutoni'
p1814
sg9
I0
sg10
I155
sg11
I78
sg12
g13
sg14
S'Il_Figlioe'
p1815
sba(itravian_raidmap
raid
p1816
(dp1817
g6
I2229
sg7
S'Teutoni'
p1818
sg9
I0
sg10
I259
sg11
I40
sg12
g13
sg14
S'Celsius v'
p1819
sba(itravian_raidmap
raid
p1820
(dp1821
g6
I654
sg7
S'Romani'
p1822
sg9
I0
sg10
I239
sg11
I85
sg12
g13
sg14
S'bobbino'
p1823
sba(itravian_raidmap
raid
p1824
(dp1825
g6
I2229
sg7
S'Teutoni'
p1826
sg9
I0
sg10
I260
sg11
I36
sg12
g13
sg14
S'Celsius v'
p1827
sba(itravian_raidmap
raid
p1828
(dp1829
g6
I4495
sg7
S'Teutoni'
p1830
sg9
I0
sg10
I152
sg11
I87
sg12
g13
sg14
S'Il_Figlioe'
p1831
sba(itravian_raidmap
raid
p1832
(dp1833
g6
I1486
sg7
S'Romani'
p1834
sg9
I0
sg10
I222
sg11
I10
sg12
g13
sg14
S'Le Gionari'
p1835
sba(itravian_raidmap
raid
p1836
(dp1837
g6
I654
sg7
S'Romani'
p1838
sg9
I0
sg10
I240
sg11
I85
sg12
g13
sg14
S'bobbino'
p1839
sba(itravian_raidmap
raid
p1840
(dp1841
g6
I3147
sg7
S'Teutoni'
p1842
sg9
I0
sg10
I212
sg11
I83
sg12
g13
sg14
S'russorusso'
p1843
sba(itravian_raidmap
raid
p1844
(dp1845
g6
I4495
sg7
S'Teutoni'
p1846
sg9
I0
sg10
I156
sg11
I80
sg12
g13
sg14
S'Il_Figlioe'
p1847
sba(itravian_raidmap
raid
p1848
(dp1849
g6
I4603
sg7
S'Teutoni'
p1850
sg9
I0
sg10
I141
sg11
I97
sg12
g13
sg14
S'massimosp'
p1851
sba(itravian_raidmap
raid
p1852
(dp1853
g6
I411
sg7
S'Galli'
p1854
sg9
I0
sg10
I201
sg11
I83
sg12
g13
sg14
S'peve'
p1855
sba(itravian_raidmap
raid
p1856
(dp1857
g6
I3410
sg7
S'Teutoni'
p1858
sg9
I0
sg10
I210
sg11
I57
sg12
g13
sg14
S'seem_it'
p1859
sba(itravian_raidmap
raid
p1860
(dp1861
g6
I477
sg7
S'Romani'
p1862
sg9
I0
sg10
I251
sg11
I74
sg12
g13
sg14
S'Bevi'
p1863
sba(itravian_raidmap
raid
p1864
(dp1865
g6
I2229
sg7
S'Teutoni'
p1866
sg9
I0
sg10
I261
sg11
I37
sg12
g13
sg14
S'Celsius v'
p1867
sba(itravian_raidmap
raid
p1868
(dp1869
g6
I2995
sg7
S'Romani'
p1870
sg9
I0
sg10
I140
sg11
I85
sg12
g13
sg14
S'Marcus Pyrus'
p1871
sba(itravian_raidmap
raid
p1872
(dp1873
g6
I543
sg7
S'Romani'
p1874
sg9
I0
sg10
I257
sg11
I34
sg12
g13
sg14
S'Atrebor'
p1875
sba(itravian_raidmap
raid
p1876
(dp1877
g6
I2995
sg7
S'Romani'
p1878
sg9
I0
sg10
I139
sg11
I87
sg12
g13
sg14
S'Marcus Pyrus'
p1879
sba(itravian_raidmap
raid
p1880
(dp1881
g6
I1078
sg7
S'Romani'
p1882
sg9
I0
sg10
I218
sg11
I97
sg12
g13
sg14
S'josh4'
p1883
sba(itravian_raidmap
raid
p1884
(dp1885
g6
I556
sg7
S'Romani'
p1886
sg9
I0
sg10
I249
sg11
I71
sg12
g13
sg14
S'Valerio4'
p1887
sba(itravian_raidmap
raid
p1888
(dp1889
g6
I4495
sg7
S'Teutoni'
p1890
sg9
I0
sg10
I153
sg11
I87
sg12
g13
sg14
S'Il_Figlioe'
p1891
sba(itravian_raidmap
raid
p1892
(dp1893
g6
I57
sg7
S'Galli'
p1894
sg9
I0
sg10
I229
sg11
I35
sg12
g13
sg14
S'giampiux'
p1895
sba(itravian_raidmap
raid
p1896
(dp1897
g6
I3147
sg7
S'Teutoni'
p1898
sg9
I0
sg10
I213
sg11
I83
sg12
g13
sg14
S'russorusso'
p1899
sba(itravian_raidmap
raid
p1900
(dp1901
g6
I3770
sg7
S'Teutoni'
p1902
sg9
I0
sg10
I191
sg11
I73
sg12
g13
sg14
S'pozzani'
p1903
sba(itravian_raidmap
raid
p1904
(dp1905
g6
I2229
sg7
S'Teutoni'
p1906
sg9
I0
sg10
I262
sg11
I36
sg12
g13
sg14
S'Celsius v'
p1907
sba(itravian_raidmap
raid
p1908
(dp1909
g6
I1486
sg7
S'Romani'
p1910
sg9
I0
sg10
I223
sg11
I10
sg12
g13
sg14
S'Le Gionari'
p1911
sba(itravian_raidmap
raid
p1912
(dp1913
g6
I1486
sg7
S'Romani'
p1914
sg9
I0
sg10
I223
sg11
I11
sg12
g13
sg14
S'Le Gionari'
p1915
sba(itravian_raidmap
raid
p1916
(dp1917
g6
I2995
sg7
S'Romani'
p1918
sg9
I0
sg10
I141
sg11
I85
sg12
g13
sg14
S'Marcus Pyrus'
p1919
sba(itravian_raidmap
raid
p1920
(dp1921
g6
I2229
sg7
S'Teutoni'
p1922
sg9
I0
sg10
I262
sg11
I38
sg12
g13
sg14
S'Celsius v'
p1923
sba(itravian_raidmap
raid
p1924
(dp1925
g6
I1373
sg7
S'Romani'
p1926
sg9
I0
sg10
I227
sg11
I19
sg12
g13
sg14
S'Lo Zoppo'
p1927
sba(itravian_raidmap
raid
p1928
(dp1929
g6
I468
sg7
S'Galli'
p1930
sg9
I0
sg10
I206
sg11
I66
sg12
g13
sg14
S'loli'
p1931
sba(itravian_raidmap
raid
p1932
(dp1933
g6
I3770
sg7
S'Teutoni'
p1934
sg9
I0
sg10
I191
sg11
I75
sg12
g13
sg14
S'pozzani'
p1935
sba(itravian_raidmap
raid
p1936
(dp1937
g6
I998
sg7
S'Galli'
p1938
sg9
I0
sg10
I194
sg11
I26
sg12
g13
sg14
S'Astolfo'
p1939
sba(itravian_raidmap
raid
p1940
(dp1941
g6
I3147
sg7
S'Teutoni'
p1942
sg9
I0
sg10
I214
sg11
I83
sg12
g13
sg14
S'russorusso'
p1943
sba(itravian_raidmap
raid
p1944
(dp1945
g6
I786
sg7
S'Romani'
p1946
sg9
I0
sg10
I250
sg11
I22
sg12
g13
sg14
S'pippo2'
p1947
sba(itravian_raidmap
raid
p1948
(dp1949
g6
I720
sg7
S'Romani'
p1950
sg9
I0
sg10
I249
sg11
I48
sg12
g13
sg14
S'GiulioCesare'
p1951
sba(itravian_raidmap
raid
p1952
(dp1953
g6
I3770
sg7
S'Teutoni'
p1954
sg9
I0
sg10
I192
sg11
I73
sg12
g13
sg14
S'pozzani'
p1955
sba(itravian_raidmap
raid
p1956
(dp1957
g6
I1486
sg7
S'Romani'
p1958
sg9
I0
sg10
I224
sg11
I10
sg12
g13
sg14
S'Le Gionari'
p1959
sba(itravian_raidmap
raid
p1960
(dp1961
g6
I2332
sg7
S'Romani'
p1962
sg9
I0
sg10
I182
sg11
I60
sg12
g13
sg14
S'jonny76'
p1963
sba(itravian_raidmap
raid
p1964
(dp1965
g6
I1000
sg7
S'Romani'
p1966
sg9
I0
sg10
I241
sg11
I35
sg12
g13
sg14
S'gordon gekko'
p1967
sba(itravian_raidmap
raid
p1968
(dp1969
g6
I874
sg7
S'Galli'
p1970
sg9
I0
sg10
I194
sg11
I54
sg12
g13
sg14
S'SirP'
p1971
sba(itravian_raidmap
raid
p1972
(dp1973
g6
I3770
sg7
S'Teutoni'
p1974
sg9
I0
sg10
I192
sg11
I76
sg12
g13
sg14
S'pozzani'
p1975
sba(itravian_raidmap
raid
p1976
(dp1977
g6
I720
sg7
S'Romani'
p1978
sg9
I0
sg10
I250
sg11
I48
sg12
g13
sg14
S'GiulioCesare'
p1979
sba(itravian_raidmap
raid
p1980
(dp1981
g6
I4358
sg7
S'Teutoni'
p1982
sg9
I0
sg10
I178
sg11
I46
sg12
g13
sg14
S'SNICH'
p1983
sba(itravian_raidmap
raid
p1984
(dp1985
g6
I5022
sg7
S'Teutoni'
p1986
sg9
I0
sg10
I153
sg11
I40
sg12
g13
sg14
S'Black Sun'
p1987
sba(itravian_raidmap
raid
p1988
(dp1989
g6
I720
sg7
S'Romani'
p1990
sg9
I0
sg10
I250
sg11
I49
sg12
g13
sg14
S'GiulioCesare'
p1991
sba(itravian_raidmap
raid
p1992
(dp1993
g6
I5022
sg7
S'Teutoni'
p1994
sg9
I0
sg10
I153
sg11
I41
sg12
g13
sg14
S'Black Sun'
p1995
sba(itravian_raidmap
raid
p1996
(dp1997
g6
I5022
sg7
S'Teutoni'
p1998
sg9
I0
sg10
I154
sg11
I38
sg12
g13
sg14
S'Black Sun'
p1999
sba(itravian_raidmap
raid
p2000
(dp2001
g6
I2995
sg7
S'Romani'
p2002
sg9
I0
sg10
I159
sg11
I50
sg12
g13
sg14
S'Marcus Pyrus'
p2003
sba(itravian_raidmap
raid
p2004
(dp2005
g6
I761
sg7
S'Galli'
p2006
sg9
I0
sg10
I206
sg11
I13
sg12
g13
sg14
S'puciolo'
p2007
sba(itravian_raidmap
raid
p2008
(dp2009
g6
I4613
sg7
S'Teutoni'
p2010
sg9
I0
sg10
I146
sg11
I96
sg12
g13
sg14
S'Zaffiro'
p2011
sba(itravian_raidmap
raid
p2012
(dp2013
g6
I5022
sg7
S'Teutoni'
p2014
sg9
I0
sg10
I154
sg11
I39
sg12
g13
sg14
S'Black Sun'
p2015
sba(itravian_raidmap
raid
p2016
(dp2017
g6
I5022
sg7
S'Teutoni'
p2018
sg9
I0
sg10
I154
sg11
I40
sg12
g13
sg14
S'Black Sun'
p2019
sba(itravian_raidmap
raid
p2020
(dp2021
g6
I3064
sg7
S'Teutoni'
p2022
sg9
I0
sg10
I227
sg11
I62
sg12
g13
sg14
S'SAM'
p2023
sba(itravian_raidmap
raid
p2024
(dp2025
g6
I265
sg7
S'Galli'
p2026
sg9
I0
sg10
I225
sg11
I24
sg12
g13
sg14
S'Vend'
p2027
sba(itravian_raidmap
raid
p2028
(dp2029
g6
I998
sg7
S'Galli'
p2030
sg9
I0
sg10
I195
sg11
I33
sg12
g13
sg14
S'Astolfo'
p2031
sba(itravian_raidmap
raid
p2032
(dp2033
g6
I415
sg7
S'Galli'
p2034
sg9
I0
sg10
I210
sg11
I68
sg12
g13
sg14
S'ivan77'
p2035
sba(itravian_raidmap
raid
p2036
(dp2037
g6
I3770
sg7
S'Teutoni'
p2038
sg9
I0
sg10
I192
sg11
I82
sg12
g13
sg14
S'pozzani'
p2039
sba(itravian_raidmap
raid
p2040
(dp2041
g6
I4620
sg7
S'Teutoni'
p2042
sg9
I0
sg10
I172
sg11
I36
sg12
g13
sg14
S'Marco guida'
p2043
sba(itravian_raidmap
raid
p2044
(dp2045
g6
I3064
sg7
S'Teutoni'
p2046
sg9
I0
sg10
I231
sg11
I53
sg12
g13
sg14
S'SAM'
p2047
sba(itravian_raidmap
raid
p2048
(dp2049
g6
I1371
sg7
S'Romani'
p2050
sg9
I0
sg10
I231
sg11
I21
sg12
g13
sg14
S'Lo Zoppo'
p2051
sba(itravian_raidmap
raid
p2052
(dp2053
g6
I4613
sg7
S'Teutoni'
p2054
sg9
I0
sg10
I155
sg11
I87
sg12
g13
sg14
S'Zaffiro'
p2055
sba(itravian_raidmap
raid
p2056
(dp2057
g6
I1594
sg7
S'Romani'
p2058
sg9
I0
sg10
I215
sg11
I62
sg12
g13
sg14
S'ziotom'
p2059
sba(itravian_raidmap
raid
p2060
(dp2061
g6
I4708
sg7
S'Teutoni'
p2062
sg9
I0
sg10
I149
sg11
I91
sg12
g13
sg14
S'Nazgul-6'
p2063
sba(itravian_raidmap
raid
p2064
(dp2065
g6
I227
sg7
S'Galli'
p2066
sg9
I0
sg10
I200
sg11
I113
sg12
g13
sg14
S'Soldo91'
p2067
sba(itravian_raidmap
raid
p2068
(dp2069
g6
I3115
sg7
S'Romani'
p2070
sg9
I0
sg10
I158
sg11
I48
sg12
g13
sg14
S'Euskal'
p2071
sba(itravian_raidmap
raid
p2072
(dp2073
g6
I3296
sg7
S'Romani'
p2074
sg9
I0
sg10
I133
sg11
I86
sg12
g13
sg14
S'Estel'
p2075
sba(itravian_raidmap
raid
p2076
(dp2077
g6
I4708
sg7
S'Teutoni'
p2078
sg9
I0
sg10
I149
sg11
I92
sg12
g13
sg14
S'Nazgul-6'
p2079
sba(itravian_raidmap
raid
p2080
(dp2081
g6
I553
sg7
S'Romani'
p2082
sg9
I0
sg10
I256
sg11
I69
sg12
g13
sg14
S'Valerio4'
p2083
sba(itravian_raidmap
raid
p2084
(dp2085
g6
I3064
sg7
S'Teutoni'
p2086
sg9
I0
sg10
I233
sg11
I55
sg12
g13
sg14
S'SAM'
p2087
sba(itravian_raidmap
raid
p2088
(dp2089
g6
I3983
sg7
S'Teutoni'
p2090
sg9
I0
sg10
I204
sg11
I8
sg12
g13
sg14
S'narcio24'
p2091
sba(itravian_raidmap
raid
p2092
(dp2093
g6
I3296
sg7
S'Romani'
p2094
sg9
I0
sg10
I134
sg11
I86
sg12
g13
sg14
S'Estel'
p2095
sba(itravian_raidmap
raid
p2096
(dp2097
g6
I3064
sg7
S'Teutoni'
p2098
sg9
I0
sg10
I233
sg11
I58
sg12
g13
sg14
S'SAM'
p2099
sba(itravian_raidmap
raid
p2100
(dp2101
g6
I937
sg7
S'Galli'
p2102
sg9
I0
sg10
I202
sg11
I23
sg12
g13
sg14
S'vulcano75'
p2103
sba(itravian_raidmap
raid
p2104
(dp2105
g6
I1499
sg7
S'Romani'
p2106
sg9
I0
sg10
I201
sg11
I111
sg12
g13
sg14
S'Simplicio'
p2107
sba(itravian_raidmap
raid
p2108
(dp2109
g6
I3296
sg7
S'Romani'
p2110
sg9
I0
sg10
I134
sg11
I87
sg12
g13
sg14
S'Estel'
p2111
sba(itravian_raidmap
raid
p2112
(dp2113
g6
I3064
sg7
S'Teutoni'
p2114
sg9
I0
sg10
I237
sg11
I43
sg12
g13
sg14
S'SAM'
p2115
sba(itravian_raidmap
raid
p2116
(dp2117
g6
I3983
sg7
S'Teutoni'
p2118
sg9
I0
sg10
I205
sg11
I9
sg12
g13
sg14
S'narcio24'
p2119
sba(itravian_raidmap
raid
p2120
(dp2121
g6
I4495
sg7
S'Teutoni'
p2122
sg9
I0
sg10
I161
sg11
I92
sg12
g13
sg14
S'Il_Figlioe'
p2123
sba(itravian_raidmap
raid
p2124
(dp2125
g6
I4613
sg7
S'Teutoni'
p2126
sg9
I0
sg10
I158
sg11
I88
sg12
g13
sg14
S'Zaffiro'
p2127
sba(itravian_raidmap
raid
p2128
(dp2129
g6
I1190
sg7
S'Galli'
p2130
sg9
I0
sg10
I189
sg11
I44
sg12
g13
sg14
S'niguta'
p2131
sba(itravian_raidmap
raid
p2132
(dp2133
g6
I2716
sg7
S'Romani'
p2134
sg9
I0
sg10
I169
sg11
I70
sg12
g13
sg14
S'gandalf180'
p2135
sba(itravian_raidmap
raid
p2136
(dp2137
g6
I3983
sg7
S'Teutoni'
p2138
sg9
I0
sg10
I206
sg11
I9
sg12
g13
sg14
S'narcio24'
p2139
sba(itravian_raidmap
raid
p2140
(dp2141
g6
I4613
sg7
S'Teutoni'
p2142
sg9
I0
sg10
I158
sg11
I90
sg12
g13
sg14
S'Zaffiro'
p2143
sba(itravian_raidmap
raid
p2144
(dp2145
g6
I2716
sg7
S'Romani'
p2146
sg9
I0
sg10
I170
sg11
I69
sg12
g13
sg14
S'gandalf180'
p2147
sba(itravian_raidmap
raid
p2148
(dp2149
g6
I5022
sg7
S'Teutoni'
p2150
sg9
I0
sg10
I161
sg11
I42
sg12
g13
sg14
S'Black Sun'
p2151
sba(itravian_raidmap
raid
p2152
(dp2153
g6
I332
sg7
S'Galli'
p2154
sg9
I0
sg10
I220
sg11
I61
sg12
g13
sg14
S'martinka'
p2155
sba(itravian_raidmap
raid
p2156
(dp2157
g6
I4613
sg7
S'Teutoni'
p2158
sg9
I0
sg10
I158
sg11
I92
sg12
g13
sg14
S'Zaffiro'
p2159
sba(itravian_raidmap
raid
p2160
(dp2161
g6
I335
sg7
S'Galli'
p2162
sg9
I0
sg10
I224
sg11
I47
sg12
g13
sg14
S'gherfigno'
p2163
sba(itravian_raidmap
raid
p2164
(dp2165
g6
I2716
sg7
S'Romani'
p2166
sg9
I0
sg10
I171
sg11
I70
sg12
g13
sg14
S'gandalf180'
p2167
sba(itravian_raidmap
raid
p2168
(dp2169
g6
I3665
sg7
S'Romani'
p2170
sg9
I0
sg10
I143
sg11
I38
sg12
g13
sg14
S'asarix'
p2171
sba(itravian_raidmap
raid
p2172
(dp2173
g6
I560
sg7
S'Galli'
p2174
sg9
I0
sg10
I209
sg11
I70
sg12
g13
sg14
S'havanavaride'
p2175
sba(itravian_raidmap
raid
p2176
(dp2177
g6
I1083
sg7
S'Romani'
p2178
sg9
I0
sg10
I237
sg11
I75
sg12
g13
sg14
S'frazena96'
p2179
sba(itravian_raidmap
raid
p2180
(dp2181
g6
I3665
sg7
S'Romani'
p2182
sg9
I0
sg10
I143
sg11
I39
sg12
g13
sg14
S'asarix'
p2183
sba(itravian_raidmap
raid
p2184
(dp2185
g6
I4613
sg7
S'Teutoni'
p2186
sg9
I0
sg10
I159
sg11
I93
sg12
g13
sg14
S'Zaffiro'
p2187
sba(itravian_raidmap
raid
p2188
(dp2189
g6
I4360
sg7
S'Teutoni'
p2190
sg9
I0
sg10
I194
sg11
I-6
sg12
g13
sg14
S'gunner90'
p2191
sba(itravian_raidmap
raid
p2192
(dp2193
g6
I4620
sg7
S'Teutoni'
p2194
sg9
I0
sg10
I180
sg11
I39
sg12
g13
sg14
S'Marco guida'
p2195
sba(itravian_raidmap
raid
p2196
(dp2197
g6
I3983
sg7
S'Teutoni'
p2198
sg9
I0
sg10
I209
sg11
I8
sg12
g13
sg14
S'narcio24'
p2199
sba(itravian_raidmap
raid
p2200
(dp2201
g6
I4620
sg7
S'Teutoni'
p2202
sg9
I0
sg10
I180
sg11
I40
sg12
g13
sg14
S'Marco guida'
p2203
sba(itravian_raidmap
raid
p2204
(dp2205
g6
I791
sg7
S'Galli'
p2206
sg9
I0
sg10
I207
sg11
I46
sg12
g13
sg14
S'CaLiPsO'
p2207
sba(itravian_raidmap
raid
p2208
(dp2209
g6
I4620
sg7
S'Teutoni'
p2210
sg9
I0
sg10
I180
sg11
I44
sg12
g13
sg14
S'Marco guida'
p2211
sba(itravian_raidmap
raid
p2212
(dp2213
g6
I998
sg7
S'Galli'
p2214
sg9
I0
sg10
I202
sg11
I34
sg12
g13
sg14
S'Astolfo'
p2215
sba(itravian_raidmap
raid
p2216
(dp2217
g6
I2332
sg7
S'Romani'
p2218
sg9
I0
sg10
I192
sg11
I62
sg12
g13
sg14
S'jonny76'
p2219
sba(itravian_raidmap
raid
p2220
(dp2221
g6
I4620
sg7
S'Teutoni'
p2222
sg9
I0
sg10
I184
sg11
I27
sg12
g13
sg14
S'Marco guida'
p2223
sba(itravian_raidmap
raid
p2224
(dp2225
g6
I1083
sg7
S'Romani'
p2226
sg9
I0
sg10
I239
sg11
I75
sg12
g13
sg14
S'frazena96'
p2227
sba(itravian_raidmap
raid
p2228
(dp2229
g6
I2332
sg7
S'Romani'
p2230
sg9
I0
sg10
I192
sg11
I63
sg12
g13
sg14
S'jonny76'
p2231
sba(itravian_raidmap
raid
p2232
(dp2233
g6
I1086
sg7
S'Galli'
p2234
sg9
I0
sg10
I184
sg11
I84
sg12
g13
sg14
S'mataral'
p2235
sba(itravian_raidmap
raid
p2236
(dp2237
g6
I2332
sg7
S'Romani'
p2238
sg9
I0
sg10
I193
sg11
I62
sg12
g13
sg14
S'jonny76'
p2239
sba(itravian_raidmap
raid
p2240
(dp2241
g6
I2332
sg7
S'Romani'
p2242
sg9
I0
sg10
I193
sg11
I63
sg12
g13
sg14
S'jonny76'
p2243
sba(itravian_raidmap
raid
p2244
(dp2245
g6
I1086
sg7
S'Galli'
p2246
sg9
I0
sg10
I185
sg11
I83
sg12
g13
sg14
S'mataral'
p2247
sba(itravian_raidmap
raid
p2248
(dp2249
g6
I1278
sg7
S'Romani'
p2250
sg9
I0
sg10
I238
sg11
I56
sg12
g13
sg14
S'sarnese'
p2251
sba(itravian_raidmap
raid
p2252
(dp2253
g6
I1278
sg7
S'Romani'
p2254
sg9
I0
sg10
I238
sg11
I57
sg12
g13
sg14
S'sarnese'
p2255
sba(itravian_raidmap
raid
p2256
(dp2257
g6
I3837
sg7
S'Teutoni'
p2258
sg9
I0
sg10
I219
sg11
I9
sg12
g13
sg14
S'Iron Man'
p2259
sba(itravian_raidmap
raid
p2260
(dp2261
g6
I2886
sg7
S'Romani'
p2262
sg9
I0
sg10
I154
sg11
I98
sg12
g13
sg14
S'Karagh'
p2263
sba(itravian_raidmap
raid
p2264
(dp2265
g6
I1278
sg7
S'Romani'
p2266
sg9
I0
sg10
I239
sg11
I57
sg12
g13
sg14
S'sarnese'
p2267
sba(itravian_raidmap
raid
p2268
(dp2269
g6
I3837
sg7
S'Teutoni'
p2270
sg9
I0
sg10
I220
sg11
I8
sg12
g13
sg14
S'Iron Man'
p2271
sba(itravian_raidmap
raid
p2272
(dp2273
g6
I3837
sg7
S'Teutoni'
p2274
sg9
I0
sg10
I220
sg11
I9
sg12
g13
sg14
S'Iron Man'
p2275
sba(itravian_raidmap
raid
p2276
(dp2277
g6
I3019
sg7
S'Teutoni'
p2278
sg9
I0
sg10
I246
sg11
I55
sg12
g13
sg14
S'arin'
p2279
sba(itravian_raidmap
raid
p2280
(dp2281
g6
I2834
sg7
S'Galli'
p2282
sg9
I0
sg10
I113
sg11
I77
sg12
g13
sg14
S'the beach'
p2283
sba(itravian_raidmap
raid
p2284
(dp2285
g6
I3019
sg7
S'Teutoni'
p2286
sg9
I0
sg10
I247
sg11
I55
sg12
g13
sg14
S'arin'
p2287
sba(itravian_raidmap
raid
p2288
(dp2289
g6
I3196
sg7
S'Romani'
p2290
sg9
I0
sg10
I142
sg11
I98
sg12
g13
sg14
S'BabyFace'
p2291
sba(itravian_raidmap
raid
p2292
(dp2293
g6
I2730
sg7
S'Romani'
p2294
sg9
I0
sg10
I179
sg11
I66
sg12
g13
sg14
S'cinquinez'
p2295
sba(itravian_raidmap
raid
p2296
(dp2297
g6
I6119
sg7
S'Teutoni'
p2298
sg9
I0
sg10
I114
sg11
I69
sg12
g13
sg14
S'maw'
p2299
sba(itravian_raidmap
raid
p2300
(dp2301
g6
I3046
sg7
S'Teutoni'
p2302
sg9
I0
sg10
I251
sg11
I30
sg12
g13
sg14
S'Timmy'
p2303
sba(itravian_raidmap
raid
p2304
(dp2305
g6
I3837
sg7
S'Teutoni'
p2306
sg9
I0
sg10
I222
sg11
I8
sg12
g13
sg14
S'Iron Man'
p2307
sba(itravian_raidmap
raid
p2308
(dp2309
g6
I538
sg7
S'Galli'
p2310
sg9
I0
sg10
I227
sg11
I5
sg12
g13
sg14
S'hagin'
p2311
sba(itravian_raidmap
raid
p2312
(dp2313
g6
I1730
sg7
S'Galli'
p2314
sg9
I0
sg10
I172
sg11
I56
sg12
g13
sg14
S'kastel'
p2315
sba(itravian_raidmap
raid
p2316
(dp2317
g6
I4708
sg7
S'Teutoni'
p2318
sg9
I0
sg10
I173
sg11
I77
sg12
g13
sg14
S'Nazgul-6'
p2319
sba(itravian_raidmap
raid
p2320
(dp2321
g6
I1190
sg7
S'Galli'
p2322
sg9
I0
sg10
I198
sg11
I41
sg12
g13
sg14
S'niguta'
p2323
sba(itravian_raidmap
raid
p2324
(dp2325
g6
I2886
sg7
S'Romani'
p2326
sg9
I0
sg10
I160
sg11
I95
sg12
g13
sg14
S'Karagh'
p2327
sba(itravian_raidmap
raid
p2328
(dp2329
g6
I2834
sg7
S'Galli'
p2330
sg9
I0
sg10
I117
sg11
I74
sg12
g13
sg14
S'the beach'
p2331
sba(itravian_raidmap
raid
p2332
(dp2333
g6
I2575
sg7
S'Romani'
p2334
sg9
I0
sg10
I188
sg11
I63
sg12
g13
sg14
S'magna'
p2335
sba(itravian_raidmap
raid
p2336
(dp2337
g6
I2886
sg7
S'Romani'
p2338
sg9
I0
sg10
I159
sg11
I97
sg12
g13
sg14
S'Karagh'
p2339
sba(itravian_raidmap
raid
p2340
(dp2341
g6
I2858
sg7
S'Teutoni'
p2342
sg9
I0
sg10
I252
sg11
I72
sg12
g13
sg14
S'berta'
p2343
sba(itravian_raidmap
raid
p2344
(dp2345
g6
I2575
sg7
S'Romani'
p2346
sg9
I0
sg10
I188
sg11
I64
sg12
g13
sg14
S'magna'
p2347
sba(itravian_raidmap
raid
p2348
(dp2349
g6
I538
sg7
S'Galli'
p2350
sg9
I0
sg10
I228
sg11
I5
sg12
g13
sg14
S'hagin'
p2351
sba(itravian_raidmap
raid
p2352
(dp2353
g6
I2622
sg7
S'Romani'
p2354
sg9
I0
sg10
I169
sg11
I101
sg12
g13
sg14
S'EmyTheGoddess'
p2355
sba(itravian_raidmap
raid
p2356
(dp2357
g6
I1499
sg7
S'Romani'
p2358
sg9
I0
sg10
I213
sg11
I112
sg12
g13
sg14
S'Simplicio'
p2359
sba(itravian_raidmap
raid
p2360
(dp2361
g6
I2886
sg7
S'Romani'
p2362
sg9
I0
sg10
I160
sg11
I97
sg12
g13
sg14
S'Karagh'
p2363
sba(itravian_raidmap
raid
p2364
(dp2365
g6
I2575
sg7
S'Romani'
p2366
sg9
I0
sg10
I189
sg11
I63
sg12
g13
sg14
S'magna'
p2367
sba(itravian_raidmap
raid
p2368
(dp2369
g6
I907
sg7
S'Galli'
p2370
sg9
I0
sg10
I185
sg11
I108
sg12
g13
sg14
S'daniele ab'
p2371
sba(itravian_raidmap
raid
p2372
(dp2373
g6
I2575
sg7
S'Romani'
p2374
sg9
I0
sg10
I189
sg11
I64
sg12
g13
sg14
S'magna'
p2375
sba(itravian_raidmap
raid
p2376
(dp2377
g6
I2858
sg7
S'Teutoni'
p2378
sg9
I0
sg10
I254
sg11
I70
sg12
g13
sg14
S'berta'
p2379
sba(itravian_raidmap
raid
p2380
(dp2381
g6
I2858
sg7
S'Teutoni'
p2382
sg9
I0
sg10
I252
sg11
I77
sg12
g13
sg14
S'berta'
p2383
sba(itravian_raidmap
raid
p2384
(dp2385
g6
I95
sg7
S'Galli'
p2386
sg9
I0
sg10
I224
sg11
I102
sg12
g13
sg14
S'born2win'
p2387
sba(itravian_raidmap
raid
p2388
(dp2389
g6
I1028
sg7
S'Galli'
p2390
sg9
I0
sg10
I182
sg11
I105
sg12
g13
sg14
S'pix'
p2391
sba(itravian_raidmap
raid
p2392
(dp2393
g6
I1855
sg7
S'Romani'
p2394
sg9
I0
sg10
I228
sg11
I3
sg12
g13
sg14
S'miguel'
p2395
sba(itravian_raidmap
raid
p2396
(dp2397
g6
I2886
sg7
S'Romani'
p2398
sg9
I0
sg10
I161
sg11
I97
sg12
g13
sg14
S'Karagh'
p2399
sba(itravian_raidmap
raid
p2400
(dp2401
g6
I2858
sg7
S'Teutoni'
p2402
sg9
I0
sg10
I253
sg11
I76
sg12
g13
sg14
S'berta'
p2403
sba(itravian_raidmap
raid
p2404
(dp2405
g6
I2575
sg7
S'Romani'
p2406
sg9
I0
sg10
I190
sg11
I63
sg12
g13
sg14
S'magna'
p2407
sba(itravian_raidmap
raid
p2408
(dp2409
g6
I2834
sg7
S'Galli'
p2410
sg9
I0
sg10
I117
sg11
I77
sg12
g13
sg14
S'the beach'
p2411
sba(itravian_raidmap
raid
p2412
(dp2413
g6
I249
sg7
S'Galli'
p2414
sg9
I0
sg10
I216
sg11
I106
sg12
g13
sg14
S'lucabig84'
p2415
sba(itravian_raidmap
raid
p2416
(dp2417
g6
I469
sg7
S'Galli'
p2418
sg9
I0
sg10
I220
sg11
I74
sg12
g13
sg14
S'MassiP'
p2419
sba(itravian_raidmap
raid
p2420
(dp2421
g6
I2858
sg7
S'Teutoni'
p2422
sg9
I0
sg10
I253
sg11
I77
sg12
g13
sg14
S'berta'
p2423
sba(itravian_raidmap
raid
p2424
(dp2425
g6
I2575
sg7
S'Romani'
p2426
sg9
I0
sg10
I190
sg11
I64
sg12
g13
sg14
S'magna'
p2427
sba(itravian_raidmap
raid
p2428
(dp2429
g6
I1526
sg7
S'Romani'
p2430
sg9
I0
sg10
I217
sg11
I106
sg12
g13
sg14
S'Nikita79'
p2431
sba(itravian_raidmap
raid
p2432
(dp2433
g6
I3415
sg7
S'Romani'
p2434
sg9
I0
sg10
I167
sg11
I21
sg12
g13
sg14
S'capitanharley'
p2435
sba(itravian_raidmap
raid
p2436
(dp2437
g6
I1526
sg7
S'Romani'
p2438
sg9
I0
sg10
I217
sg11
I107
sg12
g13
sg14
S'Nikita79'
p2439
sba(itravian_raidmap
raid
p2440
(dp2441
g6
I5163
sg7
S'Teutoni'
p2442
sg9
I0
sg10
I170
sg11
I45
sg12
g13
sg14
S'cicitex'
p2443
sba(itravian_raidmap
raid
p2444
(dp2445
g6
I3415
sg7
S'Romani'
p2446
sg9
I0
sg10
I167
sg11
I23
sg12
g13
sg14
S'capitanharley'
p2447
sba(itravian_raidmap
raid
p2448
(dp2449
g6
I2886
sg7
S'Romani'
p2450
sg9
I0
sg10
I163
sg11
I96
sg12
g13
sg14
S'Karagh'
p2451
sba(itravian_raidmap
raid
p2452
(dp2453
g6
I3415
sg7
S'Romani'
p2454
sg9
I0
sg10
I167
sg11
I24
sg12
g13
sg14
S'capitanharley'
p2455
sba(itravian_raidmap
raid
p2456
(dp2457
g6
I1964
sg7
S'Romani'
p2458
sg9
I0
sg10
I218
sg11
I57
sg12
g13
sg14
S'Daiii'
p2459
sba(itravian_raidmap
raid
p2460
(dp2461
g6
I1526
sg7
S'Romani'
p2462
sg9
I0
sg10
I217
sg11
I108
sg12
g13
sg14
S'Nikita79'
p2463
sba(itravian_raidmap
raid
p2464
(dp2465
g6
I2792
sg7
S'Romani'
p2466
sg9
I0
sg10
I181
sg11
I68
sg12
g13
sg14
S'alexandrus'
p2467
sba(itravian_raidmap
raid
p2468
(dp2469
g6
I3415
sg7
S'Romani'
p2470
sg9
I0
sg10
I168
sg11
I23
sg12
g13
sg14
S'capitanharley'
p2471
sba(itravian_raidmap
raid
p2472
(dp2473
g6
I215
sg7
S'Galli'
p2474
sg9
I0
sg10
I228
sg11
I86
sg12
g13
sg14
S'bello 70'
p2475
sba(itravian_raidmap
raid
p2476
(dp2477
g6
I1526
sg7
S'Romani'
p2478
sg9
I0
sg10
I218
sg11
I108
sg12
g13
sg14
S'Nikita79'
p2479
sba(itravian_raidmap
raid
p2480
(dp2481
g6
I4583
sg7
S'Teutoni'
p2482
sg9
I0
sg10
I191
sg11
I60
sg12
g13
sg14
S'MILIZIADE'
p2483
sba(itravian_raidmap
raid
p2484
(dp2485
g6
I5022
sg7
S'Teutoni'
p2486
sg9
I0
sg10
I172
sg11
I63
sg12
g13
sg14
S'Black Sun'
p2487
sba(itravian_raidmap
raid
p2488
(dp2489
g6
I3415
sg7
S'Romani'
p2490
sg9
I0
sg10
I169
sg11
I20
sg12
g13
sg14
S'capitanharley'
p2491
sba(itravian_raidmap
raid
p2492
(dp2493
g6
I3363
sg7
S'Romani'
p2494
sg9
I0
sg10
I166
sg11
I46
sg12
g13
sg14
S'\xc3\x90\xc3\xa8 La PE\xc3\xb1a'
p2495
sba(itravian_raidmap
raid
p2496
(dp2497
g6
I1207
sg7
S'Romani'
p2498
sg9
I0
sg10
I252
sg11
I46
sg12
g13
sg14
S'shumi'
p2499
sba(itravian_raidmap
raid
p2500
(dp2501
g6
I1207
sg7
S'Romani'
p2502
sg9
I0
sg10
I252
sg11
I47
sg12
g13
sg14
S'shumi'
p2503
sba(itravian_raidmap
raid
p2504
(dp2505
g6
I5087
sg7
S'Teutoni'
p2506
sg9
I0
sg10
I181
sg11
I11
sg12
g13
sg14
S'boccadirosa'
p2507
sba(itravian_raidmap
raid
p2508
(dp2509
g6
I5022
sg7
S'Teutoni'
p2510
sg9
I0
sg10
I173
sg11
I63
sg12
g13
sg14
S'Black Sun'
p2511
sba(itravian_raidmap
raid
p2512
(dp2513
g6
I3363
sg7
S'Romani'
p2514
sg9
I0
sg10
I167
sg11
I45
sg12
g13
sg14
S'\xc3\x90\xc3\xa8 La PE\xc3\xb1a'
p2515
sba(itravian_raidmap
raid
p2516
(dp2517
g6
I4583
sg7
S'Teutoni'
p2518
sg9
I0
sg10
I192
sg11
I61
sg12
g13
sg14
S'MILIZIADE'
p2519
sba(itravian_raidmap
raid
p2520
(dp2521
g6
I4583
sg7
S'Teutoni'
p2522
sg9
I0
sg10
I193
sg11
I58
sg12
g13
sg14
S'MILIZIADE'
p2523
sba(itravian_raidmap
raid
p2524
(dp2525
g6
I4410
sg7
S'Teutoni'
p2526
sg9
I0
sg10
I185
sg11
I96
sg12
g13
sg14
S'-Manpower-'
p2527
sba(itravian_raidmap
raid
p2528
(dp2529
g6
I3363
sg7
S'Romani'
p2530
sg9
I0
sg10
I167
sg11
I46
sg12
g13
sg14
S'\xc3\x90\xc3\xa8 La PE\xc3\xb1a'
p2531
sba(itravian_raidmap
raid
p2532
(dp2533
g6
I3363
sg7
S'Romani'
p2534
sg9
I0
sg10
I167
sg11
I47
sg12
g13
sg14
S'\xc3\x90\xc3\xa8 La PE\xc3\xb1a'
p2535
sba(itravian_raidmap
raid
p2536
(dp2537
g6
I5584
sg7
S'Teutoni'
p2538
sg9
I0
sg10
I154
sg11
I54
sg12
g13
sg14
S'Jaiss'
p2539
sba(itravian_raidmap
raid
p2540
(dp2541
g6
I3035
sg7
S'Romani'
p2542
sg9
I0
sg10
I167
sg11
I83
sg12
g13
sg14
S'damy73'
p2543
sba(itravian_raidmap
raid
p2544
(dp2545
g6
I3363
sg7
S'Romani'
p2546
sg9
I0
sg10
I167
sg11
I48
sg12
g13
sg14
S'\xc3\x90\xc3\xa8 La PE\xc3\xb1a'
p2547
sba(itravian_raidmap
raid
p2548
(dp2549
g6
I2886
sg7
S'Romani'
p2550
sg9
I0
sg10
I167
sg11
I96
sg12
g13
sg14
S'Karagh'
p2551
sba(itravian_raidmap
raid
p2552
(dp2553
g6
I137
sg7
S'Galli'
p2554
sg9
I0
sg10
I240
sg11
I66
sg12
g13
sg14
S'giuser2'
p2555
sba(itravian_raidmap
raid
p2556
(dp2557
g6
I3363
sg7
S'Romani'
p2558
sg9
I0
sg10
I168
sg11
I47
sg12
g13
sg14
S'\xc3\x90\xc3\xa8 La PE\xc3\xb1a'
p2559
sba(itravian_raidmap
raid
p2560
(dp2561
g6
I2661
sg7
S'Galli'
p2562
sg9
I0
sg10
I131
sg11
I75
sg12
g13
sg14
S'eduardo'
p2563
sba(itravian_raidmap
raid
p2564
(dp2565
g6
I310
sg7
S'Galli'
p2566
sg9
I0
sg10
I233
sg11
I67
sg12
g13
sg14
S'rino'
p2567
sba(itravian_raidmap
raid
p2568
(dp2569
g6
I6119
sg7
S'Teutoni'
p2570
sg9
I0
sg10
I124
sg11
I73
sg12
g13
sg14
S'maw'
p2571
sba(itravian_raidmap
raid
p2572
(dp2573
g6
I424
sg7
S'Galli'
p2574
sg9
I0
sg10
I213
sg11
I108
sg12
g13
sg14
S'luis2'
p2575
sba(itravian_raidmap
raid
p2576
(dp2577
g6
I371
sg7
S'Galli'
p2578
sg9
I0
sg10
I235
sg11
I54
sg12
g13
sg14
S'BIBI'
p2579
sba(itravian_raidmap
raid
p2580
(dp2581
g6
I4122
sg7
S'Romani'
p2582
sg9
I0
sg10
I123
sg11
I80
sg12
g13
sg14
S'Don V.Corleone'
p2583
sba(itravian_raidmap
raid
p2584
(dp2585
g6
I162
sg7
S'Galli'
p2586
sg9
I0
sg10
I248
sg11
I28
sg12
g13
sg14
S'nico96'
p2587
sba(itravian_raidmap
raid
p2588
(dp2589
g6
I5584
sg7
S'Teutoni'
p2590
sg9
I0
sg10
I154
sg11
I64
sg12
g13
sg14
S'Jaiss'
p2591
sba(itravian_raidmap
raid
p2592
(dp2593
g6
I5584
sg7
S'Teutoni'
p2594
sg9
I0
sg10
I154
sg11
I65
sg12
g13
sg14
S'Jaiss'
p2595
sba(itravian_raidmap
raid
p2596
(dp2597
g6
I5584
sg7
S'Teutoni'
p2598
sg9
I0
sg10
I154
sg11
I66
sg12
g13
sg14
S'Jaiss'
p2599
sba(itravian_raidmap
raid
p2600
(dp2601
g6
I5584
sg7
S'Teutoni'
p2602
sg9
I0
sg10
I155
sg11
I64
sg12
g13
sg14
S'Jaiss'
p2603
sba(itravian_raidmap
raid
p2604
(dp2605
g6
I5163
sg7
S'Teutoni'
p2606
sg9
I0
sg10
I179
sg11
I43
sg12
g13
sg14
S'cicitex'
p2607
sba(itravian_raidmap
raid
p2608
(dp2609
g6
I245
sg7
S'Galli'
p2610
sg9
I0
sg10
I237
sg11
I70
sg12
g13
sg14
S'frencyare'
p2611
sba(itravian_raidmap
raid
p2612
(dp2613
g6
I676
sg7
S'Galli'
p2614
sg9
I0
sg10
I230
sg11
I14
sg12
g13
sg14
S'Lainel'
p2615
sba(itravian_raidmap
raid
p2616
(dp2617
g6
I6119
sg7
S'Teutoni'
p2618
sg9
I0
sg10
I132
sg11
I65
sg12
g13
sg14
S'maw'
p2619
sba(itravian_raidmap
raid
p2620
(dp2621
g6
I2386
sg7
S'Romani'
p2622
sg9
I0
sg10
I215
sg11
I-12
sg12
g13
sg14
S'Gjn'
p2623
sba(itravian_raidmap
raid
p2624
(dp2625
g6
I5163
sg7
S'Teutoni'
p2626
sg9
I0
sg10
I179
sg11
I45
sg12
g13
sg14
S'cicitex'
p2627
sba(itravian_raidmap
raid
p2628
(dp2629
g6
I2179
sg7
S'Galli'
p2630
sg9
I0
sg10
I167
sg11
I42
sg12
g13
sg14
S'mauroilgallo'
p2631
sba(itravian_raidmap
raid
p2632
(dp2633
g6
I5163
sg7
S'Teutoni'
p2634
sg9
I0
sg10
I179
sg11
I46
sg12
g13
sg14
S'cicitex'
p2635
sba(itravian_raidmap
raid
p2636
(dp2637
g6
I5584
sg7
S'Teutoni'
p2638
sg9
I0
sg10
I155
sg11
I66
sg12
g13
sg14
S'Jaiss'
p2639
sba(itravian_raidmap
raid
p2640
(dp2641
g6
I5164
sg7
S'Teutoni'
p2642
sg9
I0
sg10
I185
sg11
I6
sg12
g13
sg14
S'iris1914'
p2643
sba(itravian_raidmap
raid
p2644
(dp2645
g6
I2589
sg7
S'Romani'
p2646
sg9
I0
sg10
I186
sg11
I94
sg12
g13
sg14
S'Wolf90'
p2647
sba(itravian_raidmap
raid
p2648
(dp2649
g6
I5163
sg7
S'Teutoni'
p2650
sg9
I0
sg10
I180
sg11
I46
sg12
g13
sg14
S'cicitex'
p2651
sba(itravian_raidmap
raid
p2652
(dp2653
g6
I1593
sg7
S'Romani'
p2654
sg9
I0
sg10
I240
sg11
I60
sg12
g13
sg14
S'ziotom'
p2655
sba(itravian_raidmap
raid
p2656
(dp2657
g6
I6475
sg7
S'Teutoni'
p2658
sg9
I0
sg10
I127
sg11
I46
sg12
g13
sg14
S'vietnam'
p2659
sba(itravian_raidmap
raid
p2660
(dp2661
g6
I2589
sg7
S'Romani'
p2662
sg9
I0
sg10
I187
sg11
I93
sg12
g13
sg14
S'Wolf90'
p2663
sba(itravian_raidmap
raid
p2664
(dp2665
g6
I5164
sg7
S'Teutoni'
p2666
sg9
I0
sg10
I186
sg11
I6
sg12
g13
sg14
S'iris1914'
p2667
sba(itravian_raidmap
raid
p2668
(dp2669
g6
I2661
sg7
S'Galli'
p2670
sg9
I0
sg10
I134
sg11
I77
sg12
g13
sg14
S'eduardo'
p2671
sba(itravian_raidmap
raid
p2672
(dp2673
g6
I4410
sg7
S'Teutoni'
p2674
sg9
I0
sg10
I195
sg11
I92
sg12
g13
sg14
S'-Manpower-'
p2675
sba(itravian_raidmap
raid
p2676
(dp2677
g6
I1593
sg7
S'Romani'
p2678
sg9
I0
sg10
I240
sg11
I62
sg12
g13
sg14
S'ziotom'
p2679
sba(itravian_raidmap
raid
p2680
(dp2681
g6
I5048
sg7
S'Teutoni'
p2682
sg9
I0
sg10
I191
sg11
I-4
sg12
g13
sg14
S'supremo1'
p2683
sba(itravian_raidmap
raid
p2684
(dp2685
g6
I2589
sg7
S'Romani'
p2686
sg9
I0
sg10
I187
sg11
I94
sg12
g13
sg14
S'Wolf90'
p2687
sba(itravian_raidmap
raid
p2688
(dp2689
g6
I2589
sg7
S'Romani'
p2690
sg9
I0
sg10
I186
sg11
I96
sg12
g13
sg14
S'Wolf90'
p2691
sba(itravian_raidmap
raid
p2692
(dp2693
g6
I1597
sg7
S'Romani'
p2694
sg9
I0
sg10
I236
sg11
I76
sg12
g13
sg14
S'malusquo'
p2695
sba(itravian_raidmap
raid
p2696
(dp2697
g6
I6475
sg7
S'Teutoni'
p2698
sg9
I0
sg10
I127
sg11
I48
sg12
g13
sg14
S'vietnam'
p2699
sba(itravian_raidmap
raid
p2700
(dp2701
g6
I5755
sg7
S'Teutoni'
p2702
sg9
I0
sg10
I156
sg11
I50
sg12
g13
sg14
S'Mastck'
p2703
sba(itravian_raidmap
raid
p2704
(dp2705
g6
I4410
sg7
S'Teutoni'
p2706
sg9
I0
sg10
I194
sg11
I96
sg12
g13
sg14
S'-Manpower-'
p2707
sba(itravian_raidmap
raid
p2708
(dp2709
g6
I2589
sg7
S'Romani'
p2710
sg9
I0
sg10
I187
sg11
I95
sg12
g13
sg14
S'Wolf90'
p2711
sba(itravian_raidmap
raid
p2712
(dp2713
g6
I1692
sg7
S'Galli'
p2714
sg9
I0
sg10
I179
sg11
I72
sg12
g13
sg14
S'simofs'
p2715
sba(itravian_raidmap
raid
p2716
(dp2717
g6
I2732
sg7
S'Romani'
p2718
sg9
I0
sg10
I194
sg11
I64
sg12
g13
sg14
S'cinquinez'
p2719
sba(itravian_raidmap
raid
p2720
(dp2721
g6
I5755
sg7
S'Teutoni'
p2722
sg9
I0
sg10
I157
sg11
I49
sg12
g13
sg14
S'Mastck'
p2723
sba(itravian_raidmap
raid
p2724
(dp2725
g6
I5584
sg7
S'Teutoni'
p2726
sg9
I0
sg10
I161
sg11
I58
sg12
g13
sg14
S'Jaiss'
p2727
sba(itravian_raidmap
raid
p2728
(dp2729
g6
I1593
sg7
S'Romani'
p2730
sg9
I0
sg10
I241
sg11
I62
sg12
g13
sg14
S'ziotom'
p2731
sba(itravian_raidmap
raid
p2732
(dp2733
g6
I5755
sg7
S'Teutoni'
p2734
sg9
I0
sg10
I157
sg11
I50
sg12
g13
sg14
S'Mastck'
p2735
sba(itravian_raidmap
raid
p2736
(dp2737
g6
I2589
sg7
S'Romani'
p2738
sg9
I0
sg10
I188
sg11
I94
sg12
g13
sg14
S'Wolf90'
p2739
sba(itravian_raidmap
raid
p2740
(dp2741
g6
I1597
sg7
S'Romani'
p2742
sg9
I0
sg10
I237
sg11
I76
sg12
g13
sg14
S'malusquo'
p2743
sba(itravian_raidmap
raid
p2744
(dp2745
g6
I5163
sg7
S'Teutoni'
p2746
sg9
I0
sg10
I182
sg11
I48
sg12
g13
sg14
S'cicitex'
p2747
sba(itravian_raidmap
raid
p2748
(dp2749
g6
I6475
sg7
S'Teutoni'
p2750
sg9
I0
sg10
I129
sg11
I47
sg12
g13
sg14
S'vietnam'
p2751
sba(itravian_raidmap
raid
p2752
(dp2753
g6
I3035
sg7
S'Romani'
p2754
sg9
I0
sg10
I175
sg11
I82
sg12
g13
sg14
S'damy73'
p2755
sba(itravian_raidmap
raid
p2756
(dp2757
g6
I2589
sg7
S'Romani'
p2758
sg9
I0
sg10
I188
sg11
I95
sg12
g13
sg14
S'Wolf90'
p2759
sba(itravian_raidmap
raid
p2760
(dp2761
g6
I5584
sg7
S'Teutoni'
p2762
sg9
I0
sg10
I162
sg11
I58
sg12
g13
sg14
S'Jaiss'
p2763
sba(itravian_raidmap
raid
p2764
(dp2765
g6
I5755
sg7
S'Teutoni'
p2766
sg9
I0
sg10
I158
sg11
I49
sg12
g13
sg14
S'Mastck'
p2767
sba(itravian_raidmap
raid
p2768
(dp2769
g6
I5048
sg7
S'Teutoni'
p2770
sg9
I0
sg10
I193
sg11
I1
sg12
g13
sg14
S'supremo1'
p2771
sba(itravian_raidmap
raid
p2772
(dp2773
g6
I5048
sg7
S'Teutoni'
p2774
sg9
I0
sg10
I193
sg11
I2
sg12
g13
sg14
S'supremo1'
p2775
sba(itravian_raidmap
raid
p2776
(dp2777
g6
I5755
sg7
S'Teutoni'
p2778
sg9
I0
sg10
I158
sg11
I50
sg12
g13
sg14
S'Mastck'
p2779
sba(itravian_raidmap
raid
p2780
(dp2781
g6
I1597
sg7
S'Romani'
p2782
sg9
I0
sg10
I238
sg11
I75
sg12
g13
sg14
S'malusquo'
p2783
sba(itravian_raidmap
raid
p2784
(dp2785
g6
I5584
sg7
S'Teutoni'
p2786
sg9
I0
sg10
I162
sg11
I59
sg12
g13
sg14
S'Jaiss'
p2787
sba(itravian_raidmap
raid
p2788
(dp2789
g6
I2729
sg7
S'Romani'
p2790
sg9
I0
sg10
I195
sg11
I65
sg12
g13
sg14
S'cinquinez'
p2791
sba(itravian_raidmap
raid
p2792
(dp2793
g6
I3035
sg7
S'Romani'
p2794
sg9
I0
sg10
I175
sg11
I83
sg12
g13
sg14
S'damy73'
p2795
sba(itravian_raidmap
raid
p2796
(dp2797
g6
I1944
sg7
S'Romani'
p2798
sg9
I0
sg10
I211
sg11
I106
sg12
g13
sg14
S'Bruja'
p2799
sba(itravian_raidmap
raid
p2800
(dp2801
g6
I5163
sg7
S'Teutoni'
p2802
sg9
I0
sg10
I183
sg11
I47
sg12
g13
sg14
S'cicitex'
p2803
sba(itravian_raidmap
raid
p2804
(dp2805
g6
I5164
sg7
S'Teutoni'
p2806
sg9
I0
sg10
I189
sg11
I1
sg12
g13
sg14
S'iris1914'
p2807
sba(itravian_raidmap
raid
p2808
(dp2809
g6
I5164
sg7
S'Teutoni'
p2810
sg9
I0
sg10
I189
sg11
I2
sg12
g13
sg14
S'iris1914'
p2811
sba(itravian_raidmap
raid
p2812
(dp2813
g6
I5755
sg7
S'Teutoni'
p2814
sg9
I0
sg10
I158
sg11
I52
sg12
g13
sg14
S'Mastck'
p2815
sba(itravian_raidmap
raid
p2816
(dp2817
g6
I1294
sg7
S'Galli'
p2818
sg9
I0
sg10
I209
sg11
I18
sg12
g13
sg14
S'tydus'
p2819
sba(itravian_raidmap
raid
p2820
(dp2821
g6
I1944
sg7
S'Romani'
p2822
sg9
I0
sg10
I212
sg11
I105
sg12
g13
sg14
S'Bruja'
p2823
sba(itravian_raidmap
raid
p2824
(dp2825
g6
I2716
sg7
S'Romani'
p2826
sg9
I0
sg10
I194
sg11
I71
sg12
g13
sg14
S'Paso'
p2827
sba(itravian_raidmap
raid
p2828
(dp2829
g6
I1294
sg7
S'Galli'
p2830
sg9
I0
sg10
I209
sg11
I20
sg12
g13
sg14
S'tydus'
p2831
sba(itravian_raidmap
raid
p2832
(dp2833
g6
I4620
sg7
S'Teutoni'
p2834
sg9
I0
sg10
I206
sg11
I45
sg12
g13
sg14
S'Marco guida'
p2835
sba(itravian_raidmap
raid
p2836
(dp2837
g6
I6119
sg7
S'Teutoni'
p2838
sg9
I0
sg10
I139
sg11
I63
sg12
g13
sg14
S'maw'
p2839
sba(itravian_raidmap
raid
p2840
(dp2841
g6
I6119
sg7
S'Teutoni'
p2842
sg9
I0
sg10
I139
sg11
I64
sg12
g13
sg14
S'maw'
p2843
sba(itravian_raidmap
raid
p2844
(dp2845
g6
I2716
sg7
S'Romani'
p2846
sg9
I0
sg10
I195
sg11
I70
sg12
g13
sg14
S'Paso'
p2847
sba(itravian_raidmap
raid
p2848
(dp2849
g6
I676
sg7
S'Galli'
p2850
sg9
I0
sg10
I234
sg11
I14
sg12
g13
sg14
S'Lainel'
p2851
sba(itravian_raidmap
raid
p2852
(dp2853
g6
I6119
sg7
S'Teutoni'
p2854
sg9
I0
sg10
I140
sg11
I62
sg12
g13
sg14
S'maw'
p2855
sba(itravian_raidmap
raid
p2856
(dp2857
g6
I2729
sg7
S'Romani'
p2858
sg9
I0
sg10
I196
sg11
I66
sg12
g13
sg14
S'cinquinez'
p2859
sba(itravian_raidmap
raid
p2860
(dp2861
g6
I4077
sg7
S'Romani'
p2862
sg9
I0
sg10
I153
sg11
I22
sg12
g13
sg14
S'zH3t'
p2863
sba(itravian_raidmap
raid
p2864
(dp2865
g6
I6119
sg7
S'Teutoni'
p2866
sg9
I0
sg10
I140
sg11
I63
sg12
g13
sg14
S'maw'
p2867
sba(itravian_raidmap
raid
p2868
(dp2869
g6
I1294
sg7
S'Galli'
p2870
sg9
I0
sg10
I210
sg11
I17
sg12
g13
sg14
S'tydus'
p2871
sba(itravian_raidmap
raid
p2872
(dp2873
g6
I2716
sg7
S'Romani'
p2874
sg9
I0
sg10
I196
sg11
I69
sg12
g13
sg14
S'Paso'
p2875
sba(itravian_raidmap
raid
p2876
(dp2877
g6
I6119
sg7
S'Teutoni'
p2878
sg9
I0
sg10
I140
sg11
I64
sg12
g13
sg14
S'maw'
p2879
sba(itravian_raidmap
raid
p2880
(dp2881
g6
I3165
sg7
S'Romani'
p2882
sg9
I0
sg10
I171
sg11
I84
sg12
g13
sg14
S'19antonio88'
p2883
sba(itravian_raidmap
raid
p2884
(dp2885
g6
I2716
sg7
S'Romani'
p2886
sg9
I0
sg10
I196
sg11
I70
sg12
g13
sg14
S'Paso'
p2887
sba(itravian_raidmap
raid
p2888
(dp2889
g6
I3165
sg7
S'Romani'
p2890
sg9
I0
sg10
I171
sg11
I85
sg12
g13
sg14
S'19antonio88'
p2891
sba(itravian_raidmap
raid
p2892
(dp2893
g6
I2716
sg7
S'Romani'
p2894
sg9
I0
sg10
I196
sg11
I71
sg12
g13
sg14
S'Paso'
p2895
sba(itravian_raidmap
raid
p2896
(dp2897
g6
I5584
sg7
S'Teutoni'
p2898
sg9
I0
sg10
I163
sg11
I65
sg12
g13
sg14
S'Jaiss'
p2899
sba(itravian_raidmap
raid
p2900
(dp2901
g6
I1294
sg7
S'Galli'
p2902
sg9
I0
sg10
I211
sg11
I18
sg12
g13
sg14
S'tydus'
p2903
sba(itravian_raidmap
raid
p2904
(dp2905
g6
I4410
sg7
S'Teutoni'
p2906
sg9
I0
sg10
I199
sg11
I98
sg12
g13
sg14
S'-Manpower-'
p2907
sba(itravian_raidmap
raid
p2908
(dp2909
g6
I2729
sg7
S'Romani'
p2910
sg9
I0
sg10
I197
sg11
I69
sg12
g13
sg14
S'cinquinez'
p2911
sba(itravian_raidmap
raid
p2912
(dp2913
g6
I3165
sg7
S'Romani'
p2914
sg9
I0
sg10
I173
sg11
I83
sg12
g13
sg14
S'19antonio88'
p2915
sba(itravian_raidmap
raid
p2916
(dp2917
g6
I5048
sg7
S'Teutoni'
p2918
sg9
I0
sg10
I197
sg11
I13
sg12
g13
sg14
S'supremo1'
p2919
sba(itravian_raidmap
raid
p2920
(dp2921
g6
I4410
sg7
S'Teutoni'
p2922
sg9
I0
sg10
I201
sg11
I95
sg12
g13
sg14
S'-Manpower-'
p2923
sba(itravian_raidmap
raid
p2924
(dp2925
g6
I3165
sg7
S'Romani'
p2926
sg9
I0
sg10
I173
sg11
I84
sg12
g13
sg14
S'19antonio88'
p2927
sba(itravian_raidmap
raid
p2928
(dp2929
g6
I5048
sg7
S'Teutoni'
p2930
sg9
I0
sg10
I198
sg11
I3
sg12
g13
sg14
S'supremo1'
p2931
sba(itravian_raidmap
raid
p2932
(dp2933
g6
I1597
sg7
S'Romani'
p2934
sg9
I0
sg10
I240
sg11
I82
sg12
g13
sg14
S'malusquo'
p2935
sba(itravian_raidmap
raid
p2936
(dp2937
g6
I4361
sg7
S'Teutoni'
p2938
sg9
I0
sg10
I208
sg11
I86
sg12
g13
sg14
S'SNICH'
p2939
sba(itravian_raidmap
raid
p2940
(dp2941
g6
I4077
sg7
S'Romani'
p2942
sg9
I0
sg10
I154
sg11
I33
sg12
g13
sg14
S'zH3t'
p2943
sba(itravian_raidmap
raid
p2944
(dp2945
g6
I2716
sg7
S'Romani'
p2946
sg9
I0
sg10
I197
sg11
I74
sg12
g13
sg14
S'Paso'
p2947
sba(itravian_raidmap
raid
p2948
(dp2949
g6
I771
sg7
S'Galli'
p2950
sg9
I0
sg10
I215
sg11
I91
sg12
g13
sg14
S'oookinemod'
p2951
sba(itravian_raidmap
raid
p2952
(dp2953
g6
I3165
sg7
S'Romani'
p2954
sg9
I0
sg10
I174
sg11
I84
sg12
g13
sg14
S'19antonio88'
p2955
sba(itravian_raidmap
raid
p2956
(dp2957
g6
I5163
sg7
S'Teutoni'
p2958
sg9
I0
sg10
I192
sg11
I34
sg12
g13
sg14
S'cicitex'
p2959
sba(itravian_raidmap
raid
p2960
(dp2961
g6
I6161
sg7
S'Teutoni'
p2962
sg9
I0
sg10
I154
sg11
I28
sg12
g13
sg14
S'Patavium'
p2963
sba(itravian_raidmap
raid
p2964
(dp2965
g6
I2616
sg7
S'Romani'
p2966
sg9
I0
sg10
I208
sg11
I56
sg12
g13
sg14
S'giuseppe michel'
p2967
sba(itravian_raidmap
raid
p2968
(dp2969
g6
I372
sg7
S'Galli'
p2970
sg9
I0
sg10
I245
sg11
I49
sg12
g13
sg14
S'Tommy0581'
p2971
sba(itravian_raidmap
raid
p2972
(dp2973
g6
I6161
sg7
S'Teutoni'
p2974
sg9
I0
sg10
I155
sg11
I26
sg12
g13
sg14
S'Patavium'
p2975
sba(itravian_raidmap
raid
p2976
(dp2977
g6
I168
sg7
S'Galli'
p2978
sg9
I0
sg10
I256
sg11
I32
sg12
g13
sg14
S'gisas'
p2979
sba(itravian_raidmap
raid
p2980
(dp2981
g6
I4410
sg7
S'Teutoni'
p2982
sg9
I0
sg10
I205
sg11
I94
sg12
g13
sg14
S'-Manpower-'
p2983
sba(itravian_raidmap
raid
p2984
(dp2985
g6
I3035
sg7
S'Romani'
p2986
sg9
I0
sg10
I182
sg11
I82
sg12
g13
sg14
S'damy73'
p2987
sba(itravian_raidmap
raid
p2988
(dp2989
g6
I4289
sg7
S'Romani'
p2990
sg9
I0
sg10
I126
sg11
I83
sg12
g13
sg14
S'Tekkaman'
p2991
sba(itravian_raidmap
raid
p2992
(dp2993
g6
I401
sg7
S'Galli'
p2994
sg9
I0
sg10
I248
sg11
I26
sg12
g13
sg14
S'MISTERmerda'
p2995
sba(itravian_raidmap
raid
p2996
(dp2997
g6
I2796
sg7
S'Romani'
p2998
sg9
I0
sg10
I209
sg11
I-14
sg12
g13
sg14
S'The Ice Man'
p2999
sba(itravian_raidmap
raid
p3000
(dp3001
g6
I4410
sg7
S'Teutoni'
p3002
sg9
I0
sg10
I205
sg11
I96
sg12
g13
sg14
S'-Manpower-'
p3003
sba(itravian_raidmap
raid
p3004
(dp3005
g6
I6161
sg7
S'Teutoni'
p3006
sg9
I0
sg10
I156
sg11
I27
sg12
g13
sg14
S'Patavium'
p3007
sba(itravian_raidmap
raid
p3008
(dp3009
g6
I860
sg7
S'Galli'
p3010
sg9
I0
sg10
I203
sg11
I112
sg12
g13
sg14
S'FeDe1990'
p3011
sba(itravian_raidmap
raid
p3012
(dp3013
g6
I860
sg7
S'Galli'
p3014
sg9
I0
sg10
I202
sg11
I114
sg12
g13
sg14
S'FeDe1990'
p3015
sba(itravian_raidmap
raid
p3016
(dp3017
g6
I5048
sg7
S'Teutoni'
p3018
sg9
I0
sg10
I202
sg11
I4
sg12
g13
sg14
S'supremo1'
p3019
sba(itravian_raidmap
raid
p3020
(dp3021
g6
I4077
sg7
S'Romani'
p3022
sg9
I0
sg10
I159
sg11
I21
sg12
g13
sg14
S'zH3t'
p3023
sba(itravian_raidmap
raid
p3024
(dp3025
g6
I860
sg7
S'Galli'
p3026
sg9
I0
sg10
I203
sg11
I113
sg12
g13
sg14
S'FeDe1990'
p3027
sba(itravian_raidmap
raid
p3028
(dp3029
g6
I5431
sg7
S'Teutoni'
p3030
sg9
I0
sg10
I158
sg11
I101
sg12
g13
sg14
S'incamax'
p3031
sba(itravian_raidmap
raid
p3032
(dp3033
g6
I1958
sg7
S'Galli'
p3034
sg9
I0
sg10
I172
sg11
I80
sg12
g13
sg14
S'kiara'
p3035
sba(itravian_raidmap
raid
p3036
(dp3037
g6
I5164
sg7
S'Teutoni'
p3038
sg9
I0
sg10
I198
sg11
I5
sg12
g13
sg14
S'iris1914'
p3039
sba(itravian_raidmap
raid
p3040
(dp3041
g6
I2792
sg7
S'Romani'
p3042
sg9
I0
sg10
I202
sg11
I60
sg12
g13
sg14
S'alexandrus'
p3043
sba(itravian_raidmap
raid
p3044
(dp3045
g6
I6161
sg7
S'Teutoni'
p3046
sg9
I0
sg10
I151
sg11
I52
sg12
g13
sg14
S'Patavium'
p3047
sba(itravian_raidmap
raid
p3048
(dp3049
g6
I5048
sg7
S'Teutoni'
p3050
sg9
I0
sg10
I203
sg11
I2
sg12
g13
sg14
S'supremo1'
p3051
sba(itravian_raidmap
raid
p3052
(dp3053
g6
I388
sg7
S'Galli'
p3054
sg9
I0
sg10
I241
sg11
I71
sg12
g13
sg14
S'DEVILMAN'
p3055
sba(itravian_raidmap
raid
p3056
(dp3057
g6
I6475
sg7
S'Teutoni'
p3058
sg9
I0
sg10
I139
sg11
I50
sg12
g13
sg14
S'vietnam'
p3059
sba(itravian_raidmap
raid
p3060
(dp3061
g6
I4077
sg7
S'Romani'
p3062
sg9
I0
sg10
I160
sg11
I19
sg12
g13
sg14
S'zH3t'
p3063
sba(itravian_raidmap
raid
p3064
(dp3065
g6
I6161
sg7
S'Teutoni'
p3066
sg9
I0
sg10
I157
sg11
I32
sg12
g13
sg14
S'Patavium'
p3067
sba(itravian_raidmap
raid
p3068
(dp3069
g6
I5164
sg7
S'Teutoni'
p3070
sg9
I0
sg10
I199
sg11
I1
sg12
g13
sg14
S'iris1914'
p3071
sba(itravian_raidmap
raid
p3072
(dp3073
g6
I5164
sg7
S'Teutoni'
p3074
sg9
I0
sg10
I199
sg11
I2
sg12
g13
sg14
S'iris1914'
p3075
sba(itravian_raidmap
raid
p3076
(dp3077
g6
I6475
sg7
S'Teutoni'
p3078
sg9
I0
sg10
I139
sg11
I51
sg12
g13
sg14
S'vietnam'
p3079
sba(itravian_raidmap
raid
p3080
(dp3081
g6
I5164
sg7
S'Teutoni'
p3082
sg9
I0
sg10
I199
sg11
I5
sg12
g13
sg14
S'iris1914'
p3083
sba(itravian_raidmap
raid
p3084
(dp3085
g6
I6161
sg7
S'Teutoni'
p3086
sg9
I0
sg10
I157
sg11
I33
sg12
g13
sg14
S'Patavium'
p3087
sba(itravian_raidmap
raid
p3088
(dp3089
g6
I332
sg7
S'Galli'
p3090
sg9
I0
sg10
I250
sg11
I44
sg12
g13
sg14
S'covenant21kill'
p3091
sba(itravian_raidmap
raid
p3092
(dp3093
g6
I5048
sg7
S'Teutoni'
p3094
sg9
I0
sg10
I204
sg11
I4
sg12
g13
sg14
S'supremo1'
p3095
sba(itravian_raidmap
raid
p3096
(dp3097
g6
I4122
sg7
S'Romani'
p3098
sg9
I0
sg10
I137
sg11
I83
sg12
g13
sg14
S'Don V.Corleone'
p3099
sba(itravian_raidmap
raid
p3100
(dp3101
g6
I3501
sg7
S'Galli'
p3102
sg9
I0
sg10
I112
sg11
I68
sg12
g13
sg14
S'nano989'
p3103
sba(itravian_raidmap
raid
p3104
(dp3105
g6
I217
sg7
S'Galli'
p3106
sg9
I0
sg10
I255
sg11
I44
sg12
g13
sg14
S'fabiomaster'
p3107
sba(itravian_raidmap
raid
p3108
(dp3109
g6
I4416
sg7
S'Romani'
p3110
sg9
I0
sg10
I146
sg11
I30
sg12
g13
sg14
S'alechris'
p3111
sba(itravian_raidmap
raid
p3112
(dp3113
g6
I3159
sg7
S'Romani'
p3114
sg9
I0
sg10
I159
sg11
I118
sg12
g13
sg14
S'marchino1'
p3115
sba(itravian_raidmap
raid
p3116
(dp3117
g6
I4416
sg7
S'Romani'
p3118
sg9
I0
sg10
I146
sg11
I31
sg12
g13
sg14
S'alechris'
p3119
sba(itravian_raidmap
raid
p3120
(dp3121
g6
I4122
sg7
S'Romani'
p3122
sg9
I0
sg10
I137
sg11
I84
sg12
g13
sg14
S'Don V.Corleone'
p3123
sba(itravian_raidmap
raid
p3124
(dp3125
g6
I2792
sg7
S'Romani'
p3126
sg9
I0
sg10
I201
sg11
I69
sg12
g13
sg14
S'alexandrus'
p3127
sba(itravian_raidmap
raid
p3128
(dp3129
g6
I6475
sg7
S'Teutoni'
p3130
sg9
I0
sg10
I140
sg11
I53
sg12
g13
sg14
S'vietnam'
p3131
sba(itravian_raidmap
raid
p3132
(dp3133
g6
I3035
sg7
S'Romani'
p3134
sg9
I0
sg10
I185
sg11
I84
sg12
g13
sg14
S'damy73'
p3135
sba(itravian_raidmap
raid
p3136
(dp3137
g6
I2792
sg7
S'Romani'
p3138
sg9
I0
sg10
I201
sg11
I70
sg12
g13
sg14
S'alexandrus'
p3139
sba(itravian_raidmap
raid
p3140
(dp3141
g6
I6161
sg7
S'Teutoni'
p3142
sg9
I0
sg10
I159
sg11
I32
sg12
g13
sg14
S'Patavium'
p3143
sba(itravian_raidmap
raid
p3144
(dp3145
g6
I3159
sg7
S'Romani'
p3146
sg9
I0
sg10
I159
sg11
I119
sg12
g13
sg14
S'marchino1'
p3147
sba(itravian_raidmap
raid
p3148
(dp3149
g6
I2750
sg7
S'Romani'
p3150
sg9
I0
sg10
I213
sg11
I26
sg12
g13
sg14
S'distruggitore'
p3151
sba(itravian_raidmap
raid
p3152
(dp3153
g6
I4160
sg7
S'Romani'
p3154
sg9
I0
sg10
I132
sg11
I90
sg12
g13
sg14
S'LexSor'
p3155
sba(itravian_raidmap
raid
p3156
(dp3157
g6
I3159
sg7
S'Romani'
p3158
sg9
I0
sg10
I160
sg11
I118
sg12
g13
sg14
S'marchino1'
p3159
sba(itravian_raidmap
raid
p3160
(dp3161
g6
I3035
sg7
S'Romani'
p3162
sg9
I0
sg10
I186
sg11
I83
sg12
g13
sg14
S'damy73'
p3163
sba(itravian_raidmap
raid
p3164
(dp3165
g6
I2792
sg7
S'Romani'
p3166
sg9
I0
sg10
I201
sg11
I71
sg12
g13
sg14
S'alexandrus'
p3167
sba(itravian_raidmap
raid
p3168
(dp3169
g6
I4160
sg7
S'Romani'
p3170
sg9
I0
sg10
I133
sg11
I89
sg12
g13
sg14
S'LexSor'
p3171
sba(itravian_raidmap
raid
p3172
(dp3173
g6
I4122
sg7
S'Romani'
p3174
sg9
I0
sg10
I138
sg11
I84
sg12
g13
sg14
S'Don V.Corleone'
p3175
sba(itravian_raidmap
raid
p3176
(dp3177
g6
I4416
sg7
S'Romani'
p3178
sg9
I0
sg10
I145
sg11
I39
sg12
g13
sg14
S'alechris'
p3179
sba(itravian_raidmap
raid
p3180
(dp3181
g6
I4416
sg7
S'Romani'
p3182
sg9
I0
sg10
I147
sg11
I31
sg12
g13
sg14
S'alechris'
p3183
sba(itravian_raidmap
raid
p3184
(dp3185
g6
I2792
sg7
S'Romani'
p3186
sg9
I0
sg10
I202
sg11
I69
sg12
g13
sg14
S'alexandrus'
p3187
sba(itravian_raidmap
raid
p3188
(dp3189
g6
I4416
sg7
S'Romani'
p3190
sg9
I0
sg10
I147
sg11
I32
sg12
g13
sg14
S'alechris'
p3191
sba(itravian_raidmap
raid
p3192
(dp3193
g6
I3159
sg7
S'Romani'
p3194
sg9
I0
sg10
I160
sg11
I119
sg12
g13
sg14
S'marchino1'
p3195
sba(itravian_raidmap
raid
p3196
(dp3197
g6
I4160
sg7
S'Romani'
p3198
sg9
I0
sg10
I133
sg11
I90
sg12
g13
sg14
S'LexSor'
p3199
sba(itravian_raidmap
raid
p3200
(dp3201
g6
I6475
sg7
S'Teutoni'
p3202
sg9
I0
sg10
I140
sg11
I57
sg12
g13
sg14
S'vietnam'
p3203
sba(itravian_raidmap
raid
p3204
(dp3205
g6
I4122
sg7
S'Romani'
p3206
sg9
I0
sg10
I138
sg11
I85
sg12
g13
sg14
S'Don V.Corleone'
p3207
sba(itravian_raidmap
raid
p3208
(dp3209
g6
I3159
sg7
S'Romani'
p3210
sg9
I0
sg10
I161
sg11
I118
sg12
g13
sg14
S'marchino1'
p3211
sba(itravian_raidmap
raid
p3212
(dp3213
g6
I4261
sg7
S'Romani'
p3214
sg9
I0
sg10
I135
sg11
I80
sg12
g13
sg14
S'nikon77'
p3215
sba(itravian_raidmap
raid
p3216
(dp3217
g6
I4160
sg7
S'Romani'
p3218
sg9
I0
sg10
I134
sg11
I89
sg12
g13
sg14
S'LexSor'
p3219
sba(itravian_raidmap
raid
p3220
(dp3221
g6
I6475
sg7
S'Teutoni'
p3222
sg9
I0
sg10
I140
sg11
I58
sg12
g13
sg14
S'vietnam'
p3223
sba(itravian_raidmap
raid
p3224
(dp3225
g6
I4122
sg7
S'Romani'
p3226
sg9
I0
sg10
I139
sg11
I84
sg12
g13
sg14
S'Don V.Corleone'
p3227
sba(itravian_raidmap
raid
p3228
(dp3229
g6
I4416
sg7
S'Romani'
p3230
sg9
I0
sg10
I146
sg11
I39
sg12
g13
sg14
S'alechris'
p3231
sba(itravian_raidmap
raid
p3232
(dp3233
g6
I3159
sg7
S'Romani'
p3234
sg9
I0
sg10
I161
sg11
I119
sg12
g13
sg14
S'marchino1'
p3235
sba(itravian_raidmap
raid
p3236
(dp3237
g6
I4160
sg7
S'Romani'
p3238
sg9
I0
sg10
I134
sg11
I90
sg12
g13
sg14
S'LexSor'
p3239
sba(itravian_raidmap
raid
p3240
(dp3241
g6
I4261
sg7
S'Romani'
p3242
sg9
I0
sg10
I136
sg11
I80
sg12
g13
sg14
S'nikon77'
p3243
sba(itravian_raidmap
raid
p3244
(dp3245
g6
I4416
sg7
S'Romani'
p3246
sg9
I0
sg10
I147
sg11
I38
sg12
g13
sg14
S'alechris'
p3247
sba(itravian_raidmap
raid
p3248
(dp3249
g6
I4416
sg7
S'Romani'
p3250
sg9
I0
sg10
I147
sg11
I39
sg12
g13
sg14
S'alechris'
p3251
sba(itravian_raidmap
raid
p3252
(dp3253
g6
I4261
sg7
S'Romani'
p3254
sg9
I0
sg10
I137
sg11
I80
sg12
g13
sg14
S'nikon77'
p3255
sba(itravian_raidmap
raid
p3256
(dp3257
g6
I3501
sg7
S'Galli'
p3258
sg9
I0
sg10
I114
sg11
I71
sg12
g13
sg14
S'nano989'
p3259
sba(itravian_raidmap
raid
p3260
(dp3261
g6
I4122
sg7
S'Romani'
p3262
sg9
I0
sg10
I134
sg11
I95
sg12
g13
sg14
S'Don V.Corleone'
p3263
sba(itravian_raidmap
raid
p3264
(dp3265
g6
I4077
sg7
S'Romani'
p3266
sg9
I0
sg10
I164
sg11
I26
sg12
g13
sg14
S'zH3t'
p3267
sba(itravian_raidmap
raid
p3268
(dp3269
g6
I293
sg7
S'Galli'
p3270
sg9
I0
sg10
I256
sg11
I40
sg12
g13
sg14
S'mene'
p3271
sba(itravian_raidmap
raid
p3272
(dp3273
g6
I5433
sg7
S'Teutoni'
p3274
sg9
I0
sg10
I167
sg11
I100
sg12
g13
sg14
S'incamax'
p3275
sba(itravian_raidmap
raid
p3276
(dp3277
g6
I5431
sg7
S'Teutoni'
p3278
sg9
I0
sg10
I169
sg11
I97
sg12
g13
sg14
S'incamax'
p3279
sba(itravian_raidmap
raid
p3280
(dp3281
g6
I4077
sg7
S'Romani'
p3282
sg9
I0
sg10
I165
sg11
I21
sg12
g13
sg14
S'zH3t'
p3283
sba(itravian_raidmap
raid
p3284
(dp3285
g6
I3501
sg7
S'Galli'
p3286
sg9
I0
sg10
I115
sg11
I70
sg12
g13
sg14
S'nano989'
p3287
sba(itravian_raidmap
raid
p3288
(dp3289
g6
I5433
sg7
S'Teutoni'
p3290
sg9
I0
sg10
I168
sg11
I99
sg12
g13
sg14
S'incamax'
p3291
sba(itravian_raidmap
raid
p3292
(dp3293
g6
I5492
sg7
S'Teutoni'
p3294
sg9
I0
sg10
I171
sg11
I89
sg12
g13
sg14
S'mattarco'
p3295
sba(itravian_raidmap
raid
p3296
(dp3297
g6
I4261
sg7
S'Romani'
p3298
sg9
I0
sg10
I133
sg11
I88
sg12
g13
sg14
S'nikon77'
p3299
sba(itravian_raidmap
raid
p3300
(dp3301
g6
I5433
sg7
S'Teutoni'
p3302
sg9
I0
sg10
I168
sg11
I100
sg12
g13
sg14
S'incamax'
p3303
sba(itravian_raidmap
raid
p3304
(dp3305
g6
I3059
sg7
S'Galli'
p3306
sg9
I0
sg10
I129
sg11
I81
sg12
g13
sg14
S'T Rex'
p3307
sba(itravian_raidmap
raid
p3308
(dp3309
g6
I3501
sg7
S'Galli'
p3310
sg9
I0
sg10
I115
sg11
I71
sg12
g13
sg14
S'nano989'
p3311
sba(itravian_raidmap
raid
p3312
(dp3313
g6
I5433
sg7
S'Teutoni'
p3314
sg9
I0
sg10
I169
sg11
I99
sg12
g13
sg14
S'incamax'
p3315
sba(itravian_raidmap
raid
p3316
(dp3317
g6
I5492
sg7
S'Teutoni'
p3318
sg9
I0
sg10
I172
sg11
I89
sg12
g13
sg14
S'mattarco'
p3319
sba(itravian_raidmap
raid
p3320
(dp3321
g6
I3501
sg7
S'Galli'
p3322
sg9
I0
sg10
I116
sg11
I70
sg12
g13
sg14
S'nano989'
p3323
sba(itravian_raidmap
raid
p3324
(dp3325
g6
I4583
sg7
S'Teutoni'
p3326
sg9
I0
sg10
I221
sg11
I61
sg12
g13
sg14
S'MILIZIADE'
p3327
sba(itravian_raidmap
raid
p3328
(dp3329
g6
I5433
sg7
S'Teutoni'
p3330
sg9
I0
sg10
I169
sg11
I100
sg12
g13
sg14
S'incamax'
p3331
sba(itravian_raidmap
raid
p3332
(dp3333
g6
I5492
sg7
S'Teutoni'
p3334
sg9
I0
sg10
I174
sg11
I86
sg12
g13
sg14
S'mattarco'
p3335
sba(itravian_raidmap
raid
p3336
(dp3337
g6
I5492
sg7
S'Teutoni'
p3338
sg9
I0
sg10
I169
sg11
I96
sg12
g13
sg14
S'mattarco'
p3339
sba(itravian_raidmap
raid
p3340
(dp3341
g6
I4583
sg7
S'Teutoni'
p3342
sg9
I0
sg10
I222
sg11
I60
sg12
g13
sg14
S'MILIZIADE'
p3343
sba(itravian_raidmap
raid
p3344
(dp3345
g6
I4160
sg7
S'Romani'
p3346
sg9
I0
sg10
I134
sg11
I96
sg12
g13
sg14
S'LexSor'
p3347
sba(itravian_raidmap
raid
p3348
(dp3349
g6
I243
sg7
S'Galli'
p3350
sg9
I0
sg10
I260
sg11
I38
sg12
g13
sg14
S'rocki balboa'
p3351
sba(itravian_raidmap
raid
p3352
(dp3353
g6
I4261
sg7
S'Romani'
p3354
sg9
I0
sg10
I137
sg11
I85
sg12
g13
sg14
S'nikon77'
p3355
sba(itravian_raidmap
raid
p3356
(dp3357
g6
I3501
sg7
S'Galli'
p3358
sg9
I0
sg10
I117
sg11
I70
sg12
g13
sg14
S'nano989'
p3359
sba(itravian_raidmap
raid
p3360
(dp3361
g6
I4122
sg7
S'Romani'
p3362
sg9
I0
sg10
I137
sg11
I95
sg12
g13
sg14
S'Don V.Corleone'
p3363
sba(itravian_raidmap
raid
p3364
(dp3365
g6
I5492
sg7
S'Teutoni'
p3366
sg9
I0
sg10
I170
sg11
I96
sg12
g13
sg14
S'mattarco'
p3367
sba(itravian_raidmap
raid
p3368
(dp3369
g6
I3165
sg7
S'Romani'
p3370
sg9
I0
sg10
I185
sg11
I86
sg12
g13
sg14
S'19antonio88'
p3371
sba(itravian_raidmap
raid
p3372
(dp3373
g6
I4261
sg7
S'Romani'
p3374
sg9
I0
sg10
I136
sg11
I87
sg12
g13
sg14
S'nikon77'
p3375
sba(itravian_raidmap
raid
p3376
(dp3377
g6
I5431
sg7
S'Teutoni'
p3378
sg9
I0
sg10
I167
sg11
I106
sg12
g13
sg14
S'incamax'
p3379
sba(itravian_raidmap
raid
p3380
(dp3381
g6
I5492
sg7
S'Teutoni'
p3382
sg9
I0
sg10
I175
sg11
I87
sg12
g13
sg14
S'mattarco'
p3383
sba(itravian_raidmap
raid
p3384
(dp3385
g6
I4261
sg7
S'Romani'
p3386
sg9
I0
sg10
I140
sg11
I81
sg12
g13
sg14
S'nikon77'
p3387
sba(itravian_raidmap
raid
p3388
(dp3389
g6
I3159
sg7
S'Romani'
p3390
sg9
I0
sg10
I173
sg11
I110
sg12
g13
sg14
S'marchino1'
p3391
sba(itravian_raidmap
raid
p3392
(dp3393
g6
I6161
sg7
S'Teutoni'
p3394
sg9
I0
sg10
I168
sg11
I28
sg12
g13
sg14
S'Patavium'
p3395
sba(itravian_raidmap
raid
p3396
(dp3397
g6
I937
sg7
S'Galli'
p3398
sg9
I0
sg10
I236
sg11
I21
sg12
g13
sg14
S'f2000'
p3399
sba(itravian_raidmap
raid
p3400
(dp3401
g6
I4583
sg7
S'Teutoni'
p3402
sg9
I0
sg10
I224
sg11
I60
sg12
g13
sg14
S'MILIZIADE'
p3403
sba(itravian_raidmap
raid
p3404
(dp3405
g6
I238
sg7
S'Galli'
p3406
sg9
I0
sg10
I261
sg11
I41
sg12
g13
sg14
S'giancarlos'
p3407
sba(itravian_raidmap
raid
p3408
(dp3409
g6
I2616
sg7
S'Romani'
p3410
sg9
I0
sg10
I220
sg11
I55
sg12
g13
sg14
S'giuseppe michel'
p3411
sba(itravian_raidmap
raid
p3412
(dp3413
g6
I6119
sg7
S'Teutoni'
p3414
sg9
I0
sg10
I157
sg11
I72
sg12
g13
sg14
S'maw'
p3415
sba(itravian_raidmap
raid
p3416
(dp3417
g6
I4160
sg7
S'Romani'
p3418
sg9
I0
sg10
I135
sg11
I98
sg12
g13
sg14
S'LexSor'
p3419
sba(itravian_raidmap
raid
p3420
(dp3421
g6
I1077
sg7
S'Galli'
p3422
sg9
I0
sg10
I232
sg11
I7
sg12
g13
sg14
S'turpido'
p3423
sba(itravian_raidmap
raid
p3424
(dp3425
g6
I967
sg7
S'Galli'
p3426
sg9
I0
sg10
I221
sg11
I84
sg12
g13
sg14
S'Jram'
p3427
sba(itravian_raidmap
raid
p3428
(dp3429
g6
I4261
sg7
S'Romani'
p3430
sg9
I0
sg10
I138
sg11
I87
sg12
g13
sg14
S'nikon77'
p3431
sba(itravian_raidmap
raid
p3432
(dp3433
g6
I5492
sg7
S'Teutoni'
p3434
sg9
I0
sg10
I176
sg11
I90
sg12
g13
sg14
S'mattarco'
p3435
sba(itravian_raidmap
raid
p3436
(dp3437
g6
I3501
sg7
S'Galli'
p3438
sg9
I0
sg10
I118
sg11
I72
sg12
g13
sg14
S'nano989'
p3439
sba(itravian_raidmap
raid
p3440
(dp3441
g6
I2616
sg7
S'Romani'
p3442
sg9
I0
sg10
I221
sg11
I55
sg12
g13
sg14
S'giuseppe michel'
p3443
sba(itravian_raidmap
raid
p3444
(dp3445
g6
I2616
sg7
S'Romani'
p3446
sg9
I0
sg10
I221
sg11
I56
sg12
g13
sg14
S'giuseppe michel'
p3447
sba(itravian_raidmap
raid
p3448
(dp3449
g6
I2616
sg7
S'Romani'
p3450
sg9
I0
sg10
I222
sg11
I55
sg12
g13
sg14
S'giuseppe michel'
p3451
sba(itravian_raidmap
raid
p3452
(dp3453
g6
I2548
sg7
S'Galli'
p3454
sg9
I0
sg10
I166
sg11
I60
sg12
g13
sg14
S'seven'
p3455
sba(itravian_raidmap
raid
p3456
(dp3457
g6
I5492
sg7
S'Teutoni'
p3458
sg9
I0
sg10
I174
sg11
I99
sg12
g13
sg14
S'mattarco'
p3459
sba(itravian_raidmap
raid
p3460
(dp3461
g6
I1077
sg7
S'Galli'
p3462
sg9
I0
sg10
I234
sg11
I7
sg12
g13
sg14
S'turpido'
p3463
sba(itravian_raidmap
raid
p3464
(dp3465
g6
I3059
sg7
S'Galli'
p3466
sg9
I0
sg10
I134
sg11
I82
sg12
g13
sg14
S'T Rex'
p3467
sba(itravian_raidmap
raid
p3468
(dp3469
g6
I3059
sg7
S'Galli'
p3470
sg9
I0
sg10
I133
sg11
I84
sg12
g13
sg14
S'T Rex'
p3471
sba(itravian_raidmap
raid
p3472
(dp3473
g6
I3059
sg7
S'Galli'
p3474
sg9
I0
sg10
I132
sg11
I86
sg12
g13
sg14
S'T Rex'
p3475
sba(itravian_raidmap
raid
p3476
(dp3477
g6
I5492
sg7
S'Teutoni'
p3478
sg9
I0
sg10
I178
sg11
I94
sg12
g13
sg14
S'mattarco'
p3479
sba(itravian_raidmap
raid
p3480
(dp3481
g6
I3059
sg7
S'Galli'
p3482
sg9
I0
sg10
I134
sg11
I84
sg12
g13
sg14
S'T Rex'
p3483
sba(itravian_raidmap
raid
p3484
(dp3485
g6
I1339
sg7
S'Galli'
p3486
sg9
I0
sg10
I217
sg11
I61
sg12
g13
sg14
S'roberto95'
p3487
sba(itravian_raidmap
raid
p3488
(dp3489
g6
I3059
sg7
S'Galli'
p3490
sg9
I0
sg10
I134
sg11
I85
sg12
g13
sg14
S'T Rex'
p3491
sba(itravian_raidmap
raid
p3492
(dp3493
g6
I4358
sg7
S'Teutoni'
p3494
sg9
I0
sg10
I232
sg11
I88
sg12
g13
sg14
S'SNICH'
p3495
sba(itravian_raidmap
raid
p3496
(dp3497
g6
I1339
sg7
S'Galli'
p3498
sg9
I0
sg10
I218
sg11
I61
sg12
g13
sg14
S'roberto95'
p3499
sba(itravian_raidmap
raid
p3500
(dp3501
g6
I627
sg7
S'Galli'
p3502
sg9
I0
sg10
I249
sg11
I51
sg12
g13
sg14
S'acquarius'
p3503
sba(itravian_raidmap
raid
p3504
(dp3505
g6
I2750
sg7
S'Romani'
p3506
sg9
I0
sg10
I227
sg11
I15
sg12
g13
sg14
S'distruggitore'
p3507
sba(itravian_raidmap
raid
p3508
(dp3509
g6
I2750
sg7
S'Romani'
p3510
sg9
I0
sg10
I227
sg11
I16
sg12
g13
sg14
S'distruggitore'
p3511
sba(itravian_raidmap
raid
p3512
(dp3513
g6
I5492
sg7
S'Teutoni'
p3514
sg9
I0
sg10
I185
sg11
I88
sg12
g13
sg14
S'mattarco'
p3515
sba(itravian_raidmap
raid
p3516
(dp3517
g6
I1339
sg7
S'Galli'
p3518
sg9
I0
sg10
I219
sg11
I61
sg12
g13
sg14
S'roberto95'
p3519
sba(itravian_raidmap
raid
p3520
(dp3521
g6
I2750
sg7
S'Romani'
p3522
sg9
I0
sg10
I228
sg11
I15
sg12
g13
sg14
S'distruggitore'
p3523
sba(itravian_raidmap
raid
p3524
(dp3525
g6
I6161
sg7
S'Teutoni'
p3526
sg9
I0
sg10
I177
sg11
I32
sg12
g13
sg14
S'Patavium'
p3527
sba(itravian_raidmap
raid
p3528
(dp3529
g6
I1339
sg7
S'Galli'
p3530
sg9
I0
sg10
I219
sg11
I62
sg12
g13
sg14
S'roberto95'
p3531
sba(itravian_raidmap
raid
p3532
(dp3533
g6
I982
sg7
S'Galli'
p3534
sg9
I0
sg10
I237
sg11
I51
sg12
g13
sg14
S'lino77'
p3535
sba(itravian_raidmap
raid
p3536
(dp3537
g6
I2131
sg7
S'Galli'
p3538
sg9
I0
sg10
I198
sg11
I7
sg12
g13
sg14
S'Fante di poppe'
p3539
sba(itravian_raidmap
raid
p3540
(dp3541
g6
I982
sg7
S'Galli'
p3542
sg9
I0
sg10
I237
sg11
I53
sg12
g13
sg14
S'lino77'
p3543
sba(itravian_raidmap
raid
p3544
(dp3545
g6
I4583
sg7
S'Teutoni'
p3546
sg9
I0
sg10
I233
sg11
I71
sg12
g13
sg14
S'MILIZIADE'
p3547
sba(itravian_raidmap
raid
p3548
(dp3549
g6
I775
sg7
S'Galli'
p3550
sg9
I0
sg10
I249
sg11
I40
sg12
g13
sg14
S'Gio4Life'
p3551
sba(itravian_raidmap
raid
p3552
(dp3553
g6
I7393
sg7
S'Teutoni'
p3554
sg9
I0
sg10
I128
sg11
I46
sg12
g13
sg14
S'egio81'
p3555
sba(itravian_raidmap
raid
p3556
(dp3557
g6
I7393
sg7
S'Teutoni'
p3558
sg9
I0
sg10
I129
sg11
I45
sg12
g13
sg14
S'egio81'
p3559
sba(itravian_raidmap
raid
p3560
(dp3561
g6
I3972
sg7
S'Romani'
p3562
sg9
I0
sg10
I155
sg11
I103
sg12
g13
sg14
S'grande demone'
p3563
sba(itravian_raidmap
raid
p3564
(dp3565
g6
I7393
sg7
S'Teutoni'
p3566
sg9
I0
sg10
I131
sg11
I46
sg12
g13
sg14
S'egio81'
p3567
sba(itravian_raidmap
raid
p3568
(dp3569
g6
I775
sg7
S'Galli'
p3570
sg9
I0
sg10
I251
sg11
I40
sg12
g13
sg14
S'Gio4Life'
p3571
sba(itravian_raidmap
raid
p3572
(dp3573
g6
I7393
sg7
S'Teutoni'
p3574
sg9
I0
sg10
I131
sg11
I47
sg12
g13
sg14
S'egio81'
p3575
sba(itravian_raidmap
raid
p3576
(dp3577
g6
I4091
sg7
S'Romani'
p3578
sg9
I0
sg10
I168
sg11
I71
sg12
g13
sg14
S'draka'
p3579
sba(itravian_raidmap
raid
p3580
(dp3581
g6
I4620
sg7
S'Teutoni'
p3582
sg9
I0
sg10
I246
sg11
I32
sg12
g13
sg14
S'Marco guida'
p3583
sba(itravian_raidmap
raid
p3584
(dp3585
g6
I3972
sg7
S'Romani'
p3586
sg9
I0
sg10
I158
sg11
I102
sg12
g13
sg14
S'grande demone'
p3587
sba(itravian_raidmap
raid
p3588
(dp3589
g6
I4091
sg7
S'Romani'
p3590
sg9
I0
sg10
I169
sg11
I72
sg12
g13
sg14
S'draka'
p3591
sba(itravian_raidmap
raid
p3592
(dp3593
g6
I3972
sg7
S'Romani'
p3594
sg9
I0
sg10
I160
sg11
I100
sg12
g13
sg14
S'grande demone'
p3595
sba(itravian_raidmap
raid
p3596
(dp3597
g6
I3972
sg7
S'Romani'
p3598
sg9
I0
sg10
I161
sg11
I99
sg12
g13
sg14
S'grande demone'
p3599
sba(itravian_raidmap
raid
p3600
(dp3601
g6
I3972
sg7
S'Romani'
p3602
sg9
I0
sg10
I161
sg11
I100
sg12
g13
sg14
S'grande demone'
p3603
sba(itravian_raidmap
raid
p3604
(dp3605
g6
I6915
sg7
S'Teutoni'
p3606
sg9
I0
sg10
I160
sg11
I27
sg12
g13
sg14
S'dany0000'
p3607
sba(itravian_raidmap
raid
p3608
(dp3609
g6
I997
sg7
S'Galli'
p3610
sg9
I0
sg10
I239
sg11
I69
sg12
g13
sg14
S'Hunk'
p3611
sba(itravian_raidmap
raid
p3612
(dp3613
g6
I3972
sg7
S'Romani'
p3614
sg9
I0
sg10
I164
sg11
I99
sg12
g13
sg14
S'grande demone'
p3615
sba(itravian_raidmap
raid
p3616
(dp3617
g6
I997
sg7
S'Galli'
p3618
sg9
I0
sg10
I240
sg11
I69
sg12
g13
sg14
S'Hunk'
p3619
sba(itravian_raidmap
raid
p3620
(dp3621
g6
I2549
sg7
S'Galli'
p3622
sg9
I0
sg10
I179
sg11
I62
sg12
g13
sg14
S'DarioKSJ2'
p3623
sba(itravian_raidmap
raid
p3624
(dp3625
g6
I6808
sg7
S'Teutoni'
p3626
sg9
I0
sg10
I158
sg11
I60
sg12
g13
sg14
S'TEUTONICMAN'
p3627
sba(itravian_raidmap
raid
p3628
(dp3629
g6
I6808
sg7
S'Teutoni'
p3630
sg9
I0
sg10
I158
sg11
I61
sg12
g13
sg14
S'TEUTONICMAN'
p3631
sba(itravian_raidmap
raid
p3632
(dp3633
g6
I2549
sg7
S'Galli'
p3634
sg9
I0
sg10
I180
sg11
I62
sg12
g13
sg14
S'DarioKSJ2'
p3635
sba(itravian_raidmap
raid
p3636
(dp3637
g6
I6915
sg7
S'Teutoni'
p3638
sg9
I0
sg10
I163
sg11
I28
sg12
g13
sg14
S'dany0000'
p3639
sba(itravian_raidmap
raid
p3640
(dp3641
g6
I6808
sg7
S'Teutoni'
p3642
sg9
I0
sg10
I159
sg11
I60
sg12
g13
sg14
S'TEUTONICMAN'
p3643
sba(itravian_raidmap
raid
p3644
(dp3645
g6
I5722
sg7
S'Teutoni'
p3646
sg9
I0
sg10
I198
sg11
I77
sg12
g13
sg14
S'Gung-Ho Guns'
p3647
sba(itravian_raidmap
raid
p3648
(dp3649
g6
I2407
sg7
S'Romani'
p3650
sg9
I0
sg10
I244
sg11
I72
sg12
g13
sg14
S'danyontheroad'
p3651
sba(itravian_raidmap
raid
p3652
(dp3653
g6
I6808
sg7
S'Teutoni'
p3654
sg9
I0
sg10
I159
sg11
I61
sg12
g13
sg14
S'TEUTONICMAN'
p3655
sba(itravian_raidmap
raid
p3656
(dp3657
g6
I7101
sg7
S'Teutoni'
p3658
sg9
I0
sg10
I156
sg11
I32
sg12
g13
sg14
S'tun'
p3659
sba(itravian_raidmap
raid
p3660
(dp3661
g6
I6808
sg7
S'Teutoni'
p3662
sg9
I0
sg10
I160
sg11
I60
sg12
g13
sg14
S'TEUTONICMAN'
p3663
sba(itravian_raidmap
raid
p3664
(dp3665
g6
I2549
sg7
S'Galli'
p3666
sg9
I0
sg10
I181
sg11
I62
sg12
g13
sg14
S'DarioKSJ2'
p3667
sba(itravian_raidmap
raid
p3668
(dp3669
g6
I6808
sg7
S'Teutoni'
p3670
sg9
I0
sg10
I160
sg11
I61
sg12
g13
sg14
S'TEUTONICMAN'
p3671
sba(itravian_raidmap
raid
p3672
(dp3673
g6
I3343
sg7
S'Romani'
p3674
sg9
I0
sg10
I219
sg11
I0
sg12
g13
sg14
S'Mizar'
p3675
sba(itravian_raidmap
raid
p3676
(dp3677
g6
I3343
sg7
S'Romani'
p3678
sg9
I0
sg10
I219
sg11
I-1
sg12
g13
sg14
S'Mizar'
p3679
sba(itravian_raidmap
raid
p3680
(dp3681
g6
I3343
sg7
S'Romani'
p3682
sg9
I0
sg10
I219
sg11
I2
sg12
g13
sg14
S'Mizar'
p3683
sba(itravian_raidmap
raid
p3684
(dp3685
g6
I2131
sg7
S'Galli'
p3686
sg9
I0
sg10
I208
sg11
I-7
sg12
g13
sg14
S'Fante di poppe'
p3687
sba(itravian_raidmap
raid
p3688
(dp3689
g6
I6915
sg7
S'Teutoni'
p3690
sg9
I0
sg10
I166
sg11
I26
sg12
g13
sg14
S'dany0000'
p3691
sba(itravian_raidmap
raid
p3692
(dp3693
g6
I3475
sg7
S'Romani'
p3694
sg9
I0
sg10
I205
sg11
I63
sg12
g13
sg14
S'scavesdude'
p3695
sba(itravian_raidmap
raid
p3696
(dp3697
g6
I6808
sg7
S'Teutoni'
p3698
sg9
I0
sg10
I161
sg11
I62
sg12
g13
sg14
S'TEUTONICMAN'
p3699
sba(itravian_raidmap
raid
p3700
(dp3701
g6
I3007
sg7
S'Galli'
p3702
sg9
I0
sg10
I141
sg11
I103
sg12
g13
sg14
S'Simca88'
p3703
sba(itravian_raidmap
raid
p3704
(dp3705
g6
I3475
sg7
S'Romani'
p3706
sg9
I0
sg10
I205
sg11
I64
sg12
g13
sg14
S'scavesdude'
p3707
sba(itravian_raidmap
raid
p3708
(dp3709
g6
I3343
sg7
S'Romani'
p3710
sg9
I0
sg10
I220
sg11
I0
sg12
g13
sg14
S'Mizar'
p3711
sba(itravian_raidmap
raid
p3712
(dp3713
g6
I6808
sg7
S'Teutoni'
p3714
sg9
I0
sg10
I162
sg11
I60
sg12
g13
sg14
S'TEUTONICMAN'
p3715
sba(itravian_raidmap
raid
p3716
(dp3717
g6
I2407
sg7
S'Romani'
p3718
sg9
I0
sg10
I247
sg11
I70
sg12
g13
sg14
S'danyontheroad'
p3719
sba(itravian_raidmap
raid
p3720
(dp3721
g6
I6915
sg7
S'Teutoni'
p3722
sg9
I0
sg10
I167
sg11
I27
sg12
g13
sg14
S'dany0000'
p3723
sba(itravian_raidmap
raid
p3724
(dp3725
g6
I5590
sg7
S'Teutoni'
p3726
sg9
I0
sg10
I219
sg11
I28
sg12
g13
sg14
S'dejan'
p3727
sba(itravian_raidmap
raid
p3728
(dp3729
g6
I3475
sg7
S'Romani'
p3730
sg9
I0
sg10
I206
sg11
I63
sg12
g13
sg14
S'scavesdude'
p3731
sba(itravian_raidmap
raid
p3732
(dp3733
g6
I2407
sg7
S'Romani'
p3734
sg9
I0
sg10
I247
sg11
I71
sg12
g13
sg14
S'danyontheroad'
p3735
sba(itravian_raidmap
raid
p3736
(dp3737
g6
I6808
sg7
S'Teutoni'
p3738
sg9
I0
sg10
I162
sg11
I63
sg12
g13
sg14
S'TEUTONICMAN'
p3739
sba(itravian_raidmap
raid
p3740
(dp3741
g6
I3972
sg7
S'Romani'
p3742
sg9
I0
sg10
I173
sg11
I93
sg12
g13
sg14
S'grande demone'
p3743
sba(itravian_raidmap
raid
p3744
(dp3745
g6
I6915
sg7
S'Teutoni'
p3746
sg9
I0
sg10
I168
sg11
I26
sg12
g13
sg14
S'dany0000'
p3747
sba(itravian_raidmap
raid
p3748
(dp3749
g6
I5590
sg7
S'Teutoni'
p3750
sg9
I0
sg10
I220
sg11
I28
sg12
g13
sg14
S'dejan'
p3751
sba(itravian_raidmap
raid
p3752
(dp3753
g6
I5590
sg7
S'Teutoni'
p3754
sg9
I0
sg10
I220
sg11
I29
sg12
g13
sg14
S'dejan'
p3755
sba(itravian_raidmap
raid
p3756
(dp3757
g6
I6808
sg7
S'Teutoni'
p3758
sg9
I0
sg10
I162
sg11
I65
sg12
g13
sg14
S'TEUTONICMAN'
p3759
sba(itravian_raidmap
raid
p3760
(dp3761
g6
I6773
sg7
S'Teutoni'
p3762
sg9
I0
sg10
I176
sg11
I13
sg12
g13
sg14
S'ongii'
p3763
sba(itravian_raidmap
raid
p3764
(dp3765
g6
I6915
sg7
S'Teutoni'
p3766
sg9
I0
sg10
I169
sg11
I26
sg12
g13
sg14
S'dany0000'
p3767
sba(itravian_raidmap
raid
p3768
(dp3769
g6
I3343
sg7
S'Romani'
p3770
sg9
I0
sg10
I222
sg11
I4
sg12
g13
sg14
S'Mizar'
p3771
sba(itravian_raidmap
raid
p3772
(dp3773
g6
I5590
sg7
S'Teutoni'
p3774
sg9
I0
sg10
I221
sg11
I29
sg12
g13
sg14
S'dejan'
p3775
sba(itravian_raidmap
raid
p3776
(dp3777
g6
I2407
sg7
S'Romani'
p3778
sg9
I0
sg10
I249
sg11
I70
sg12
g13
sg14
S'danyontheroad'
p3779
sba(itravian_raidmap
raid
p3780
(dp3781
g6
I4091
sg7
S'Romani'
p3782
sg9
I0
sg10
I179
sg11
I73
sg12
g13
sg14
S'draka'
p3783
sba(itravian_raidmap
raid
p3784
(dp3785
g6
I6773
sg7
S'Teutoni'
p3786
sg9
I0
sg10
I177
sg11
I12
sg12
g13
sg14
S'ongii'
p3787
sba(itravian_raidmap
raid
p3788
(dp3789
g6
I6773
sg7
S'Teutoni'
p3790
sg9
I0
sg10
I177
sg11
I13
sg12
g13
sg14
S'ongii'
p3791
sba(itravian_raidmap
raid
p3792
(dp3793
g6
I6773
sg7
S'Teutoni'
p3794
sg9
I0
sg10
I177
sg11
I16
sg12
g13
sg14
S'ongii'
p3795
sba(itravian_raidmap
raid
p3796
(dp3797
g6
I1176
sg7
S'Galli'
p3798
sg9
I0
sg10
I240
sg11
I64
sg12
g13
sg14
S'Rodeano'
p3799
sba(itravian_raidmap
raid
p3800
(dp3801
g6
I5590
sg7
S'Teutoni'
p3802
sg9
I0
sg10
I223
sg11
I28
sg12
g13
sg14
S'dejan'
p3803
sba(itravian_raidmap
raid
p3804
(dp3805
g6
I3343
sg7
S'Romani'
p3806
sg9
I0
sg10
I224
sg11
I2
sg12
g13
sg14
S'Mizar'
p3807
sba(itravian_raidmap
raid
p3808
(dp3809
g6
I1176
sg7
S'Galli'
p3810
sg9
I0
sg10
I241
sg11
I64
sg12
g13
sg14
S'Rodeano'
p3811
sba(itravian_raidmap
raid
p3812
(dp3813
g6
I5722
sg7
S'Teutoni'
p3814
sg9
I0
sg10
I207
sg11
I76
sg12
g13
sg14
S'Gung-Ho Guns'
p3815
sba(itravian_raidmap
raid
p3816
(dp3817
g6
I7634
sg7
S'Teutoni'
p3818
sg9
I0
sg10
I142
sg11
I35
sg12
g13
sg14
S'ends'
p3819
sba(itravian_raidmap
raid
p3820
(dp3821
g6
I5590
sg7
S'Teutoni'
p3822
sg9
I0
sg10
I224
sg11
I29
sg12
g13
sg14
S'dejan'
p3823
sba(itravian_raidmap
raid
p3824
(dp3825
g6
I3475
sg7
S'Romani'
p3826
sg9
I0
sg10
I203
sg11
I84
sg12
g13
sg14
S'scavesdude'
p3827
sba(itravian_raidmap
raid
p3828
(dp3829
g6
I5722
sg7
S'Teutoni'
p3830
sg9
I0
sg10
I208
sg11
I75
sg12
g13
sg14
S'Gung-Ho Guns'
p3831
sba(itravian_raidmap
raid
p3832
(dp3833
g6
I3869
sg7
S'Romani'
p3834
sg9
I0
sg10
I204
sg11
I16
sg12
g13
sg14
S'gibbone'
p3835
sba(itravian_raidmap
raid
p3836
(dp3837
g6
I5722
sg7
S'Teutoni'
p3838
sg9
I0
sg10
I208
sg11
I76
sg12
g13
sg14
S'Gung-Ho Guns'
p3839
sba(itravian_raidmap
raid
p3840
(dp3841
g6
I3475
sg7
S'Romani'
p3842
sg9
I0
sg10
I204
sg11
I83
sg12
g13
sg14
S'scavesdude'
p3843
sba(itravian_raidmap
raid
p3844
(dp3845
g6
I5722
sg7
S'Teutoni'
p3846
sg9
I0
sg10
I208
sg11
I77
sg12
g13
sg14
S'Gung-Ho Guns'
p3847
sba(itravian_raidmap
raid
p3848
(dp3849
g6
I5722
sg7
S'Teutoni'
p3850
sg9
I0
sg10
I209
sg11
I75
sg12
g13
sg14
S'Gung-Ho Guns'
p3851
sba(itravian_raidmap
raid
p3852
(dp3853
g6
I3475
sg7
S'Romani'
p3854
sg9
I0
sg10
I204
sg11
I84
sg12
g13
sg14
S'scavesdude'
p3855
sba(itravian_raidmap
raid
p3856
(dp3857
g6
I3869
sg7
S'Romani'
p3858
sg9
I0
sg10
I205
sg11
I15
sg12
g13
sg14
S'gibbone'
p3859
sba(itravian_raidmap
raid
p3860
(dp3861
g6
I4842
sg7
S'Romani'
p3862
sg9
I0
sg10
I165
sg11
I35
sg12
g13
sg14
S'naxos'
p3863
sba(itravian_raidmap
raid
p3864
(dp3865
g6
I4842
sg7
S'Romani'
p3866
sg9
I0
sg10
I165
sg11
I36
sg12
g13
sg14
S'naxos'
p3867
sba(itravian_raidmap
raid
p3868
(dp3869
g6
I4842
sg7
S'Romani'
p3870
sg9
I0
sg10
I165
sg11
I37
sg12
g13
sg14
S'naxos'
p3871
sba(itravian_raidmap
raid
p3872
(dp3873
g6
I3869
sg7
S'Romani'
p3874
sg9
I0
sg10
I206
sg11
I20
sg12
g13
sg14
S'gibbone'
p3875
sba(itravian_raidmap
raid
p3876
(dp3877
g6
I3869
sg7
S'Romani'
p3878
sg9
I0
sg10
I207
sg11
I17
sg12
g13
sg14
S'gibbone'
p3879
sba(itravian_raidmap
raid
p3880
(dp3881
g6
I4842
sg7
S'Romani'
p3882
sg9
I0
sg10
I166
sg11
I36
sg12
g13
sg14
S'naxos'
p3883
sba(itravian_raidmap
raid
p3884
(dp3885
g6
I4556
sg7
S'Romani'
p3886
sg9
I0
sg10
I151
sg11
I100
sg12
g13
sg14
S'lost73'
p3887
sba(itravian_raidmap
raid
p3888
(dp3889
g6
I3869
sg7
S'Romani'
p3890
sg9
I0
sg10
I207
sg11
I20
sg12
g13
sg14
S'gibbone'
p3891
sba(itravian_raidmap
raid
p3892
(dp3893
g6
I4556
sg7
S'Romani'
p3894
sg9
I0
sg10
I152
sg11
I99
sg12
g13
sg14
S'lost73'
p3895
sba(itravian_raidmap
raid
p3896
(dp3897
g6
I5590
sg7
S'Teutoni'
p3898
sg9
I0
sg10
I230
sg11
I21
sg12
g13
sg14
S'dejan'
p3899
sba(itravian_raidmap
raid
p3900
(dp3901
g6
I6773
sg7
S'Teutoni'
p3902
sg9
I0
sg10
I184
sg11
I23
sg12
g13
sg14
S'ongii'
p3903
sba(itravian_raidmap
raid
p3904
(dp3905
g6
I3869
sg7
S'Romani'
p3906
sg9
I0
sg10
I208
sg11
I16
sg12
g13
sg14
S'gibbone'
p3907
sba(itravian_raidmap
raid
p3908
(dp3909
g6
I4556
sg7
S'Romani'
p3910
sg9
I0
sg10
I152
sg11
I100
sg12
g13
sg14
S'lost73'
p3911
sba(itravian_raidmap
raid
p3912
(dp3913
g6
I6773
sg7
S'Teutoni'
p3914
sg9
I0
sg10
I185
sg11
I19
sg12
g13
sg14
S'ongii'
p3915
sba(itravian_raidmap
raid
p3916
(dp3917
g6
I7201
sg7
S'Teutoni'
p3918
sg9
I0
sg10
I166
sg11
I34
sg12
g13
sg14
S'Nadir'
p3919
sba(itravian_raidmap
raid
p3920
(dp3921
g6
I4556
sg7
S'Romani'
p3922
sg9
I0
sg10
I152
sg11
I101
sg12
g13
sg14
S'lost73'
p3923
sba(itravian_raidmap
raid
p3924
(dp3925
g6
I7330
sg7
S'Teutoni'
p3926
sg9
I0
sg10
I147
sg11
I74
sg12
g13
sg14
S'Meteora'
p3927
sba(itravian_raidmap
raid
p3928
(dp3929
g6
I7201
sg7
S'Teutoni'
p3930
sg9
I0
sg10
I167
sg11
I33
sg12
g13
sg14
S'Nadir'
p3931
sba(itravian_raidmap
raid
p3932
(dp3933
g6
I5722
sg7
S'Teutoni'
p3934
sg9
I0
sg10
I207
sg11
I95
sg12
g13
sg14
S'Gung-Ho Guns'
p3935
sba(itravian_raidmap
raid
p3936
(dp3937
g6
I4556
sg7
S'Romani'
p3938
sg9
I0
sg10
I152
sg11
I102
sg12
g13
sg14
S'lost73'
p3939
sba(itravian_raidmap
raid
p3940
(dp3941
g6
I5590
sg7
S'Teutoni'
p3942
sg9
I0
sg10
I230
sg11
I37
sg12
g13
sg14
S'dejan'
p3943
sba(itravian_raidmap
raid
p3944
(dp3945
g6
I7201
sg7
S'Teutoni'
p3946
sg9
I0
sg10
I167
sg11
I34
sg12
g13
sg14
S'Nadir'
p3947
sba(itravian_raidmap
raid
p3948
(dp3949
g6
I7201
sg7
S'Teutoni'
p3950
sg9
I0
sg10
I167
sg11
I35
sg12
g13
sg14
S'Nadir'
p3951
sba(itravian_raidmap
raid
p3952
(dp3953
g6
I6989
sg7
S'Teutoni'
p3954
sg9
I0
sg10
I151
sg11
I96
sg12
g13
sg14
S'rosy'
p3955
sba(itravian_raidmap
raid
p3956
(dp3957
g6
I5590
sg7
S'Teutoni'
p3958
sg9
I0
sg10
I232
sg11
I34
sg12
g13
sg14
S'dejan'
p3959
sba(itravian_raidmap
raid
p3960
(dp3961
g6
I3869
sg7
S'Romani'
p3962
sg9
I0
sg10
I211
sg11
I16
sg12
g13
sg14
S'gibbone'
p3963
sba(itravian_raidmap
raid
p3964
(dp3965
g6
I3759
sg7
S'Romani'
p3966
sg9
I0
sg10
I216
sg11
I-1
sg12
g13
sg14
S'albertone'
p3967
sba(itravian_raidmap
raid
p3968
(dp3969
g6
I3759
sg7
S'Romani'
p3970
sg9
I0
sg10
I216
sg11
I-2
sg12
g13
sg14
S'albertone'
p3971
sba(itravian_raidmap
raid
p3972
(dp3973
g6
I4889
sg7
S'Romani'
p3974
sg9
I0
sg10
I172
sg11
I15
sg12
g13
sg14
S'the_wise'
p3975
sba(itravian_raidmap
raid
p3976
(dp3977
g6
I3759
sg7
S'Romani'
p3978
sg9
I0
sg10
I217
sg11
I-1
sg12
g13
sg14
S'albertone'
p3979
sba(itravian_raidmap
raid
p3980
(dp3981
g6
I7201
sg7
S'Teutoni'
p3982
sg9
I0
sg10
I171
sg11
I33
sg12
g13
sg14
S'Nadir'
p3983
sba(itravian_raidmap
raid
p3984
(dp3985
g6
I3972
sg7
S'Romani'
p3986
sg9
I0
sg10
I184
sg11
I100
sg12
g13
sg14
S'grande demone'
p3987
sba(itravian_raidmap
raid
p3988
(dp3989
g6
I7201
sg7
S'Teutoni'
p3990
sg9
I0
sg10
I172
sg11
I32
sg12
g13
sg14
S'Nadir'
p3991
sba(itravian_raidmap
raid
p3992
(dp3993
g6
I7201
sg7
S'Teutoni'
p3994
sg9
I0
sg10
I172
sg11
I33
sg12
g13
sg14
S'Nadir'
p3995
sba(itravian_raidmap
raid
p3996
(dp3997
g6
I3759
sg7
S'Romani'
p3998
sg9
I0
sg10
I218
sg11
I-1
sg12
g13
sg14
S'albertone'
p3999
sba(itravian_raidmap
raid
p4000
(dp4001
g6
I6989
sg7
S'Teutoni'
p4002
sg9
I0
sg10
I162
sg11
I87
sg12
g13
sg14
S'rosy'
p4003
sba(itravian_raidmap
raid
p4004
(dp4005
g6
I7330
sg7
S'Teutoni'
p4006
sg9
I0
sg10
I153
sg11
I77
sg12
g13
sg14
S'Meteora'
p4007
sba(itravian_raidmap
raid
p4008
(dp4009
g6
I8008
sg7
S'Teutoni'
p4010
sg9
I0
sg10
I142
sg11
I31
sg12
g13
sg14
S'colpo grosso'
p4011
sba(itravian_raidmap
raid
p4012
(dp4013
g6
I6773
sg7
S'Teutoni'
p4014
sg9
I0
sg10
I193
sg11
I17
sg12
g13
sg14
S'ongii'
p4015
sba(itravian_raidmap
raid
p4016
(dp4017
g6
I4988
sg7
S'Romani'
p4018
sg9
I0
sg10
I171
sg11
I16
sg12
g13
sg14
S'tormento'
p4019
sba(itravian_raidmap
raid
p4020
(dp4021
g6
I1894
sg7
S'Galli'
p4022
sg9
I0
sg10
I215
sg11
I86
sg12
g13
sg14
S'Chris73'
p4023
sba(itravian_raidmap
raid
p4024
(dp4025
g6
I6989
sg7
S'Teutoni'
p4026
sg9
I0
sg10
I163
sg11
I90
sg12
g13
sg14
S'rosy'
p4027
sba(itravian_raidmap
raid
p4028
(dp4029
g6
I5722
sg7
S'Teutoni'
p4030
sg9
I0
sg10
I220
sg11
I85
sg12
g13
sg14
S'Gung-Ho Guns'
p4031
sba(itravian_raidmap
raid
p4032
(dp4033
g6
I6989
sg7
S'Teutoni'
p4034
sg9
I0
sg10
I164
sg11
I89
sg12
g13
sg14
S'rosy'
p4035
sba(itravian_raidmap
raid
p4036
(dp4037
g6
I6773
sg7
S'Teutoni'
p4038
sg9
I0
sg10
I195
sg11
I11
sg12
g13
sg14
S'ongii'
p4039
sba(itravian_raidmap
raid
p4040
(dp4041
g6
I6989
sg7
S'Teutoni'
p4042
sg9
I0
sg10
I164
sg11
I90
sg12
g13
sg14
S'rosy'
p4043
sba(itravian_raidmap
raid
p4044
(dp4045
g6
I4542
sg7
S'Romani'
p4046
sg9
I0
sg10
I187
sg11
I38
sg12
g13
sg14
S'brigida'
p4047
sba(itravian_raidmap
raid
p4048
(dp4049
g6
I6989
sg7
S'Teutoni'
p4050
sg9
I0
sg10
I165
sg11
I91
sg12
g13
sg14
S'rosy'
p4051
sba(itravian_raidmap
raid
p4052
(dp4053
g6
I6989
sg7
S'Teutoni'
p4054
sg9
I0
sg10
I165
sg11
I92
sg12
g13
sg14
S'rosy'
p4055
sba(itravian_raidmap
raid
p4056
(dp4057
g6
I4334
sg7
S'Galli'
p4058
sg9
I0
sg10
I134
sg11
I36
sg12
g13
sg14
S'luca94'
p4059
sba(itravian_raidmap
raid
p4060
(dp4061
g6
I4807
sg7
S'Romani'
p4062
sg9
I0
sg10
I176
sg11
I48
sg12
g13
sg14
S'livio71'
p4063
sba(itravian_raidmap
raid
p4064
(dp4065
g6
I7330
sg7
S'Teutoni'
p4066
sg9
I0
sg10
I159
sg11
I77
sg12
g13
sg14
S'Meteora'
p4067
sba(itravian_raidmap
raid
p4068
(dp4069
g6
I5722
sg7
S'Teutoni'
p4070
sg9
I0
sg10
I222
sg11
I90
sg12
g13
sg14
S'Gung-Ho Guns'
p4071
sba(itravian_raidmap
raid
p4072
(dp4073
g6
I5755
sg7
S'Teutoni'
p4074
sg9
I0
sg10
I209
sg11
I115
sg12
g13
sg14
S'Mastck'
p4075
sba(itravian_raidmap
raid
p4076
(dp4077
g6
I5755
sg7
S'Teutoni'
p4078
sg9
I0
sg10
I208
sg11
I117
sg12
g13
sg14
S'Mastck'
p4079
sba(itravian_raidmap
raid
p4080
(dp4081
g6
I1176
sg7
S'Galli'
p4082
sg9
I0
sg10
I252
sg11
I74
sg12
g13
sg14
S'Rodeano'
p4083
sba(itravian_raidmap
raid
p4084
(dp4085
g6
I4118
sg7
S'Romani'
p4086
sg9
I0
sg10
I210
sg11
I3
sg12
g13
sg14
S'Il contadino'
p4087
sba(itravian_raidmap
raid
p4088
(dp4089
g6
I4807
sg7
S'Romani'
p4090
sg9
I0
sg10
I177
sg11
I48
sg12
g13
sg14
S'livio71'
p4091
sba(itravian_raidmap
raid
p4092
(dp4093
g6
I2000
sg7
S'Galli'
p4094
sg9
I0
sg10
I228
sg11
I37
sg12
g13
sg14
S'razzo'
p4095
sba(itravian_raidmap
raid
p4096
(dp4097
g6
I5755
sg7
S'Teutoni'
p4098
sg9
I0
sg10
I210
sg11
I115
sg12
g13
sg14
S'Mastck'
p4099
sba(itravian_raidmap
raid
p4100
(dp4101
g6
I1288
sg7
S'Galli'
p4102
sg9
I0
sg10
I250
sg11
I67
sg12
g13
sg14
S'thevez4'
p4103
sba(itravian_raidmap
raid
p4104
(dp4105
g6
I4807
sg7
S'Romani'
p4106
sg9
I0
sg10
I178
sg11
I47
sg12
g13
sg14
S'livio71'
p4107
sba(itravian_raidmap
raid
p4108
(dp4109
g6
I8008
sg7
S'Teutoni'
p4110
sg9
I0
sg10
I134
sg11
I73
sg12
g13
sg14
S'colpo grosso'
p4111
sba(itravian_raidmap
raid
p4112
(dp4113
g6
I4118
sg7
S'Romani'
p4114
sg9
I0
sg10
I211
sg11
I-6
sg12
g13
sg14
S'Il contadino'
p4115
sba(itravian_raidmap
raid
p4116
(dp4117
g6
I7141
sg7
S'Teutoni'
p4118
sg9
I0
sg10
I184
sg11
I30
sg12
g13
sg14
S'Dom89'
p4119
sba(itravian_raidmap
raid
p4120
(dp4121
g6
I4807
sg7
S'Romani'
p4122
sg9
I0
sg10
I178
sg11
I49
sg12
g13
sg14
S'livio71'
p4123
sba(itravian_raidmap
raid
p4124
(dp4125
g6
I7141
sg7
S'Teutoni'
p4126
sg9
I0
sg10
I185
sg11
I30
sg12
g13
sg14
S'Dom89'
p4127
sba(itravian_raidmap
raid
p4128
(dp4129
g6
I3900
sg7
S'Romani'
p4130
sg9
I0
sg10
I219
sg11
I26
sg12
g13
sg14
S'Demonpeter'
p4131
sba(itravian_raidmap
raid
p4132
(dp4133
g6
I4889
sg7
S'Romani'
p4134
sg9
I0
sg10
I182
sg11
I12
sg12
g13
sg14
S'the_wise'
p4135
sba(itravian_raidmap
raid
p4136
(dp4137
g6
I4807
sg7
S'Romani'
p4138
sg9
I0
sg10
I179
sg11
I50
sg12
g13
sg14
S'livio71'
p4139
sba(itravian_raidmap
raid
p4140
(dp4141
g6
I7192
sg7
S'Teutoni'
p4142
sg9
I0
sg10
I153
sg11
I107
sg12
g13
sg14
S'aglianico'
p4143
sba(itravian_raidmap
raid
p4144
(dp4145
g6
I3900
sg7
S'Romani'
p4146
sg9
I0
sg10
I218
sg11
I39
sg12
g13
sg14
S'Demonpeter'
p4147
sba(itravian_raidmap
raid
p4148
(dp4149
g6
I4118
sg7
S'Romani'
p4150
sg9
I0
sg10
I213
sg11
I0
sg12
g13
sg14
S'Il contadino'
p4151
sba(itravian_raidmap
raid
p4152
(dp4153
g6
I4807
sg7
S'Romani'
p4154
sg9
I0
sg10
I179
sg11
I52
sg12
g13
sg14
S'livio71'
p4155
sba(itravian_raidmap
raid
p4156
(dp4157
g6
I7192
sg7
S'Teutoni'
p4158
sg9
I0
sg10
I153
sg11
I108
sg12
g13
sg14
S'aglianico'
p4159
sba(itravian_raidmap
raid
p4160
(dp4161
g6
I1851
sg7
S'Galli'
p4162
sg9
I0
sg10
I224
sg11
I85
sg12
g13
sg14
S'flowergreg'
p4163
sba(itravian_raidmap
raid
p4164
(dp4165
g6
I7192
sg7
S'Teutoni'
p4166
sg9
I0
sg10
I153
sg11
I110
sg12
g13
sg14
S'aglianico'
p4167
sba(itravian_raidmap
raid
p4168
(dp4169
g6
I4118
sg7
S'Romani'
p4170
sg9
I0
sg10
I215
sg11
I3
sg12
g13
sg14
S'Il contadino'
p4171
sba(itravian_raidmap
raid
p4172
(dp4173
g6
I4807
sg7
S'Romani'
p4174
sg9
I0
sg10
I180
sg11
I56
sg12
g13
sg14
S'livio71'
p4175
sba(itravian_raidmap
raid
p4176
(dp4177
g6
I4118
sg7
S'Romani'
p4178
sg9
I0
sg10
I216
sg11
I4
sg12
g13
sg14
S'Il contadino'
p4179
sba(itravian_raidmap
raid
p4180
(dp4181
g6
I4118
sg7
S'Romani'
p4182
sg9
I0
sg10
I216
sg11
I-4
sg12
g13
sg14
S'Il contadino'
p4183
sba(itravian_raidmap
raid
p4184
(dp4185
g6
I4807
sg7
S'Romani'
p4186
sg9
I0
sg10
I182
sg11
I56
sg12
g13
sg14
S'livio71'
p4187
sba(itravian_raidmap
raid
p4188
(dp4189
g6
I7141
sg7
S'Teutoni'
p4190
sg9
I0
sg10
I191
sg11
I36
sg12
g13
sg14
S'Dom89'
p4191
sba(itravian_raidmap
raid
p4192
(dp4193
g6
I7141
sg7
S'Teutoni'
p4194
sg9
I0
sg10
I191
sg11
I38
sg12
g13
sg14
S'Dom89'
p4195
sba(itravian_raidmap
raid
p4196
(dp4197
g6
I7141
sg7
S'Teutoni'
p4198
sg9
I0
sg10
I192
sg11
I36
sg12
g13
sg14
S'Dom89'
p4199
sba(itravian_raidmap
raid
p4200
(dp4201
g6
I7141
sg7
S'Teutoni'
p4202
sg9
I0
sg10
I193
sg11
I34
sg12
g13
sg14
S'Dom89'
p4203
sba(itravian_raidmap
raid
p4204
(dp4205
g6
I7194
sg7
S'Teutoni'
p4206
sg9
I0
sg10
I159
sg11
I111
sg12
g13
sg14
S'aglianico'
p4207
sba(itravian_raidmap
raid
p4208
(dp4209
g6
I7141
sg7
S'Teutoni'
p4210
sg9
I0
sg10
I192
sg11
I40
sg12
g13
sg14
S'Dom89'
p4211
sba(itravian_raidmap
raid
p4212
(dp4213
g6
I7141
sg7
S'Teutoni'
p4214
sg9
I0
sg10
I193
sg11
I36
sg12
g13
sg14
S'Dom89'
p4215
sba(itravian_raidmap
raid
p4216
(dp4217
g6
I7141
sg7
S'Teutoni'
p4218
sg9
I0
sg10
I193
sg11
I37
sg12
g13
sg14
S'Dom89'
p4219
sba(itravian_raidmap
raid
p4220
(dp4221
g6
I8381
sg7
S'Teutoni'
p4222
sg9
I0
sg10
I143
sg11
I41
sg12
g13
sg14
S'lanpizva'
p4223
sba(itravian_raidmap
raid
p4224
(dp4225
g6
I7141
sg7
S'Teutoni'
p4226
sg9
I0
sg10
I194
sg11
I38
sg12
g13
sg14
S'Dom89'
p4227
sba(itravian_raidmap
raid
p4228
(dp4229
g6
I8381
sg7
S'Teutoni'
p4230
sg9
I0
sg10
I135
sg11
I66
sg12
g13
sg14
S'lanpizva'
p4231
sba(itravian_raidmap
raid
p4232
(dp4233
g6
I8381
sg7
S'Teutoni'
p4234
sg9
I0
sg10
I141
sg11
I57
sg12
g13
sg14
S'lanpizva'
p4235
sba(itravian_raidmap
raid
p4236
(dp4237
g6
I2549
sg7
S'Galli'
p4238
sg9
I0
sg10
I211
sg11
I62
sg12
g13
sg14
S'DarioKSJ2'
p4239
sba(itravian_raidmap
raid
p4240
(dp4241
g6
I2549
sg7
S'Galli'
p4242
sg9
I0
sg10
I214
sg11
I62
sg12
g13
sg14
S'DarioKSJ2'
p4243
sba(itravian_raidmap
raid
p4244
(dp4245
g6
I2012
sg7
S'Galli'
p4246
sg9
I0
sg10
I237
sg11
I59
sg12
g13
sg14
S'Rickythedragon'
p4247
sba(itravian_raidmap
raid
p4248
(dp4249
g6
I3475
sg7
S'Romani'
p4250
sg9
I0
sg10
I232
sg11
I100
sg12
g13
sg14
S'scavesdude'
p4251
sba(itravian_raidmap
raid
p4252
(dp4253
g6
I2012
sg7
S'Galli'
p4254
sg9
I0
sg10
I238
sg11
I59
sg12
g13
sg14
S'Rickythedragon'
p4255
sba(itravian_raidmap
raid
p4256
(dp4257
g6
I8381
sg7
S'Teutoni'
p4258
sg9
I0
sg10
I140
sg11
I76
sg12
g13
sg14
S'lanpizva'
p4259
sba(itravian_raidmap
raid
p4260
(dp4261
g6
I8381
sg7
S'Teutoni'
p4262
sg9
I0
sg10
I149
sg11
I59
sg12
g13
sg14
S'lanpizva'
p4263
sba(itravian_raidmap
raid
p4264
(dp4265
g6
I8381
sg7
S'Teutoni'
p4266
sg9
I0
sg10
I149
sg11
I60
sg12
g13
sg14
S'lanpizva'
p4267
sba(itravian_raidmap
raid
p4268
(dp4269
g6
I8381
sg7
S'Teutoni'
p4270
sg9
I0
sg10
I150
sg11
I60
sg12
g13
sg14
S'lanpizva'
p4271
sba(itravian_raidmap
raid
p4272
(dp4273
g6
I2012
sg7
S'Galli'
p4274
sg9
I0
sg10
I241
sg11
I55
sg12
g13
sg14
S'Rickythedragon'
p4275
sba(itravian_raidmap
raid
p4276
(dp4277
g6
I5122
sg7
S'Galli'
p4278
sg9
I0
sg10
I108
sg11
I66
sg12
g13
sg14
S'LaVeraFede'
p4279
sba(itravian_raidmap
raid
p4280
(dp4281
g6
I8671
sg7
S'Teutoni'
p4282
sg9
I0
sg10
I138
sg11
I63
sg12
g13
sg14
S'artemisia'
p4283
sba(itravian_raidmap
raid
p4284
(dp4285
g6
I5122
sg7
S'Galli'
p4286
sg9
I0
sg10
I107
sg11
I68
sg12
g13
sg14
S'LaVeraFede'
p4287
sba(itravian_raidmap
raid
p4288
(dp4289
g6
I2012
sg7
S'Galli'
p4290
sg9
I0
sg10
I242
sg11
I54
sg12
g13
sg14
S'Rickythedragon'
p4291
sba(itravian_raidmap
raid
p4292
(dp4293
g6
I5122
sg7
S'Galli'
p4294
sg9
I0
sg10
I108
sg11
I68
sg12
g13
sg14
S'LaVeraFede'
p4295
sba(itravian_raidmap
raid
p4296
(dp4297
g6
I5122
sg7
S'Galli'
p4298
sg9
I0
sg10
I110
sg11
I65
sg12
g13
sg14
S'LaVeraFede'
p4299
sba(itravian_raidmap
raid
p4300
(dp4301
g6
I8381
sg7
S'Teutoni'
p4302
sg9
I0
sg10
I155
sg11
I57
sg12
g13
sg14
S'lanpizva'
p4303
sba(itravian_raidmap
raid
p4304
(dp4305
g6
I4453
sg7
S'Romani'
p4306
sg9
I0
sg10
I221
sg11
I12
sg12
g13
sg14
S'Zazz\xc3\xa0'
p4307
sba(itravian_raidmap
raid
p4308
(dp4309
g6
I4086
sg7
S'Galli'
p4310
sg9
I0
sg10
I148
sg11
I84
sg12
g13
sg14
S'fuvin'
p4311
sba(itravian_raidmap
raid
p4312
(dp4313
g6
I8381
sg7
S'Teutoni'
p4314
sg9
I0
sg10
I156
sg11
I62
sg12
g13
sg14
S'lanpizva'
p4315
sba(itravian_raidmap
raid
p4316
(dp4317
g6
I6201
sg7
S'Romani'
p4318
sg9
I0
sg10
I127
sg11
I87
sg12
g13
sg14
S'Guevo Pelao'
p4319
sba(itravian_raidmap
raid
p4320
(dp4321
g6
I8671
sg7
S'Teutoni'
p4322
sg9
I0
sg10
I144
sg11
I62
sg12
g13
sg14
S'artemisia'
p4323
sba(itravian_raidmap
raid
p4324
(dp4325
g6
I4453
sg7
S'Romani'
p4326
sg9
I0
sg10
I222
sg11
I11
sg12
g13
sg14
S'Zazz\xc3\xa0'
p4327
sba(itravian_raidmap
raid
p4328
(dp4329
g6
I6201
sg7
S'Romani'
p4330
sg9
I0
sg10
I127
sg11
I88
sg12
g13
sg14
S'Guevo Pelao'
p4331
sba(itravian_raidmap
raid
p4332
(dp4333
g6
I5122
sg7
S'Galli'
p4334
sg9
I0
sg10
I115
sg11
I62
sg12
g13
sg14
S'LaVeraFede'
p4335
sba(itravian_raidmap
raid
p4336
(dp4337
g6
I6201
sg7
S'Romani'
p4338
sg9
I0
sg10
I128
sg11
I87
sg12
g13
sg14
S'Guevo Pelao'
p4339
sba(itravian_raidmap
raid
p4340
(dp4341
g6
I8671
sg7
S'Teutoni'
p4342
sg9
I0
sg10
I145
sg11
I62
sg12
g13
sg14
S'artemisia'
p4343
sba(itravian_raidmap
raid
p4344
(dp4345
g6
I6201
sg7
S'Romani'
p4346
sg9
I0
sg10
I127
sg11
I89
sg12
g13
sg14
S'Guevo Pelao'
p4347
sba(itravian_raidmap
raid
p4348
(dp4349
g6
I8671
sg7
S'Teutoni'
p4350
sg9
I0
sg10
I145
sg11
I63
sg12
g13
sg14
S'artemisia'
p4351
sba(itravian_raidmap
raid
p4352
(dp4353
g6
I6201
sg7
S'Romani'
p4354
sg9
I0
sg10
I128
sg11
I88
sg12
g13
sg14
S'Guevo Pelao'
p4355
sba(itravian_raidmap
raid
p4356
(dp4357
g6
I8671
sg7
S'Teutoni'
p4358
sg9
I0
sg10
I146
sg11
I62
sg12
g13
sg14
S'artemisia'
p4359
sba(itravian_raidmap
raid
p4360
(dp4361
g6
I3564
sg7
S'Galli'
p4362
sg9
I0
sg10
I160
sg11
I107
sg12
g13
sg14
S'Re Artemide'
p4363
sba(itravian_raidmap
raid
p4364
(dp4365
g6
I4089
sg7
S'Galli'
p4366
sg9
I0
sg10
I148
sg11
I88
sg12
g13
sg14
S'fuvin'
p4367
sba(itravian_raidmap
raid
p4368
(dp4369
g6
I4453
sg7
S'Romani'
p4370
sg9
I0
sg10
I224
sg11
I12
sg12
g13
sg14
S'Zazz\xc3\xa0'
p4371
sba(itravian_raidmap
raid
p4372
(dp4373
g6
I8671
sg7
S'Teutoni'
p4374
sg9
I0
sg10
I144
sg11
I71
sg12
g13
sg14
S'artemisia'
p4375
sba(itravian_raidmap
raid
p4376
(dp4377
g6
I6281
sg7
S'Romani'
p4378
sg9
I0
sg10
I145
sg11
I54
sg12
g13
sg14
S'-soldatino-'
p4379
sba(itravian_raidmap
raid
p4380
(dp4381
g6
I6281
sg7
S'Romani'
p4382
sg9
I0
sg10
I145
sg11
I55
sg12
g13
sg14
S'-soldatino-'
p4383
sba(itravian_raidmap
raid
p4384
(dp4385
g6
I6281
sg7
S'Romani'
p4386
sg9
I0
sg10
I146
sg11
I53
sg12
g13
sg14
S'-soldatino-'
p4387
sba(itravian_raidmap
raid
p4388
(dp4389
g6
I8381
sg7
S'Teutoni'
p4390
sg9
I0
sg10
I153
sg11
I82
sg12
g13
sg14
S'lanpizva'
p4391
sba(itravian_raidmap
raid
p4392
(dp4393
g6
I5122
sg7
S'Galli'
p4394
sg9
I0
sg10
I113
sg11
I72
sg12
g13
sg14
S'LaVeraFede'
p4395
sba(itravian_raidmap
raid
p4396
(dp4397
g6
I6281
sg7
S'Romani'
p4398
sg9
I0
sg10
I146
sg11
I55
sg12
g13
sg14
S'-soldatino-'
p4399
sba(itravian_raidmap
raid
p4400
(dp4401
g6
I6281
sg7
S'Romani'
p4402
sg9
I0
sg10
I147
sg11
I53
sg12
g13
sg14
S'-soldatino-'
p4403
sba(itravian_raidmap
raid
p4404
(dp4405
g6
I9361
sg7
S'Teutoni'
p4406
sg9
I0
sg10
I127
sg11
I51
sg12
g13
sg14
S'Teutomania'
p4407
sba(itravian_raidmap
raid
p4408
(dp4409
g6
I2159
sg7
S'Galli'
p4410
sg9
I0
sg10
I241
sg11
I67
sg12
g13
sg14
S'Lucya'
p4411
sba(itravian_raidmap
raid
p4412
(dp4413
g6
I6201
sg7
S'Romani'
p4414
sg9
I0
sg10
I136
sg11
I84
sg12
g13
sg14
S'Guevo Pelao'
p4415
sba(itravian_raidmap
raid
p4416
(dp4417
g6
I6281
sg7
S'Romani'
p4418
sg9
I0
sg10
I147
sg11
I55
sg12
g13
sg14
S'-soldatino-'
p4419
sba(itravian_raidmap
raid
p4420
(dp4421
g6
I2159
sg7
S'Galli'
p4422
sg9
I0
sg10
I241
sg11
I68
sg12
g13
sg14
S'Lucya'
p4423
sba(itravian_raidmap
raid
p4424
(dp4425
g6
I2715
sg7
S'Galli'
p4426
sg9
I0
sg10
I229
sg11
I8
sg12
g13
sg14
S'mikelanzi'
p4427
sba(itravian_raidmap
raid
p4428
(dp4429
g6
I6281
sg7
S'Romani'
p4430
sg9
I0
sg10
I148
sg11
I54
sg12
g13
sg14
S'-soldatino-'
p4431
sba(itravian_raidmap
raid
p4432
(dp4433
g6
I9361
sg7
S'Teutoni'
p4434
sg9
I0
sg10
I130
sg11
I48
sg12
g13
sg14
S'Teutomania'
p4435
sba(itravian_raidmap
raid
p4436
(dp4437
g6
I8381
sg7
S'Teutoni'
p4438
sg9
I0
sg10
I167
sg11
I58
sg12
g13
sg14
S'lanpizva'
p4439
sba(itravian_raidmap
raid
p4440
(dp4441
g6
I2561
sg7
S'Galli'
p4442
sg9
I0
sg10
I215
sg11
I97
sg12
g13
sg14
S'steffo'
p4443
sba(itravian_raidmap
raid
p4444
(dp4445
g6
I2714
sg7
S'Galli'
p4446
sg9
I0
sg10
I230
sg11
I9
sg12
g13
sg14
S'mikelanzi'
p4447
sba(itravian_raidmap
raid
p4448
(dp4449
g6
I4433
sg7
S'Galli'
p4450
sg9
I0
sg10
I142
sg11
I82
sg12
g13
sg14
S'yuma'
p4451
sba(itravian_raidmap
raid
p4452
(dp4453
g6
I2561
sg7
S'Galli'
p4454
sg9
I0
sg10
I236
sg11
I20
sg12
g13
sg14
S'steffo'
p4455
sba(itravian_raidmap
raid
p4456
(dp4457
g6
I2714
sg7
S'Galli'
p4458
sg9
I0
sg10
I231
sg11
I8
sg12
g13
sg14
S'mikelanzi'
p4459
sba(itravian_raidmap
raid
p4460
(dp4461
g6
I6833
sg7
S'Romani'
p4462
sg9
I0
sg10
I116
sg11
I77
sg12
g13
sg14
S'nec plus ultra'
p4463
sba(itravian_raidmap
raid
p4464
(dp4465
g6
I4453
sg7
S'Romani'
p4466
sg9
I0
sg10
I232
sg11
I20
sg12
g13
sg14
S'Zazz\xc3\xa0'
p4467
sba(itravian_raidmap
raid
p4468
(dp4469
g6
I3519
sg7
S'Galli'
p4470
sg9
I0
sg10
I203
sg11
I-1
sg12
g13
sg14
S'laurax'
p4471
sba(itravian_raidmap
raid
p4472
(dp4473
g6
I5564
sg7
S'Romani'
p4474
sg9
I0
sg10
I191
sg11
I19
sg12
g13
sg14
S'Tetris'
p4475
sba(itravian_raidmap
raid
p4476
(dp4477
g6
I9361
sg7
S'Teutoni'
p4478
sg9
I0
sg10
I134
sg11
I59
sg12
g13
sg14
S'Teutomania'
p4479
sba(itravian_raidmap
raid
p4480
(dp4481
g6
I5564
sg7
S'Romani'
p4482
sg9
I0
sg10
I191
sg11
I20
sg12
g13
sg14
S'Tetris'
p4483
sba(itravian_raidmap
raid
p4484
(dp4485
g6
I5565
sg7
S'Romani'
p4486
sg9
I0
sg10
I191
sg11
I21
sg12
g13
sg14
S'Tetris'
p4487
sba(itravian_raidmap
raid
p4488
(dp4489
g6
I4433
sg7
S'Galli'
p4490
sg9
I0
sg10
I148
sg11
I80
sg12
g13
sg14
S'yuma'
p4491
sba(itravian_raidmap
raid
p4492
(dp4493
g6
I2715
sg7
S'Galli'
p4494
sg9
I0
sg10
I229
sg11
I53
sg12
g13
sg14
S'mikelanzi'
p4495
sba(itravian_raidmap
raid
p4496
(dp4497
g6
I9361
sg7
S'Teutoni'
p4498
sg9
I0
sg10
I135
sg11
I58
sg12
g13
sg14
S'Teutomania'
p4499
sba(itravian_raidmap
raid
p4500
(dp4501
g6
I9361
sg7
S'Teutoni'
p4502
sg9
I0
sg10
I135
sg11
I59
sg12
g13
sg14
S'Teutomania'
p4503
sba(itravian_raidmap
raid
p4504
(dp4505
g6
I6086
sg7
S'Romani'
p4506
sg9
I0
sg10
I172
sg11
I18
sg12
g13
sg14
S'Maggot89'
p4507
sba(itravian_raidmap
raid
p4508
(dp4509
g6
I5803
sg7
S'Romani'
p4510
sg9
I0
sg10
I164
sg11
I84
sg12
g13
sg14
S'noire!'
p4511
sba(itravian_raidmap
raid
p4512
(dp4513
g6
I2715
sg7
S'Galli'
p4514
sg9
I0
sg10
I230
sg11
I53
sg12
g13
sg14
S'mikelanzi'
p4515
sba(itravian_raidmap
raid
p4516
(dp4517
g6
I4928
sg7
S'Romani'
p4518
sg9
I0
sg10
I187
sg11
I113
sg12
g13
sg14
S'Stomoxys'
p4519
sba(itravian_raidmap
raid
p4520
(dp4521
g6
I6086
sg7
S'Romani'
p4522
sg9
I0
sg10
I173
sg11
I14
sg12
g13
sg14
S'Maggot89'
p4523
sba(itravian_raidmap
raid
p4524
(dp4525
g6
I6205
sg7
S'Romani'
p4526
sg9
I0
sg10
I146
sg11
I85
sg12
g13
sg14
S'homerxxx'
p4527
sba(itravian_raidmap
raid
p4528
(dp4529
g6
I5589
sg7
S'Romani'
p4530
sg9
I0
sg10
I193
sg11
I3
sg12
g13
sg14
S'cpt_gatsu'
p4531
sba(itravian_raidmap
raid
p4532
(dp4533
g6
I5803
sg7
S'Romani'
p4534
sg9
I0
sg10
I163
sg11
I87
sg12
g13
sg14
S'noire!'
p4535
sba(itravian_raidmap
raid
p4536
(dp4537
g6
I8671
sg7
S'Teutoni'
p4538
sg9
I0
sg10
I160
sg11
I73
sg12
g13
sg14
S'artemisia'
p4539
sba(itravian_raidmap
raid
p4540
(dp4541
g6
I4156
sg7
S'Galli'
p4542
sg9
I0
sg10
I148
sg11
I104
sg12
g13
sg14
S'bellopupo'
p4543
sba(itravian_raidmap
raid
p4544
(dp4545
g6
I4433
sg7
S'Galli'
p4546
sg9
I0
sg10
I149
sg11
I83
sg12
g13
sg14
S'yuma'
p4547
sba(itravian_raidmap
raid
p4548
(dp4549
g6
I6205
sg7
S'Romani'
p4550
sg9
I0
sg10
I147
sg11
I86
sg12
g13
sg14
S'homerxxx'
p4551
sba(itravian_raidmap
raid
p4552
(dp4553
g6
I5803
sg7
S'Romani'
p4554
sg9
I0
sg10
I164
sg11
I88
sg12
g13
sg14
S'noire!'
p4555
sba(itravian_raidmap
raid
p4556
(dp4557
g6
I4433
sg7
S'Galli'
p4558
sg9
I0
sg10
I150
sg11
I82
sg12
g13
sg14
S'yuma'
p4559
sba(itravian_raidmap
raid
p4560
(dp4561
g6
I4433
sg7
S'Galli'
p4562
sg9
I0
sg10
I149
sg11
I84
sg12
g13
sg14
S'yuma'
p4563
sba(itravian_raidmap
raid
p4564
(dp4565
g6
I2159
sg7
S'Galli'
p4566
sg9
I0
sg10
I251
sg11
I66
sg12
g13
sg14
S'Lucya'
p4567
sba(itravian_raidmap
raid
p4568
(dp4569
g6
I9361
sg7
S'Teutoni'
p4570
sg9
I0
sg10
I138
sg11
I62
sg12
g13
sg14
S'Teutomania'
p4571
sba(itravian_raidmap
raid
p4572
(dp4573
g6
I8671
sg7
S'Teutoni'
p4574
sg9
I0
sg10
I163
sg11
I73
sg12
g13
sg14
S'artemisia'
p4575
sba(itravian_raidmap
raid
p4576
(dp4577
g6
I6086
sg7
S'Romani'
p4578
sg9
I0
sg10
I176
sg11
I9
sg12
g13
sg14
S'Maggot89'
p4579
sba(itravian_raidmap
raid
p4580
(dp4581
g6
I5803
sg7
S'Romani'
p4582
sg9
I0
sg10
I163
sg11
I93
sg12
g13
sg14
S'noire!'
p4583
sba(itravian_raidmap
raid
p4584
(dp4585
g6
I6086
sg7
S'Romani'
p4586
sg9
I0
sg10
I177
sg11
I7
sg12
g13
sg14
S'Maggot89'
p4587
sba(itravian_raidmap
raid
p4588
(dp4589
g6
I2715
sg7
S'Galli'
p4590
sg9
I0
sg10
I238
sg11
I27
sg12
g13
sg14
S'mikelanzi'
p4591
sba(itravian_raidmap
raid
p4592
(dp4593
g6
I6205
sg7
S'Romani'
p4594
sg9
I0
sg10
I146
sg11
I93
sg12
g13
sg14
S'homerxxx'
p4595
sba(itravian_raidmap
raid
p4596
(dp4597
g6
I5803
sg7
S'Romani'
p4598
sg9
I0
sg10
I167
sg11
I88
sg12
g13
sg14
S'noire!'
p4599
sba(itravian_raidmap
raid
p4600
(dp4601
g6
I2159
sg7
S'Galli'
p4602
sg9
I0
sg10
I253
sg11
I66
sg12
g13
sg14
S'Lucya'
p4603
sba(itravian_raidmap
raid
p4604
(dp4605
g6
I9361
sg7
S'Teutoni'
p4606
sg9
I0
sg10
I142
sg11
I65
sg12
g13
sg14
S'Teutomania'
p4607
sba(itravian_raidmap
raid
p4608
(dp4609
g6
I3564
sg7
S'Galli'
p4610
sg9
I0
sg10
I172
sg11
I119
sg12
g13
sg14
S'Re Artemide'
p4611
sba(itravian_raidmap
raid
p4612
(dp4613
g6
I2561
sg7
S'Galli'
p4614
sg9
I0
sg10
I246
sg11
I37
sg12
g13
sg14
S'steffo'
p4615
sba(itravian_raidmap
raid
p4616
(dp4617
g6
I9361
sg7
S'Teutoni'
p4618
sg9
I0
sg10
I143
sg11
I69
sg12
g13
sg14
S'Teutomania'
p4619
sba(itravian_raidmap
raid
p4620
(dp4621
g6
I5589
sg7
S'Romani'
p4622
sg9
I0
sg10
I201
sg11
I4
sg12
g13
sg14
S'cpt_gatsu'
p4623
sba(itravian_raidmap
raid
p4624
(dp4625
g6
I9361
sg7
S'Teutoni'
p4626
sg9
I0
sg10
I143
sg11
I70
sg12
g13
sg14
S'Teutomania'
p4627
sba(itravian_raidmap
raid
p4628
(dp4629
g6
I9361
sg7
S'Teutoni'
p4630
sg9
I0
sg10
I144
sg11
I69
sg12
g13
sg14
S'Teutomania'
p4631
sba(itravian_raidmap
raid
p4632
(dp4633
g6
I3899
sg7
S'Galli'
p4634
sg9
I0
sg10
I199
sg11
I0
sg12
g13
sg14
S'valer x'
p4635
sba(itravian_raidmap
raid
p4636
(dp4637
g6
I6913
sg7
S'Romani'
p4638
sg9
I0
sg10
I148
sg11
I35
sg12
g13
sg14
S'marcoss'
p4639
sba(itravian_raidmap
raid
p4640
(dp4641
g6
I3899
sg7
S'Galli'
p4642
sg9
I0
sg10
I200
sg11
I0
sg12
g13
sg14
S'valer x'
p4643
sba(itravian_raidmap
raid
p4644
(dp4645
g6
I3899
sg7
S'Galli'
p4646
sg9
I0
sg10
I200
sg11
I1
sg12
g13
sg14
S'valer x'
p4647
sba(itravian_raidmap
raid
p4648
(dp4649
g6
I9361
sg7
S'Teutoni'
p4650
sg9
I0
sg10
I147
sg11
I72
sg12
g13
sg14
S'Teutomania'
p4651
sba(itravian_raidmap
raid
p4652
(dp4653
g6
I6913
sg7
S'Romani'
p4654
sg9
I0
sg10
I135
sg11
I73
sg12
g13
sg14
S'marcoss'
p4655
sba(itravian_raidmap
raid
p4656
(dp4657
g6
I6913
sg7
S'Romani'
p4658
sg9
I0
sg10
I151
sg11
I31
sg12
g13
sg14
S'marcoss'
p4659
sba(itravian_raidmap
raid
p4660
(dp4661
g6
I3899
sg7
S'Galli'
p4662
sg9
I0
sg10
I201
sg11
I0
sg12
g13
sg14
S'valer x'
p4663
sba(itravian_raidmap
raid
p4664
(dp4665
g6
I6913
sg7
S'Romani'
p4666
sg9
I0
sg10
I151
sg11
I34
sg12
g13
sg14
S'marcoss'
p4667
sba(itravian_raidmap
raid
p4668
(dp4669
g6
I6913
sg7
S'Romani'
p4670
sg9
I0
sg10
I151
sg11
I36
sg12
g13
sg14
S'marcoss'
p4671
sba(itravian_raidmap
raid
p4672
(dp4673
g6
I3899
sg7
S'Galli'
p4674
sg9
I0
sg10
I202
sg11
I-4
sg12
g13
sg14
S'valer x'
p4675
sba(itravian_raidmap
raid
p4676
(dp4677
g6
I6205
sg7
S'Romani'
p4678
sg9
I0
sg10
I167
sg11
I80
sg12
g13
sg14
S'homerxxx'
p4679
sba(itravian_raidmap
raid
p4680
(dp4681
g6
I6205
sg7
S'Romani'
p4682
sg9
I0
sg10
I167
sg11
I82
sg12
g13
sg14
S'homerxxx'
p4683
sba(itravian_raidmap
raid
p4684
(dp4685
g6
I6205
sg7
S'Romani'
p4686
sg9
I0
sg10
I168
sg11
I80
sg12
g13
sg14
S'homerxxx'
p4687
sba(itravian_raidmap
raid
p4688
(dp4689
g6
I6205
sg7
S'Romani'
p4690
sg9
I0
sg10
I168
sg11
I81
sg12
g13
sg14
S'homerxxx'
p4691
sba(itravian_raidmap
raid
p4692
(dp4693
g6
I6205
sg7
S'Romani'
p4694
sg9
I0
sg10
I163
sg11
I91
sg12
g13
sg14
S'homerxxx'
p4695
sba(itravian_raidmap
raid
p4696
(dp4697
g6
I5589
sg7
S'Romani'
p4698
sg9
I0
sg10
I211
sg11
I8
sg12
g13
sg14
S'cpt_gatsu'
p4699
sba(itravian_raidmap
raid
p4700
(dp4701
g6
I5589
sg7
S'Romani'
p4702
sg9
I0
sg10
I211
sg11
I9
sg12
g13
sg14
S'cpt_gatsu'
p4703
sba(itravian_raidmap
raid
p4704
(dp4705
g6
I6205
sg7
S'Romani'
p4706
sg9
I0
sg10
I164
sg11
I91
sg12
g13
sg14
S'homerxxx'
p4707
sba(itravian_raidmap
raid
p4708
(dp4709
g6
I6549
sg7
S'Romani'
p4710
sg9
I0
sg10
I168
sg11
I46
sg12
g13
sg14
S'binik'
p4711
sba(itravian_raidmap
raid
p4712
(dp4713
g6
I6205
sg7
S'Romani'
p4714
sg9
I0
sg10
I164
sg11
I92
sg12
g13
sg14
S'homerxxx'
p4715
sba(itravian_raidmap
raid
p4716
(dp4717
g6
I10314
sg7
S'Teutoni'
p4718
sg9
I0
sg10
I130
sg11
I43
sg12
g13
sg14
S'peter griffin'
p4719
sba(itravian_raidmap
raid
p4720
(dp4721
g6
I3899
sg7
S'Galli'
p4722
sg9
I0
sg10
I207
sg11
I-5
sg12
g13
sg14
S'valer x'
p4723
sba(itravian_raidmap
raid
p4724
(dp4725
g6
I6244
sg7
S'Romani'
p4726
sg9
I0
sg10
I186
sg11
I31
sg12
g13
sg14
S'Richard Neville'
p4727
sba(itravian_raidmap
raid
p4728
(dp4729
g6
I4580
sg7
S'Galli'
p4730
sg9
I0
sg10
I183
sg11
I13
sg12
g13
sg14
S'Pierli secondo'
p4731
sba(itravian_raidmap
raid
p4732
(dp4733
g6
I5589
sg7
S'Romani'
p4734
sg9
I0
sg10
I217
sg11
I-3
sg12
g13
sg14
S'cpt_gatsu'
p4735
sba(itravian_raidmap
raid
p4736
(dp4737
g6
I5589
sg7
S'Romani'
p4738
sg9
I0
sg10
I217
sg11
I-4
sg12
g13
sg14
S'cpt_gatsu'
p4739
sba(itravian_raidmap
raid
p4740
(dp4741
g6
I5589
sg7
S'Romani'
p4742
sg9
I0
sg10
I217
sg11
I-5
sg12
g13
sg14
S'cpt_gatsu'
p4743
sba(itravian_raidmap
raid
p4744
(dp4745
g6
I5589
sg7
S'Romani'
p4746
sg9
I0
sg10
I218
sg11
I-4
sg12
g13
sg14
S'cpt_gatsu'
p4747
sba(itravian_raidmap
raid
p4748
(dp4749
g6
I4580
sg7
S'Galli'
p4750
sg9
I0
sg10
I185
sg11
I1
sg12
g13
sg14
S'Pierli secondo'
p4751
sba(itravian_raidmap
raid
p4752
(dp4753
g6
I4580
sg7
S'Galli'
p4754
sg9
I0
sg10
I185
sg11
I2
sg12
g13
sg14
S'Pierli secondo'
p4755
sba(itravian_raidmap
raid
p4756
(dp4757
g6
I10314
sg7
S'Teutoni'
p4758
sg9
I0
sg10
I138
sg11
I40
sg12
g13
sg14
S'peter griffin'
p4759
sba(itravian_raidmap
raid
p4760
(dp4761
g6
I5221
sg7
S'Galli'
p4762
sg9
I0
sg10
I148
sg11
I62
sg12
g13
sg14
S'marcopancio'
p4763
sba(itravian_raidmap
raid
p4764
(dp4765
g6
I5221
sg7
S'Galli'
p4766
sg9
I0
sg10
I148
sg11
I63
sg12
g13
sg14
S'marcopancio'
p4767
sba(itravian_raidmap
raid
p4768
(dp4769
g6
I4089
sg7
S'Galli'
p4770
sg9
I0
sg10
I176
sg11
I105
sg12
g13
sg14
S'fuvin'
p4771
sba(itravian_raidmap
raid
p4772
(dp4773
g6
I10314
sg7
S'Teutoni'
p4774
sg9
I0
sg10
I139
sg11
I41
sg12
g13
sg14
S'peter griffin'
p4775
sba(itravian_raidmap
raid
p4776
(dp4777
g6
I4580
sg7
S'Galli'
p4778
sg9
I0
sg10
I186
sg11
I1
sg12
g13
sg14
S'Pierli secondo'
p4779
sba(itravian_raidmap
raid
p4780
(dp4781
g6
I4580
sg7
S'Galli'
p4782
sg9
I0
sg10
I186
sg11
I2
sg12
g13
sg14
S'Pierli secondo'
p4783
sba(itravian_raidmap
raid
p4784
(dp4785
g6
I4580
sg7
S'Galli'
p4786
sg9
I0
sg10
I186
sg11
I3
sg12
g13
sg14
S'Pierli secondo'
p4787
sba(itravian_raidmap
raid
p4788
(dp4789
g6
I10314
sg7
S'Teutoni'
p4790
sg9
I0
sg10
I140
sg11
I40
sg12
g13
sg14
S'peter griffin'
p4791
sba(itravian_raidmap
raid
p4792
(dp4793
g6
I5221
sg7
S'Galli'
p4794
sg9
I0
sg10
I149
sg11
I63
sg12
g13
sg14
S'marcopancio'
p4795
sba(itravian_raidmap
raid
p4796
(dp4797
g6
I10314
sg7
S'Teutoni'
p4798
sg9
I0
sg10
I141
sg11
I40
sg12
g13
sg14
S'peter griffin'
p4799
sba(itravian_raidmap
raid
p4800
(dp4801
g6
I4089
sg7
S'Galli'
p4802
sg9
I0
sg10
I178
sg11
I108
sg12
g13
sg14
S'fuvin'
p4803
sba(itravian_raidmap
raid
p4804
(dp4805
g6
I10314
sg7
S'Teutoni'
p4806
sg9
I0
sg10
I142
sg11
I55
sg12
g13
sg14
S'peter griffin'
p4807
sba(itravian_raidmap
raid
p4808
(dp4809
g6
I4089
sg7
S'Galli'
p4810
sg9
I0
sg10
I179
sg11
I110
sg12
g13
sg14
S'fuvin'
p4811
sba(itravian_raidmap
raid
p4812
(dp4813
g6
I10314
sg7
S'Teutoni'
p4814
sg9
I0
sg10
I147
sg11
I49
sg12
g13
sg14
S'peter griffin'
p4815
sba(itravian_raidmap
raid
p4816
(dp4817
g6
I10314
sg7
S'Teutoni'
p4818
sg9
I0
sg10
I146
sg11
I52
sg12
g13
sg14
S'peter griffin'
p4819
sba(itravian_raidmap
raid
p4820
(dp4821
g6
I4089
sg7
S'Galli'
p4822
sg9
I0
sg10
I181
sg11
I110
sg12
g13
sg14
S'fuvin'
p4823
sba(itravian_raidmap
raid
p4824
(dp4825
g6
I10314
sg7
S'Teutoni'
p4826
sg9
I0
sg10
I147
sg11
I50
sg12
g13
sg14
S'peter griffin'
p4827
sba(itravian_raidmap
raid
p4828
(dp4829
g6
I10314
sg7
S'Teutoni'
p4830
sg9
I0
sg10
I147
sg11
I51
sg12
g13
sg14
S'peter griffin'
p4831
sba(itravian_raidmap
raid
p4832
(dp4833
g6
I10314
sg7
S'Teutoni'
p4834
sg9
I0
sg10
I147
sg11
I52
sg12
g13
sg14
S'peter griffin'
p4835
sba(itravian_raidmap
raid
p4836
(dp4837
g6
I3899
sg7
S'Galli'
p4838
sg9
I0
sg10
I200
sg11
I91
sg12
g13
sg14
S'valer x'
p4839
sba(itravian_raidmap
raid
p4840
(dp4841
g6
I7112
sg7
S'Romani'
p4842
sg9
I0
sg10
I166
sg11
I32
sg12
g13
sg14
S'dinamite'
p4843
sba(itravian_raidmap
raid
p4844
(dp4845
g6
I10314
sg7
S'Teutoni'
p4846
sg9
I0
sg10
I148
sg11
I50
sg12
g13
sg14
S'peter griffin'
p4847
sba(itravian_raidmap
raid
p4848
(dp4849
g6
I10314
sg7
S'Teutoni'
p4850
sg9
I0
sg10
I148
sg11
I52
sg12
g13
sg14
S'peter griffin'
p4851
sba(itravian_raidmap
raid
p4852
(dp4853
g6
I10314
sg7
S'Teutoni'
p4854
sg9
I0
sg10
I149
sg11
I50
sg12
g13
sg14
S'peter griffin'
p4855
sba(itravian_raidmap
raid
p4856
(dp4857
g6
I10314
sg7
S'Teutoni'
p4858
sg9
I0
sg10
I149
sg11
I51
sg12
g13
sg14
S'peter griffin'
p4859
sba(itravian_raidmap
raid
p4860
(dp4861
g6
I6549
sg7
S'Romani'
p4862
sg9
I0
sg10
I188
sg11
I48
sg12
g13
sg14
S'binik'
p4863
sba(itravian_raidmap
raid
p4864
(dp4865
g6
I6549
sg7
S'Romani'
p4866
sg9
I0
sg10
I189
sg11
I46
sg12
g13
sg14
S'binik'
p4867
sba(itravian_raidmap
raid
p4868
(dp4869
g6
I6549
sg7
S'Romani'
p4870
sg9
I0
sg10
I189
sg11
I47
sg12
g13
sg14
S'binik'
p4871
sba(itravian_raidmap
raid
p4872
(dp4873
g6
I6549
sg7
S'Romani'
p4874
sg9
I0
sg10
I189
sg11
I48
sg12
g13
sg14
S'binik'
p4875
sba(itravian_raidmap
raid
p4876
(dp4877
g6
I6549
sg7
S'Romani'
p4878
sg9
I0
sg10
I189
sg11
I49
sg12
g13
sg14
S'binik'
p4879
sba(itravian_raidmap
raid
p4880
(dp4881
g6
I6549
sg7
S'Romani'
p4882
sg9
I0
sg10
I190
sg11
I48
sg12
g13
sg14
S'binik'
p4883
sba(itravian_raidmap
raid
p4884
(dp4885
g6
I6549
sg7
S'Romani'
p4886
sg9
I0
sg10
I190
sg11
I49
sg12
g13
sg14
S'binik'
p4887
sba(itravian_raidmap
raid
p4888
(dp4889
g6
I6549
sg7
S'Romani'
p4890
sg9
I0
sg10
I191
sg11
I46
sg12
g13
sg14
S'binik'
p4891
sba(itravian_raidmap
raid
p4892
(dp4893
g6
I6549
sg7
S'Romani'
p4894
sg9
I0
sg10
I191
sg11
I48
sg12
g13
sg14
S'binik'
p4895
sba(itravian_raidmap
raid
p4896
(dp4897
g6
I6244
sg7
S'Romani'
p4898
sg9
I0
sg10
I206
sg11
I36
sg12
g13
sg14
S'Richard Neville'
p4899
sba(itravian_raidmap
raid
p4900
(dp4901
g6
I7254
sg7
S'Romani'
p4902
sg9
I0
sg10
I164
sg11
I47
sg12
g13
sg14
S'rusty'
p4903
sba(itravian_raidmap
raid
p4904
(dp4905
g6
I6244
sg7
S'Romani'
p4906
sg9
I0
sg10
I207
sg11
I36
sg12
g13
sg14
S'Richard Neville'
p4907
sba(itravian_raidmap
raid
p4908
(dp4909
g6
I6244
sg7
S'Romani'
p4910
sg9
I0
sg10
I207
sg11
I37
sg12
g13
sg14
S'Richard Neville'
p4911
sba(itravian_raidmap
raid
p4912
(dp4913
g6
I6244
sg7
S'Romani'
p4914
sg9
I0
sg10
I208
sg11
I36
sg12
g13
sg14
S'Richard Neville'
p4915
sba(itravian_raidmap
raid
p4916
(dp4917
g6
I6549
sg7
S'Romani'
p4918
sg9
I0
sg10
I193
sg11
I50
sg12
g13
sg14
S'binik'
p4919
sba(itravian_raidmap
raid
p4920
(dp4921
g6
I5295
sg7
S'Galli'
p4922
sg9
I0
sg10
I172
sg11
I17
sg12
g13
sg14
S'jhonnytt'
p4923
sba(itravian_raidmap
raid
p4924
(dp4925
g6
I6244
sg7
S'Romani'
p4926
sg9
I0
sg10
I209
sg11
I35
sg12
g13
sg14
S'Richard Neville'
p4927
sba(itravian_raidmap
raid
p4928
(dp4929
g6
I6549
sg7
S'Romani'
p4930
sg9
I0
sg10
I195
sg11
I45
sg12
g13
sg14
S'binik'
p4931
sba(itravian_raidmap
raid
p4932
(dp4933
g6
I6244
sg7
S'Romani'
p4934
sg9
I0
sg10
I209
sg11
I36
sg12
g13
sg14
S'Richard Neville'
p4935
sba(itravian_raidmap
raid
p4936
(dp4937
g6
I6244
sg7
S'Romani'
p4938
sg9
I0
sg10
I210
sg11
I33
sg12
g13
sg14
S'Richard Neville'
p4939
sba(itravian_raidmap
raid
p4940
(dp4941
g6
I6244
sg7
S'Romani'
p4942
sg9
I0
sg10
I210
sg11
I35
sg12
g13
sg14
S'Richard Neville'
p4943
sba(itravian_raidmap
raid
p4944
(dp4945
g6
I7112
sg7
S'Romani'
p4946
sg9
I0
sg10
I174
sg11
I43
sg12
g13
sg14
S'dinamite'
p4947
sba(itravian_raidmap
raid
p4948
(dp4949
g6
I7112
sg7
S'Romani'
p4950
sg9
I0
sg10
I176
sg11
I34
sg12
g13
sg14
S'dinamite'
p4951
sba(itravian_raidmap
raid
p4952
(dp4953
g6
I6244
sg7
S'Romani'
p4954
sg9
I0
sg10
I210
sg11
I36
sg12
g13
sg14
S'Richard Neville'
p4955
sba(itravian_raidmap
raid
p4956
(dp4957
g6
I7254
sg7
S'Romani'
p4958
sg9
I0
sg10
I168
sg11
I45
sg12
g13
sg14
S'rusty'
p4959
sba(itravian_raidmap
raid
p4960
(dp4961
g6
I7254
sg7
S'Romani'
p4962
sg9
I0
sg10
I170
sg11
I41
sg12
g13
sg14
S'rusty'
p4963
sba(itravian_raidmap
raid
p4964
(dp4965
g6
I7254
sg7
S'Romani'
p4966
sg9
I0
sg10
I169
sg11
I45
sg12
g13
sg14
S'rusty'
p4967
sba(itravian_raidmap
raid
p4968
(dp4969
g6
I7112
sg7
S'Romani'
p4970
sg9
I0
sg10
I179
sg11
I33
sg12
g13
sg14
S'dinamite'
p4971
sba(itravian_raidmap
raid
p4972
(dp4973
g6
I4326
sg7
S'Galli'
p4974
sg9
I0
sg10
I213
sg11
I24
sg12
g13
sg14
S'Tosondoro'
p4975
sba(itravian_raidmap
raid
p4976
(dp4977
g6
I5564
sg7
S'Romani'
p4978
sg9
I0
sg10
I241
sg11
I31
sg12
g13
sg14
S'Tetris'
p4979
sba(itravian_raidmap
raid
p4980
(dp4981
g6
I7112
sg7
S'Romani'
p4982
sg9
I0
sg10
I180
sg11
I35
sg12
g13
sg14
S'dinamite'
p4983
sba(itravian_raidmap
raid
p4984
(dp4985
g6
I7112
sg7
S'Romani'
p4986
sg9
I0
sg10
I181
sg11
I30
sg12
g13
sg14
S'dinamite'
p4987
sba(itravian_raidmap
raid
p4988
(dp4989
g6
I7112
sg7
S'Romani'
p4990
sg9
I0
sg10
I181
sg11
I31
sg12
g13
sg14
S'dinamite'
p4991
sba(itravian_raidmap
raid
p4992
(dp4993
g6
I5295
sg7
S'Galli'
p4994
sg9
I0
sg10
I177
sg11
I15
sg12
g13
sg14
S'jhonnytt'
p4995
sba(itravian_raidmap
raid
p4996
(dp4997
g6
I5295
sg7
S'Galli'
p4998
sg9
I0
sg10
I177
sg11
I22
sg12
g13
sg14
S'jhonnytt'
p4999
sba(itravian_raidmap
raid
p5000
(dp5001
g6
I5565
sg7
S'Romani'
p5002
sg9
I0
sg10
I245
sg11
I22
sg12
g13
sg14
S'Tetris'
p5003
sba(itravian_raidmap
raid
p5004
(dp5005
g6
I6085
sg7
S'Romani'
p5006
sg9
I0
sg10
I226
sg11
I6
sg12
g13
sg14
S'ValerioMetronio'
p5007
sba(itravian_raidmap
raid
p5008
(dp5009
g6
I6085
sg7
S'Romani'
p5010
sg9
I0
sg10
I226
sg11
I8
sg12
g13
sg14
S'ValerioMetronio'
p5011
sba(itravian_raidmap
raid
p5012
(dp5013
g6
I6085
sg7
S'Romani'
p5014
sg9
I0
sg10
I227
sg11
I6
sg12
g13
sg14
S'ValerioMetronio'
p5015
sba(itravian_raidmap
raid
p5016
(dp5017
g6
I6085
sg7
S'Romani'
p5018
sg9
I0
sg10
I227
sg11
I7
sg12
g13
sg14
S'ValerioMetronio'
p5019
sba(itravian_raidmap
raid
p5020
(dp5021
g6
I6085
sg7
S'Romani'
p5022
sg9
I0
sg10
I227
sg11
I8
sg12
g13
sg14
S'ValerioMetronio'
p5023
sba(itravian_raidmap
raid
p5024
(dp5025
g6
I7112
sg7
S'Romani'
p5026
sg9
I0
sg10
I185
sg11
I32
sg12
g13
sg14
S'dinamite'
p5027
sba(itravian_raidmap
raid
p5028
(dp5029
g6
I6085
sg7
S'Romani'
p5030
sg9
I0
sg10
I228
sg11
I6
sg12
g13
sg14
S'ValerioMetronio'
p5031
sba(itravian_raidmap
raid
p5032
(dp5033
g6
I6085
sg7
S'Romani'
p5034
sg9
I0
sg10
I228
sg11
I7
sg12
g13
sg14
S'ValerioMetronio'
p5035
sba(itravian_raidmap
raid
p5036
(dp5037
g6
I6085
sg7
S'Romani'
p5038
sg9
I0
sg10
I228
sg11
I8
sg12
g13
sg14
S'ValerioMetronio'
p5039
sba(itravian_raidmap
raid
p5040
(dp5041
g6
I5565
sg7
S'Romani'
p5042
sg9
I0
sg10
I247
sg11
I26
sg12
g13
sg14
S'Tetris'
p5043
sba(itravian_raidmap
raid
p5044
(dp5045
g6
I4326
sg7
S'Galli'
p5046
sg9
I0
sg10
I218
sg11
I23
sg12
g13
sg14
S'Tosondoro'
p5047
sba(itravian_raidmap
raid
p5048
(dp5049
g6
I4326
sg7
S'Galli'
p5050
sg9
I0
sg10
I218
sg11
I24
sg12
g13
sg14
S'Tosondoro'
p5051
sba(itravian_raidmap
raid
p5052
(dp5053
g6
I6051
sg7
S'Romani'
p5054
sg9
I0
sg10
I225
sg11
I48
sg12
g13
sg14
S'THC'
p5055
sba(itravian_raidmap
raid
p5056
(dp5057
g6
I7112
sg7
S'Romani'
p5058
sg9
I0
sg10
I186
sg11
I33
sg12
g13
sg14
S'dinamite'
p5059
sba(itravian_raidmap
raid
p5060
(dp5061
g6
I4326
sg7
S'Galli'
p5062
sg9
I0
sg10
I219
sg11
I19
sg12
g13
sg14
S'Tosondoro'
p5063
sba(itravian_raidmap
raid
p5064
(dp5065
g6
I8077
sg7
S'Romani'
p5066
sg9
I0
sg10
I146
sg11
I42
sg12
g13
sg14
S'skirius'
p5067
sba(itravian_raidmap
raid
p5068
(dp5069
g6
I10209
sg7
S'Teutoni'
p5070
sg9
I0
sg10
I176
sg11
I59
sg12
g13
sg14
S'S4RGON'
p5071
sba(itravian_raidmap
raid
p5072
(dp5073
g6
I4326
sg7
S'Galli'
p5074
sg9
I0
sg10
I219
sg11
I23
sg12
g13
sg14
S'Tosondoro'
p5075
sba(itravian_raidmap
raid
p5076
(dp5077
g6
I6051
sg7
S'Romani'
p5078
sg9
I0
sg10
I226
sg11
I47
sg12
g13
sg14
S'THC'
p5079
sba(itravian_raidmap
raid
p5080
(dp5081
g6
I6051
sg7
S'Romani'
p5082
sg9
I0
sg10
I226
sg11
I49
sg12
g13
sg14
S'THC'
p5083
sba(itravian_raidmap
raid
p5084
(dp5085
g6
I6051
sg7
S'Romani'
p5086
sg9
I0
sg10
I226
sg11
I50
sg12
g13
sg14
S'THC'
p5087
sba(itravian_raidmap
raid
p5088
(dp5089
g6
I6051
sg7
S'Romani'
p5090
sg9
I0
sg10
I227
sg11
I47
sg12
g13
sg14
S'THC'
p5091
sba(itravian_raidmap
raid
p5092
(dp5093
g6
I10209
sg7
S'Teutoni'
p5094
sg9
I0
sg10
I176
sg11
I63
sg12
g13
sg14
S'S4RGON'
p5095
sba(itravian_raidmap
raid
p5096
(dp5097
g6
I4089
sg7
S'Galli'
p5098
sg9
I0
sg10
I203
sg11
I109
sg12
g13
sg14
S'fuvin'
p5099
sba(itravian_raidmap
raid
p5100
(dp5101
g6
I6051
sg7
S'Romani'
p5102
sg9
I0
sg10
I227
sg11
I49
sg12
g13
sg14
S'THC'
p5103
sba(itravian_raidmap
raid
p5104
(dp5105
g6
I10209
sg7
S'Teutoni'
p5106
sg9
I0
sg10
I172
sg11
I75
sg12
g13
sg14
S'S4RGON'
p5107
sba(itravian_raidmap
raid
p5108
(dp5109
g6
I6051
sg7
S'Romani'
p5110
sg9
I0
sg10
I227
sg11
I50
sg12
g13
sg14
S'THC'
p5111
sba(itravian_raidmap
raid
p5112
(dp5113
g6
I8076
sg7
S'Romani'
p5114
sg9
I0
sg10
I148
sg11
I42
sg12
g13
sg14
S'skirius'
p5115
sba(itravian_raidmap
raid
p5116
(dp5117
g6
I6051
sg7
S'Romani'
p5118
sg9
I0
sg10
I228
sg11
I47
sg12
g13
sg14
S'THC'
p5119
sba(itravian_raidmap
raid
p5120
(dp5121
g6
I8076
sg7
S'Romani'
p5122
sg9
I0
sg10
I148
sg11
I43
sg12
g13
sg14
S'skirius'
p5123
sba(itravian_raidmap
raid
p5124
(dp5125
g6
I8077
sg7
S'Romani'
p5126
sg9
I0
sg10
I149
sg11
I40
sg12
g13
sg14
S'skirius'
p5127
sba(itravian_raidmap
raid
p5128
(dp5129
g6
I6051
sg7
S'Romani'
p5130
sg9
I0
sg10
I228
sg11
I49
sg12
g13
sg14
S'THC'
p5131
sba(itravian_raidmap
raid
p5132
(dp5133
g6
I10209
sg7
S'Teutoni'
p5134
sg9
I0
sg10
I175
sg11
I71
sg12
g13
sg14
S'S4RGON'
p5135
sba(itravian_raidmap
raid
p5136
(dp5137
g6
I6051
sg7
S'Romani'
p5138
sg9
I0
sg10
I228
sg11
I50
sg12
g13
sg14
S'THC'
p5139
sba(itravian_raidmap
raid
p5140
(dp5141
g6
I4086
sg7
S'Galli'
p5142
sg9
I0
sg10
I211
sg11
I97
sg12
g13
sg14
S'fuvin'
p5143
sba(itravian_raidmap
raid
p5144
(dp5145
g6
I10209
sg7
S'Teutoni'
p5146
sg9
I0
sg10
I179
sg11
I64
sg12
g13
sg14
S'S4RGON'
p5147
sba(itravian_raidmap
raid
p5148
(dp5149
g6
I8076
sg7
S'Romani'
p5150
sg9
I0
sg10
I149
sg11
I45
sg12
g13
sg14
S'skirius'
p5151
sba(itravian_raidmap
raid
p5152
(dp5153
g6
I10209
sg7
S'Teutoni'
p5154
sg9
I0
sg10
I173
sg11
I80
sg12
g13
sg14
S'S4RGON'
p5155
sba(itravian_raidmap
raid
p5156
(dp5157
g6
I10209
sg7
S'Teutoni'
p5158
sg9
I0
sg10
I177
sg11
I73
sg12
g13
sg14
S'S4RGON'
p5159
sba(itravian_raidmap
raid
p5160
(dp5161
g6
I8076
sg7
S'Romani'
p5162
sg9
I0
sg10
I151
sg11
I42
sg12
g13
sg14
S'skirius'
p5163
sba(itravian_raidmap
raid
p5164
(dp5165
g6
I8076
sg7
S'Romani'
p5166
sg9
I0
sg10
I151
sg11
I43
sg12
g13
sg14
S'skirius'
p5167
sba(itravian_raidmap
raid
p5168
(dp5169
g6
I10209
sg7
S'Teutoni'
p5170
sg9
I0
sg10
I181
sg11
I64
sg12
g13
sg14
S'S4RGON'
p5171
sba(itravian_raidmap
raid
p5172
(dp5173
g6
I8076
sg7
S'Romani'
p5174
sg9
I0
sg10
I151
sg11
I45
sg12
g13
sg14
S'skirius'
p5175
sba(itravian_raidmap
raid
p5176
(dp5177
g6
I10209
sg7
S'Teutoni'
p5178
sg9
I0
sg10
I183
sg11
I63
sg12
g13
sg14
S'S4RGON'
p5179
sba(itravian_raidmap
raid
p5180
(dp5181
g6
I10209
sg7
S'Teutoni'
p5182
sg9
I0
sg10
I183
sg11
I64
sg12
g13
sg14
S'S4RGON'
p5183
sba(itravian_raidmap
raid
p5184
(dp5185
g6
I10209
sg7
S'Teutoni'
p5186
sg9
I0
sg10
I181
sg11
I70
sg12
g13
sg14
S'S4RGON'
p5187
sba(itravian_raidmap
raid
p5188
(dp5189
g6
I10209
sg7
S'Teutoni'
p5190
sg9
I0
sg10
I183
sg11
I65
sg12
g13
sg14
S'S4RGON'
p5191
sba(itravian_raidmap
raid
p5192
(dp5193
g6
I10209
sg7
S'Teutoni'
p5194
sg9
I0
sg10
I186
sg11
I69
sg12
g13
sg14
S'S4RGON'
p5195
sba(itravian_raidmap
raid
p5196
(dp5197
g6
I10209
sg7
S'Teutoni'
p5198
sg9
I0
sg10
I184
sg11
I78
sg12
g13
sg14
S'S4RGON'
p5199
sba(itravian_raidmap
raid
p5200
(dp5201
g6
I4433
sg7
S'Galli'
p5202
sg9
I0
sg10
I207
sg11
I100
sg12
g13
sg14
S'yuma'
p5203
sba(itravian_raidmap
raid
p5204
(dp5205
g6
I4433
sg7
S'Galli'
p5206
sg9
I0
sg10
I208
sg11
I99
sg12
g13
sg14
S'yuma'
p5207
sba(itravian_raidmap
raid
p5208
(dp5209
g6
I8344
sg7
S'Romani'
p5210
sg9
I0
sg10
I147
sg11
I62
sg12
g13
sg14
S'Ganja Lover'
p5211
sba(itravian_raidmap
raid
p5212
(dp5213
g6
I10699
sg7
S'Teutoni'
p5214
sg9
I0
sg10
I156
sg11
I108
sg12
g13
sg14
S'_HeLlLaS_'
p5215
sba(itravian_raidmap
raid
p5216
(dp5217
g6
I10699
sg7
S'Teutoni'
p5218
sg9
I0
sg10
I173
sg11
I87
sg12
g13
sg14
S'_HeLlLaS_'
p5219
sba(itravian_raidmap
raid
p5220
(dp5221
g6
I10837
sg7
S'Teutoni'
p5222
sg9
I0
sg10
I189
sg11
I0
sg12
g13
sg14
S'-M-'
p5223
sba(itravian_raidmap
raid
p5224
(dp5225
g6
I10837
sg7
S'Teutoni'
p5226
sg9
I0
sg10
I190
sg11
I8
sg12
g13
sg14
S'-M-'
p5227
sba(itravian_raidmap
raid
p5228
(dp5229
g6
I10837
sg7
S'Teutoni'
p5230
sg9
I0
sg10
I190
sg11
I11
sg12
g13
sg14
S'-M-'
p5231
sba(itravian_raidmap
raid
p5232
(dp5233
g6
I8344
sg7
S'Romani'
p5234
sg9
I0
sg10
I152
sg11
I65
sg12
g13
sg14
S'Ganja Lover'
p5235
sba(itravian_raidmap
raid
p5236
(dp5237
g6
I8344
sg7
S'Romani'
p5238
sg9
I0
sg10
I153
sg11
I63
sg12
g13
sg14
S'Ganja Lover'
p5239
sba(itravian_raidmap
raid
p5240
(dp5241
g6
I4433
sg7
S'Galli'
p5242
sg9
I0
sg10
I213
sg11
I103
sg12
g13
sg14
S'yuma'
p5243
sba(itravian_raidmap
raid
p5244
(dp5245
g6
I6632
sg7
S'Galli'
p5246
sg9
I0
sg10
I145
sg11
I43
sg12
g13
sg14
S'KING DIAMOND'
p5247
sba(itravian_raidmap
raid
p5248
(dp5249
g6
I10837
sg7
S'Teutoni'
p5250
sg9
I0
sg10
I192
sg11
I11
sg12
g13
sg14
S'-M-'
p5251
sba(itravian_raidmap
raid
p5252
(dp5253
g6
I6632
sg7
S'Galli'
p5254
sg9
I0
sg10
I145
sg11
I44
sg12
g13
sg14
S'KING DIAMOND'
p5255
sba(itravian_raidmap
raid
p5256
(dp5257
g6
I6632
sg7
S'Galli'
p5258
sg9
I0
sg10
I146
sg11
I43
sg12
g13
sg14
S'KING DIAMOND'
p5259
sba(itravian_raidmap
raid
p5260
(dp5261
g6
I10837
sg7
S'Teutoni'
p5262
sg9
I0
sg10
I194
sg11
I12
sg12
g13
sg14
S'-M-'
p5263
sba(itravian_raidmap
raid
p5264
(dp5265
g6
I8344
sg7
S'Romani'
p5266
sg9
I0
sg10
I163
sg11
I44
sg12
g13
sg14
S'Ganja Lover'
p5267
sba(itravian_raidmap
raid
p5268
(dp5269
g6
I7254
sg7
S'Romani'
p5270
sg9
I0
sg10
I204
sg11
I55
sg12
g13
sg14
S'rusty'
p5271
sba(itravian_raidmap
raid
p5272
(dp5273
g6
I10837
sg7
S'Teutoni'
p5274
sg9
I0
sg10
I195
sg11
I13
sg12
g13
sg14
S'-M-'
p5275
sba(itravian_raidmap
raid
p5276
(dp5277
g6
I8344
sg7
S'Romani'
p5278
sg9
I0
sg10
I152
sg11
I74
sg12
g13
sg14
S'Ganja Lover'
p5279
sba(itravian_raidmap
raid
p5280
(dp5281
g6
I10837
sg7
S'Teutoni'
p5282
sg9
I0
sg10
I195
sg11
I15
sg12
g13
sg14
S'-M-'
p5283
sba(itravian_raidmap
raid
p5284
(dp5285
g6
I6632
sg7
S'Galli'
p5286
sg9
I0
sg10
I147
sg11
I44
sg12
g13
sg14
S'KING DIAMOND'
p5287
sba(itravian_raidmap
raid
p5288
(dp5289
g6
I8344
sg7
S'Romani'
p5290
sg9
I0
sg10
I162
sg11
I49
sg12
g13
sg14
S'Ganja Lover'
p5291
sba(itravian_raidmap
raid
p5292
(dp5293
g6
I8344
sg7
S'Romani'
p5294
sg9
I0
sg10
I157
sg11
I64
sg12
g13
sg14
S'Ganja Lover'
p5295
sba(itravian_raidmap
raid
p5296
(dp5297
g6
I7254
sg7
S'Romani'
p5298
sg9
I0
sg10
I205
sg11
I54
sg12
g13
sg14
S'rusty'
p5299
sba(itravian_raidmap
raid
p5300
(dp5301
g6
I10837
sg7
S'Teutoni'
p5302
sg9
I0
sg10
I196
sg11
I9
sg12
g13
sg14
S'-M-'
p5303
sba(itravian_raidmap
raid
p5304
(dp5305
g6
I8344
sg7
S'Romani'
p5306
sg9
I0
sg10
I160
sg11
I57
sg12
g13
sg14
S'Ganja Lover'
p5307
sba(itravian_raidmap
raid
p5308
(dp5309
g6
I7254
sg7
S'Romani'
p5310
sg9
I0
sg10
I205
sg11
I55
sg12
g13
sg14
S'rusty'
p5311
sba(itravian_raidmap
raid
p5312
(dp5313
g6
I6632
sg7
S'Galli'
p5314
sg9
I0
sg10
I148
sg11
I44
sg12
g13
sg14
S'KING DIAMOND'
p5315
sba(itravian_raidmap
raid
p5316
(dp5317
g6
I6632
sg7
S'Galli'
p5318
sg9
I0
sg10
I149
sg11
I43
sg12
g13
sg14
S'KING DIAMOND'
p5319
sba(itravian_raidmap
raid
p5320
(dp5321
g6
I10699
sg7
S'Teutoni'
p5322
sg9
I0
sg10
I179
sg11
I98
sg12
g13
sg14
S'_HeLlLaS_'
p5323
sba(itravian_raidmap
raid
p5324
(dp5325
g6
I7254
sg7
S'Romani'
p5326
sg9
I0
sg10
I208
sg11
I51
sg12
g13
sg14
S'rusty'
p5327
sba(itravian_raidmap
raid
p5328
(dp5329
g6
I10699
sg7
S'Teutoni'
p5330
sg9
I0
sg10
I179
sg11
I99
sg12
g13
sg14
S'_HeLlLaS_'
p5331
sba(itravian_raidmap
raid
p5332
(dp5333
g6
I10837
sg7
S'Teutoni'
p5334
sg9
I0
sg10
I199
sg11
I11
sg12
g13
sg14
S'-M-'
p5335
sba(itravian_raidmap
raid
p5336
(dp5337
g6
I10837
sg7
S'Teutoni'
p5338
sg9
I0
sg10
I199
sg11
I12
sg12
g13
sg14
S'-M-'
p5339
sba(itravian_raidmap
raid
p5340
(dp5341
g6
I8344
sg7
S'Romani'
p5342
sg9
I0
sg10
I167
sg11
I43
sg12
g13
sg14
S'Ganja Lover'
p5343
sba(itravian_raidmap
raid
p5344
(dp5345
g6
I7254
sg7
S'Romani'
p5346
sg9
I0
sg10
I210
sg11
I49
sg12
g13
sg14
S'rusty'
p5347
sba(itravian_raidmap
raid
p5348
(dp5349
g6
I10837
sg7
S'Teutoni'
p5350
sg9
I0
sg10
I201
sg11
I1
sg12
g13
sg14
S'-M-'
p5351
sba(itravian_raidmap
raid
p5352
(dp5353
g6
I7254
sg7
S'Romani'
p5354
sg9
I0
sg10
I211
sg11
I48
sg12
g13
sg14
S'rusty'
p5355
sba(itravian_raidmap
raid
p5356
(dp5357
g6
I10837
sg7
S'Teutoni'
p5358
sg9
I0
sg10
I202
sg11
I13
sg12
g13
sg14
S'-M-'
p5359
sba(itravian_raidmap
raid
p5360
(dp5361
g6
I7254
sg7
S'Romani'
p5362
sg9
I0
sg10
I212
sg11
I49
sg12
g13
sg14
S'rusty'
p5363
sba(itravian_raidmap
raid
p5364
(dp5365
g6
I10699
sg7
S'Teutoni'
p5366
sg9
I0
sg10
I189
sg11
I94
sg12
g13
sg14
S'_HeLlLaS_'
p5367
sba(itravian_raidmap
raid
p5368
(dp5369
g6
I10699
sg7
S'Teutoni'
p5370
sg9
I0
sg10
I189
sg11
I97
sg12
g13
sg14
S'_HeLlLaS_'
p5371
sba(itravian_raidmap
raid
p5372
(dp5373
g6
I8344
sg7
S'Romani'
p5374
sg9
I0
sg10
I167
sg11
I63
sg12
g13
sg14
S'Ganja Lover'
p5375
sba(itravian_raidmap
raid
p5376
(dp5377
g6
I10699
sg7
S'Teutoni'
p5378
sg9
I0
sg10
I192
sg11
I96
sg12
g13
sg14
S'_HeLlLaS_'
p5379
sba(itravian_raidmap
raid
p5380
(dp5381
g6
I9747
sg7
S'Romani'
p5382
sg9
I0
sg10
I108
sg11
I65
sg12
g13
sg14
S'beby'
p5383
sba(itravian_raidmap
raid
p5384
(dp5385
g6
I10837
sg7
S'Teutoni'
p5386
sg9
I0
sg10
I210
sg11
I13
sg12
g13
sg14
S'-M-'
p5387
sba(itravian_raidmap
raid
p5388
(dp5389
g6
I10699
sg7
S'Teutoni'
p5390
sg9
I0
sg10
I192
sg11
I100
sg12
g13
sg14
S'_HeLlLaS_'
p5391
sba(itravian_raidmap
raid
p5392
(dp5393
g6
I10699
sg7
S'Teutoni'
p5394
sg9
I0
sg10
I192
sg11
I103
sg12
g13
sg14
S'_HeLlLaS_'
p5395
sba(itravian_raidmap
raid
p5396
(dp5397
g6
I10699
sg7
S'Teutoni'
p5398
sg9
I0
sg10
I191
sg11
I106
sg12
g13
sg14
S'_HeLlLaS_'
p5399
sba(itravian_raidmap
raid
p5400
(dp5401
g6
I8344
sg7
S'Romani'
p5402
sg9
I0
sg10
I160
sg11
I90
sg12
g13
sg14
S'Ganja Lover'
p5403
sba(itravian_raidmap
raid
p5404
(dp5405
g6
I10699
sg7
S'Teutoni'
p5406
sg9
I0
sg10
I197
sg11
I108
sg12
g13
sg14
S'_HeLlLaS_'
p5407
sba(itravian_raidmap
raid
p5408
(dp5409
g6
I10699
sg7
S'Teutoni'
p5410
sg9
I0
sg10
I205
sg11
I95
sg12
g13
sg14
S'_HeLlLaS_'
p5411
sba(itravian_raidmap
raid
p5412
(dp5413
g6
I4931
sg7
S'Galli'
p5414
sg9
I0
sg10
I207
sg11
I117
sg12
g13
sg14
S'Thomas Magno'
p5415
sba(itravian_raidmap
raid
p5416
(dp5417
g6
I10699
sg7
S'Teutoni'
p5418
sg9
I0
sg10
I204
sg11
I106
sg12
g13
sg14
S'_HeLlLaS_'
p5419
sba(itravian_raidmap
raid
p5420
(dp5421
g6
I6677
sg7
S'Galli'
p5422
sg9
I0
sg10
I168
sg11
I48
sg12
g13
sg14
S'carroarmato'
p5423
sba(itravian_raidmap
raid
p5424
(dp5425
g6
I6677
sg7
S'Galli'
p5426
sg9
I0
sg10
I167
sg11
I52
sg12
g13
sg14
S'carroarmato'
p5427
sba(itravian_raidmap
raid
p5428
(dp5429
g6
I8344
sg7
S'Romani'
p5430
sg9
I0
sg10
I186
sg11
I68
sg12
g13
sg14
S'Ganja Lover'
p5431
sba(itravian_raidmap
raid
p5432
(dp5433
g6
I6677
sg7
S'Galli'
p5434
sg9
I0
sg10
I169
sg11
I52
sg12
g13
sg14
S'carroarmato'
p5435
sba(itravian_raidmap
raid
p5436
(dp5437
g6
I6677
sg7
S'Galli'
p5438
sg9
I0
sg10
I171
sg11
I50
sg12
g13
sg14
S'carroarmato'
p5439
sba(itravian_raidmap
raid
p5440
(dp5441
g6
I6677
sg7
S'Galli'
p5442
sg9
I0
sg10
I171
sg11
I51
sg12
g13
sg14
S'carroarmato'
p5443
sba(itravian_raidmap
raid
p5444
(dp5445
g6
I6677
sg7
S'Galli'
p5446
sg9
I0
sg10
I171
sg11
I52
sg12
g13
sg14
S'carroarmato'
p5447
sba(itravian_raidmap
raid
p5448
(dp5449
g6
I6677
sg7
S'Galli'
p5450
sg9
I0
sg10
I172
sg11
I50
sg12
g13
sg14
S'carroarmato'
p5451
sba(itravian_raidmap
raid
p5452
(dp5453
g6
I6677
sg7
S'Galli'
p5454
sg9
I0
sg10
I172
sg11
I51
sg12
g13
sg14
S'carroarmato'
p5455
sba(itravian_raidmap
raid
p5456
(dp5457
g6
I6677
sg7
S'Galli'
p5458
sg9
I0
sg10
I173
sg11
I52
sg12
g13
sg14
S'carroarmato'
p5459
sba(itravian_raidmap
raid
p5460
(dp5461
g6
I6677
sg7
S'Galli'
p5462
sg9
I0
sg10
I173
sg11
I56
sg12
g13
sg14
S'carroarmato'
p5463
sba(itravian_raidmap
raid
p5464
(dp5465
g6
I6553
sg7
S'Galli'
p5466
sg9
I0
sg10
I180
sg11
I78
sg12
g13
sg14
S'gianox'
p5467
sba(itravian_raidmap
raid
p5468
(dp5469
g6
I5221
sg7
S'Galli'
p5470
sg9
I0
sg10
I244
sg11
I70
sg12
g13
sg14
S'marcopancio'
p5471
sba(itravian_raidmap
raid
p5472
(dp5473
g6
I5221
sg7
S'Galli'
p5474
sg9
I0
sg10
I251
sg11
I61
sg12
g13
sg14
S'marcopancio'
p5475
sba(itravian_raidmap
raid
p5476
(dp5477
g6
I7147
sg7
S'Galli'
p5478
sg9
I0
sg10
I154
sg11
I106
sg12
g13
sg14
S'malu'
p5479
sba(itravian_raidmap
raid
p5480
(dp5481
g6
I7147
sg7
S'Galli'
p5482
sg9
I0
sg10
I154
sg11
I107
sg12
g13
sg14
S'malu'
p5483
sba(itravian_raidmap
raid
p5484
(dp5485
g6
I7147
sg7
S'Galli'
p5486
sg9
I0
sg10
I153
sg11
I109
sg12
g13
sg14
S'malu'
p5487
sba(itravian_raidmap
raid
p5488
(dp5489
g6
I7147
sg7
S'Galli'
p5490
sg9
I0
sg10
I154
sg11
I108
sg12
g13
sg14
S'malu'
p5491
sba(itravian_raidmap
raid
p5492
(dp5493
g6
I6550
sg7
S'Galli'
p5494
sg9
I0
sg10
I251
sg11
I77
sg12
g13
sg14
S'gianox'
p5495
sba(itravian_raidmap
raid
p5496
(dp5497
g6
I16673
sg7
S'Teutoni'
p5498
sg9
I0
sg10
I125
sg11
I54
sg12
g13
sg14
S'mezzodestro'
p5499
sba(itravian_raidmap
raid
p5500
(dp5501
g6
I11623
sg7
S'Romani'
p5502
sg9
I0
sg10
I183
sg11
I27
sg12
g13
sg14
S'KiRaG'
p5503
sba(itravian_raidmap
raid
p5504
(dp5505
g6
I16672
sg7
S'Teutoni'
p5506
sg9
I0
sg10
I156
sg11
I41
sg12
g13
sg14
S'mezzodestro'
p5507
sba(itravian_raidmap
raid
p5508
(dp5509
g6
I16675
sg7
S'Teutoni'
p5510
sg9
I0
sg10
I152
sg11
I54
sg12
g13
sg14
S'mezzodestro'
p5511
sba(itravian_raidmap
raid
p5512
(dp5513
g6
I16672
sg7
S'Teutoni'
p5514
sg9
I0
sg10
I159
sg11
I34
sg12
g13
sg14
S'mezzodestro'
p5515
sba(itravian_raidmap
raid
p5516
(dp5517
g6
I16673
sg7
S'Teutoni'
p5518
sg9
I0
sg10
I156
sg11
I47
sg12
g13
sg14
S'mezzodestro'
p5519
sba(itravian_raidmap
raid
p5520
(dp5521
g6
I16673
sg7
S'Teutoni'
p5522
sg9
I0
sg10
I157
sg11
I47
sg12
g13
sg14
S'mezzodestro'
p5523
sba(itravian_raidmap
raid
p5524
(dp5525
g6
I11623
sg7
S'Romani'
p5526
sg9
I0
sg10
I196
sg11
I36
sg12
g13
sg14
S'KiRaG'
p5527
sba(itravian_raidmap
raid
p5528
(dp5529
g6
I16673
sg7
S'Teutoni'
p5530
sg9
I0
sg10
I159
sg11
I51
sg12
g13
sg14
S'mezzodestro'
p5531
sba(itravian_raidmap
raid
p5532
(dp5533
g6
I16672
sg7
S'Teutoni'
p5534
sg9
I0
sg10
I166
sg11
I40
sg12
g13
sg14
S'mezzodestro'
p5535
sba(itravian_raidmap
raid
p5536
(dp5537
g6
I16675
sg7
S'Teutoni'
p5538
sg9
I0
sg10
I161
sg11
I57
sg12
g13
sg14
S'mezzodestro'
p5539
sba(itravian_raidmap
raid
p5540
(dp5541
g6
I16672
sg7
S'Teutoni'
p5542
sg9
I0
sg10
I166
sg11
I42
sg12
g13
sg14
S'mezzodestro'
p5543
sba(itravian_raidmap
raid
p5544
(dp5545
g6
I16675
sg7
S'Teutoni'
p5546
sg9
I0
sg10
I162
sg11
I57
sg12
g13
sg14
S'mezzodestro'
p5547
sba(itravian_raidmap
raid
p5548
(dp5549
g6
I16675
sg7
S'Teutoni'
p5550
sg9
I0
sg10
I166
sg11
I50
sg12
g13
sg14
S'mezzodestro'
p5551
sba(itravian_raidmap
raid
p5552
(dp5553
g6
I16675
sg7
S'Teutoni'
p5554
sg9
I0
sg10
I166
sg11
I51
sg12
g13
sg14
S'mezzodestro'
p5555
sba(itravian_raidmap
raid
p5556
(dp5557
g6
I16672
sg7
S'Teutoni'
p5558
sg9
I0
sg10
I161
sg11
I67
sg12
g13
sg14
S'mezzodestro'
p5559
sba(itravian_raidmap
raid
p5560
(dp5561
g6
I16675
sg7
S'Teutoni'
p5562
sg9
I0
sg10
I167
sg11
I53
sg12
g13
sg14
S'mezzodestro'
p5563
sba(itravian_raidmap
raid
p5564
(dp5565
g6
I16675
sg7
S'Teutoni'
p5566
sg9
I0
sg10
I168
sg11
I51
sg12
g13
sg14
S'mezzodestro'
p5567
sba(itravian_raidmap
raid
p5568
(dp5569
g6
I16675
sg7
S'Teutoni'
p5570
sg9
I0
sg10
I168
sg11
I53
sg12
g13
sg14
S'mezzodestro'
p5571
sba(itravian_raidmap
raid
p5572
(dp5573
g6
I16672
sg7
S'Teutoni'
p5574
sg9
I0
sg10
I161
sg11
I73
sg12
g13
sg14
S'mezzodestro'
p5575
sba(itravian_raidmap
raid
p5576
(dp5577
g6
I11623
sg7
S'Romani'
p5578
sg9
I0
sg10
I208
sg11
I28
sg12
g13
sg14
S'KiRaG'
p5579
sba(itravian_raidmap
raid
p5580
(dp5581
g6
I16672
sg7
S'Teutoni'
p5582
sg9
I0
sg10
I173
sg11
I48
sg12
g13
sg14
S'mezzodestro'
p5583
sba(itravian_raidmap
raid
p5584
(dp5585
g6
I11623
sg7
S'Romani'
p5586
sg9
I0
sg10
I210
sg11
I24
sg12
g13
sg14
S'KiRaG'
p5587
sba(itravian_raidmap
raid
p5588
(dp5589
g6
I16672
sg7
S'Teutoni'
p5590
sg9
I0
sg10
I166
sg11
I72
sg12
g13
sg14
S'mezzodestro'
p5591
sba(itravian_raidmap
raid
p5592
(dp5593
g6
I11623
sg7
S'Romani'
p5594
sg9
I0
sg10
I210
sg11
I30
sg12
g13
sg14
S'KiRaG'
p5595
sba(itravian_raidmap
raid
p5596
(dp5597
g6
I11623
sg7
S'Romani'
p5598
sg9
I0
sg10
I212
sg11
I30
sg12
g13
sg14
S'KiRaG'
p5599
sba(itravian_raidmap
raid
p5600
(dp5601
g6
I11623
sg7
S'Romani'
p5602
sg9
I0
sg10
I212
sg11
I32
sg12
g13
sg14
S'KiRaG'
p5603
sba(itravian_raidmap
raid
p5604
(dp5605
g6
I11623
sg7
S'Romani'
p5606
sg9
I0
sg10
I213
sg11
I30
sg12
g13
sg14
S'KiRaG'
p5607
sba(itravian_raidmap
raid
p5608
(dp5609
g6
I11623
sg7
S'Romani'
p5610
sg9
I0
sg10
I213
sg11
I32
sg12
g13
sg14
S'KiRaG'
p5611
sba(itravian_raidmap
raid
p5612
(dp5613
g6
I11623
sg7
S'Romani'
p5614
sg9
I0
sg10
I213
sg11
I33
sg12
g13
sg14
S'KiRaG'
p5615
sba(itravian_raidmap
raid
p5616
(dp5617
g6
I11623
sg7
S'Romani'
p5618
sg9
I0
sg10
I214
sg11
I31
sg12
g13
sg14
S'KiRaG'
p5619
sba(itravian_raidmap
raid
p5620
(dp5621
g6
I16672
sg7
S'Teutoni'
p5622
sg9
I0
sg10
I185
sg11
I50
sg12
g13
sg14
S'mezzodestro'
p5623
sba(itravian_raidmap
raid
p5624
(dp5625
g6
I11623
sg7
S'Romani'
p5626
sg9
I0
sg10
I220
sg11
I24
sg12
g13
sg14
S'KiRaG'
p5627
sba(itravian_raidmap
raid
p5628
(dp5629
g6
I11623
sg7
S'Romani'
p5630
sg9
I0
sg10
I226
sg11
I22
sg12
g13
sg14
S'KiRaG'
p5631
sba(itravian_raidmap
raid
p5632
(dp5633
g6
I16675
sg7
S'Teutoni'
p5634
sg9
I0
sg10
I191
sg11
I71
sg12
g13
sg14
S'mezzodestro'
p5635
sba(itravian_raidmap
raid
p5636
(dp5637
g6
I11623
sg7
S'Romani'
p5638
sg9
I0
sg10
I229
sg11
I34
sg12
g13
sg14
S'KiRaG'
p5639
sba(itravian_raidmap
raid
p5640
(dp5641
g6
I11623
sg7
S'Romani'
p5642
sg9
I0
sg10
I232
sg11
I12
sg12
g13
sg14
S'KiRaG'
p5643
sba(itravian_raidmap
raid
p5644
(dp5645
g6
I10520
sg7
S'Galli'
p5646
sg9
I0
sg10
I171
sg11
I34
sg12
g13
sg14
S'Pitois'
p5647
sba(itravian_raidmap
raid
p5648
(dp5649
g6
I10520
sg7
S'Galli'
p5650
sg9
I0
sg10
I170
sg11
I40
sg12
g13
sg14
S'Pitois'
p5651
sba(itravian_raidmap
raid
p5652
(dp5653
g6
I10520
sg7
S'Galli'
p5654
sg9
I0
sg10
I172
sg11
I34
sg12
g13
sg14
S'Pitois'
p5655
sba(itravian_raidmap
raid
p5656
(dp5657
g6
I10520
sg7
S'Galli'
p5658
sg9
I0
sg10
I171
sg11
I41
sg12
g13
sg14
S'Pitois'
p5659
sba(itravian_raidmap
raid
p5660
(dp5661
g6
I10520
sg7
S'Galli'
p5662
sg9
I0
sg10
I172
sg11
I42
sg12
g13
sg14
S'Pitois'
p5663
sba(itravian_raidmap
raid
p5664
(dp5665
g6
I10520
sg7
S'Galli'
p5666
sg9
I0
sg10
I171
sg11
I47
sg12
g13
sg14
S'Pitois'
p5667
sba(itravian_raidmap
raid
p5668
(dp5669
g6
I10520
sg7
S'Galli'
p5670
sg9
I0
sg10
I173
sg11
I40
sg12
g13
sg14
S'Pitois'
p5671
sba(itravian_raidmap
raid
p5672
(dp5673
g6
I10520
sg7
S'Galli'
p5674
sg9
I0
sg10
I173
sg11
I41
sg12
g13
sg14
S'Pitois'
p5675
sba(itravian_raidmap
raid
p5676
(dp5677
g6
I10520
sg7
S'Galli'
p5678
sg9
I0
sg10
I173
sg11
I42
sg12
g13
sg14
S'Pitois'
p5679
sba(itravian_raidmap
raid
p5680
(dp5681
g6
I10520
sg7
S'Galli'
p5682
sg9
I0
sg10
I173
sg11
I43
sg12
g13
sg14
S'Pitois'
p5683
sba(itravian_raidmap
raid
p5684
(dp5685
g6
I10520
sg7
S'Galli'
p5686
sg9
I0
sg10
I174
sg11
I40
sg12
g13
sg14
S'Pitois'
p5687
sba(itravian_raidmap
raid
p5688
(dp5689
g6
I10520
sg7
S'Galli'
p5690
sg9
I0
sg10
I174
sg11
I42
sg12
g13
sg14
S'Pitois'
p5691
sba(itravian_raidmap
raid
p5692
(dp5693
g6
I12593
sg7
S'Romani'
p5694
sg9
I0
sg10
I202
sg11
I77
sg12
g13
sg14
S'samuelampo'
p5695
sba(itravian_raidmap
raid
p5696
(dp5697
g6
I12593
sg7
S'Romani'
p5698
sg9
I0
sg10
I206
sg11
I67
sg12
g13
sg14
S'samuelampo'
p5699
sba(itravian_raidmap
raid
p5700
(dp5701
g6
I12593
sg7
S'Romani'
p5702
sg9
I0
sg10
I207
sg11
I66
sg12
g13
sg14
S'samuelampo'
p5703
sba(itravian_raidmap
raid
p5704
(dp5705
g6
I12593
sg7
S'Romani'
p5706
sg9
I0
sg10
I207
sg11
I67
sg12
g13
sg14
S'samuelampo'
p5707
sba(itravian_raidmap
raid
p5708
(dp5709
g6
I10520
sg7
S'Galli'
p5710
sg9
I0
sg10
I173
sg11
I51
sg12
g13
sg14
S'Pitois'
p5711
sba(itravian_raidmap
raid
p5712
(dp5713
g6
I10520
sg7
S'Galli'
p5714
sg9
I0
sg10
I175
sg11
I48
sg12
g13
sg14
S'Pitois'
p5715
sba(itravian_raidmap
raid
p5716
(dp5717
g6
I12593
sg7
S'Romani'
p5718
sg9
I0
sg10
I207
sg11
I87
sg12
g13
sg14
S'samuelampo'
p5719
sba(itravian_raidmap
raid
p5720
(dp5721
g6
I12593
sg7
S'Romani'
p5722
sg9
I0
sg10
I207
sg11
I88
sg12
g13
sg14
S'samuelampo'
p5723
sba(itravian_raidmap
raid
p5724
(dp5725
g6
I12593
sg7
S'Romani'
p5726
sg9
I0
sg10
I207
sg11
I89
sg12
g13
sg14
S'samuelampo'
p5727
sba(itravian_raidmap
raid
p5728
(dp5729
g6
I12593
sg7
S'Romani'
p5730
sg9
I0
sg10
I208
sg11
I89
sg12
g13
sg14
S'samuelampo'
p5731
sba(itravian_raidmap
raid
p5732
(dp5733
g6
I12593
sg7
S'Romani'
p5734
sg9
I0
sg10
I209
sg11
I89
sg12
g13
sg14
S'samuelampo'
p5735
sba(itravian_raidmap
raid
p5736
(dp5737
g6
I12593
sg7
S'Romani'
p5738
sg9
I0
sg10
I210
sg11
I89
sg12
g13
sg14
S'samuelampo'
p5739
sba(itravian_raidmap
raid
p5740
(dp5741
g6
I12593
sg7
S'Romani'
p5742
sg9
I0
sg10
I226
sg11
I82
sg12
g13
sg14
S'samuelampo'
p5743
sba(itravian_raidmap
raid
p5744
(dp5745
g6
I12593
sg7
S'Romani'
p5746
sg9
I0
sg10
I227
sg11
I81
sg12
g13
sg14
S'samuelampo'
p5747
sba(itravian_raidmap
raid
p5748
(dp5749
g6
I12593
sg7
S'Romani'
p5750
sg9
I0
sg10
I227
sg11
I82
sg12
g13
sg14
S'samuelampo'
p5751
sba(itravian_raidmap
raid
p5752
(dp5753
g6
I12593
sg7
S'Romani'
p5754
sg9
I0
sg10
I224
sg11
I98
sg12
g13
sg14
S'samuelampo'
p5755
sba(itravian_raidmap
raid
p5756
(dp5757
g6
I16314
sg7
S'Romani'
p5758
sg9
I0
sg10
I158
sg11
I99
sg12
g13
sg14
S'durbans2'
p5759
sba(itravian_raidmap
raid
p5760
(dp5761
g6
I16314
sg7
S'Romani'
p5762
sg9
I0
sg10
I158
sg11
I104
sg12
g13
sg14
S'durbans2'
p5763
sba(itravian_raidmap
raid
p5764
(dp5765
g6
I16314
sg7
S'Romani'
p5766
sg9
I0
sg10
I158
sg11
I105
sg12
g13
sg14
S'durbans2'
p5767
sba(itravian_raidmap
raid
p5768
(dp5769
g6
I16314
sg7
S'Romani'
p5770
sg9
I0
sg10
I159
sg11
I104
sg12
g13
sg14
S'durbans2'
p5771
sba(itravian_raidmap
raid
p5772
(dp5773
g6
I16314
sg7
S'Romani'
p5774
sg9
I0
sg10
I158
sg11
I106
sg12
g13
sg14
S'durbans2'
p5775
sba(itravian_raidmap
raid
p5776
(dp5777
g6
I16314
sg7
S'Romani'
p5778
sg9
I0
sg10
I159
sg11
I105
sg12
g13
sg14
S'durbans2'
p5779
sba(itravian_raidmap
raid
p5780
(dp5781
g6
I16314
sg7
S'Romani'
p5782
sg9
I0
sg10
I159
sg11
I106
sg12
g13
sg14
S'durbans2'
p5783
sba(itravian_raidmap
raid
p5784
(dp5785
g6
I16314
sg7
S'Romani'
p5786
sg9
I0
sg10
I160
sg11
I105
sg12
g13
sg14
S'durbans2'
p5787
sba(itravian_raidmap
raid
p5788
(dp5789
g6
I16314
sg7
S'Romani'
p5790
sg9
I0
sg10
I161
sg11
I104
sg12
g13
sg14
S'durbans2'
p5791
sba(itravian_raidmap
raid
p5792
(dp5793
g6
I16314
sg7
S'Romani'
p5794
sg9
I0
sg10
I160
sg11
I106
sg12
g13
sg14
S'durbans2'
p5795
sba(itravian_raidmap
raid
p5796
(dp5797
g6
I16314
sg7
S'Romani'
p5798
sg9
I0
sg10
I159
sg11
I108
sg12
g13
sg14
S'durbans2'
p5799
sba(itravian_raidmap
raid
p5800
(dp5801
g6
I16314
sg7
S'Romani'
p5802
sg9
I0
sg10
I161
sg11
I106
sg12
g13
sg14
S'durbans2'
p5803
sba(itravian_raidmap
raid
p5804
(dp5805
g6
I16314
sg7
S'Romani'
p5806
sg9
I0
sg10
I159
sg11
I110
sg12
g13
sg14
S'durbans2'
p5807
sba(itravian_raidmap
raid
p5808
(dp5809
g6
I16314
sg7
S'Romani'
p5810
sg9
I0
sg10
I161
sg11
I108
sg12
g13
sg14
S'durbans2'
p5811
sba(itravian_raidmap
raid
p5812
(dp5813
g6
I16314
sg7
S'Romani'
p5814
sg9
I0
sg10
I161
sg11
I110
sg12
g13
sg14
S'durbans2'
p5815
sba(itravian_raidmap
raid
p5816
(dp5817
g6
I16314
sg7
S'Romani'
p5818
sg9
I0
sg10
I179
sg11
I78
sg12
g13
sg14
S'durbans2'
p5819
sba(itravian_raidmap
raid
p5820
(dp5821
g6
I16314
sg7
S'Romani'
p5822
sg9
I0
sg10
I160
sg11
I112
sg12
g13
sg14
S'durbans2'
p5823
sba(itravian_raidmap
raid
p5824
(dp5825
g6
I16314
sg7
S'Romani'
p5826
sg9
I0
sg10
I166
sg11
I103
sg12
g13
sg14
S'durbans2'
p5827
sba(itravian_raidmap
raid
p5828
(dp5829
g6
I23218
sg7
S'Teutoni'
p5830
sg9
I0
sg10
I158
sg11
I67
sg12
g13
sg14
S'damicabi'
p5831
sba(itravian_raidmap
raid
p5832
(dp5833
g6
I23218
sg7
S'Teutoni'
p5834
sg9
I0
sg10
I172
sg11
I64
sg12
g13
sg14
S'damicabi'
p5835
sba(itravian_raidmap
raid
p5836
(dp5837
g6
I23218
sg7
S'Teutoni'
p5838
sg9
I0
sg10
I174
sg11
I67
sg12
g13
sg14
S'damicabi'
p5839
sba(itravian_raidmap
raid
p5840
(dp5841
g6
I23218
sg7
S'Teutoni'
p5842
sg9
I0
sg10
I191
sg11
I37
sg12
g13
sg14
S'damicabi'
p5843
sba(itravian_raidmap
raid
p5844
(dp5845
g6
I23218
sg7
S'Teutoni'
p5846
sg9
I0
sg10
I192
sg11
I38
sg12
g13
sg14
S'damicabi'
p5847
sba(itravian_raidmap
raid
p5848
(dp5849
g6
I23218
sg7
S'Teutoni'
p5850
sg9
I0
sg10
I193
sg11
I35
sg12
g13
sg14
S'damicabi'
p5851
sba(itravian_raidmap
raid
p5852
(dp5853
g6
I23218
sg7
S'Teutoni'
p5854
sg9
I0
sg10
I193
sg11
I45
sg12
g13
sg14
S'damicabi'
p5855
sba(itravian_raidmap
raid
p5856
(dp5857
g6
I23218
sg7
S'Teutoni'
p5858
sg9
I0
sg10
I191
sg11
I54
sg12
g13
sg14
S'damicabi'
p5859
sba(itravian_raidmap
raid
p5860
(dp5861
g6
I23218
sg7
S'Teutoni'
p5862
sg9
I0
sg10
I196
sg11
I40
sg12
g13
sg14
S'damicabi'
p5863
sba(itravian_raidmap
raid
p5864
(dp5865
g6
I23218
sg7
S'Teutoni'
p5866
sg9
I0
sg10
I199
sg11
I25
sg12
g13
sg14
S'damicabi'
p5867
sba(itravian_raidmap
raid
p5868
(dp5869
g6
I23218
sg7
S'Teutoni'
p5870
sg9
I0
sg10
I192
sg11
I58
sg12
g13
sg14
S'damicabi'
p5871
sba(itravian_raidmap
raid
p5872
(dp5873
g6
I23218
sg7
S'Teutoni'
p5874
sg9
I0
sg10
I194
sg11
I56
sg12
g13
sg14
S'damicabi'
p5875
sba(itravian_raidmap
raid
p5876
(dp5877
g6
I23218
sg7
S'Teutoni'
p5878
sg9
I0
sg10
I199
sg11
I50
sg12
g13
sg14
S'damicabi'
p5879
sba(itravian_raidmap
raid
p5880
(dp5881
g6
I23218
sg7
S'Teutoni'
p5882
sg9
I0
sg10
I199
sg11
I51
sg12
g13
sg14
S'damicabi'
p5883
sba(itravian_raidmap
raid
p5884
(dp5885
g6
I23218
sg7
S'Teutoni'
p5886
sg9
I0
sg10
I201
sg11
I49
sg12
g13
sg14
S'damicabi'
p5887
sba(itravian_raidmap
raid
p5888
(dp5889
g6
I23218
sg7
S'Teutoni'
p5890
sg9
I0
sg10
I197
sg11
I70
sg12
g13
sg14
S'damicabi'
p5891
sba(itravian_raidmap
raid
p5892
(dp5893
g6
I23218
sg7
S'Teutoni'
p5894
sg9
I0
sg10
I203
sg11
I50
sg12
g13
sg14
S'damicabi'
p5895
sba(itravian_raidmap
raid
p5896
(dp5897
g6
I23218
sg7
S'Teutoni'
p5898
sg9
I0
sg10
I210
sg11
I42
sg12
g13
sg14
S'damicabi'
p5899
sba(itravian_raidmap
raid
p5900
(dp5901
g6
I23218
sg7
S'Teutoni'
p5902
sg9
I0
sg10
I212
sg11
I38
sg12
g13
sg14
S'damicabi'
p5903
sba(itravian_raidmap
raid
p5904
(dp5905
g6
I23218
sg7
S'Teutoni'
p5906
sg9
I0
sg10
I213
sg11
I38
sg12
g13
sg14
S'damicabi'
p5907
sba(itravian_raidmap
raid
p5908
(dp5909
g6
I23218
sg7
S'Teutoni'
p5910
sg9
I0
sg10
I207
sg11
I70
sg12
g13
sg14
S'damicabi'
p5911
sba(itravian_raidmap
raid
p5912
(dp5913
g6
I23218
sg7
S'Teutoni'
p5914
sg9
I0
sg10
I208
sg11
I70
sg12
g13
sg14
S'damicabi'
p5915
sba(itravian_raidmap
raid
p5916
(dp5917
g6
I23218
sg7
S'Teutoni'
p5918
sg9
I0
sg10
I210
sg11
I69
sg12
g13
sg14
S'damicabi'
p5919
sba(itravian_raidmap
raid
p5920
(dp5921
g6
I23218
sg7
S'Teutoni'
p5922
sg9
I0
sg10
I210
sg11
I75
sg12
g13
sg14
S'damicabi'
p5923
sba(itravian_raidmap
raid
p5924
(dp5925
g6
I23218
sg7
S'Teutoni'
p5926
sg9
I0
sg10
I226
sg11
I19
sg12
g13
sg14
S'damicabi'
p5927
sba(itravian_raidmap
raid
p5928
(dp5929
g6
I23218
sg7
S'Teutoni'
p5930
sg9
I0
sg10
I230
sg11
I42
sg12
g13
sg14
S'damicabi'
p5931
sba(itravian_raidmap
raid
p5932
(dp5933
g6
I23218
sg7
S'Teutoni'
p5934
sg9
I0
sg10
I237
sg11
I28
sg12
g13
sg14
S'damicabi'
p5935
sbasb.