(itravian_raidmap
raidlist
p0
(dp1
S'raids'
p2
(lp3
(itravian_raidmap
raid
p4
(dp5
S'popolazione'
p6
I437
sS'tribu'
p7
S'Teutoni'
p8
sS'done'
p9
I0
sS'yp'
p10
I179
sS'xp'
p11
I86
sS'id'
p12
S''
p13
sS'giocatore'
p14
S'merryterry'
p15
sba(itravian_raidmap
raid
p16
(dp17
g6
I481
sg7
S'Teutoni'
p18
sg9
I0
sg10
I193
sg11
I46
sg12
g13
sg14
S'giangi81'
p19
sba(itravian_raidmap
raid
p20
(dp21
g6
I481
sg7
S'Teutoni'
p22
sg9
I0
sg10
I194
sg11
I45
sg12
g13
sg14
S'giangi81'
p23
sba(itravian_raidmap
raid
p24
(dp25
g6
I481
sg7
S'Teutoni'
p26
sg9
I0
sg10
I195
sg11
I46
sg12
g13
sg14
S'giangi81'
p27
sba(itravian_raidmap
raid
p28
(dp29
g6
I316
sg7
S'Teutoni'
p30
sg9
I0
sg10
I193
sg11
I113
sg12
g13
sg14
S'Rum'
p31
sba(itravian_raidmap
raid
p32
(dp33
g6
I183
sg7
S'Romani'
p34
sg9
I0
sg10
I166
sg11
I78
sg12
g13
sg14
S'Linneo78'
p35
sba(itravian_raidmap
raid
p36
(dp37
g6
I419
sg7
S'Romani'
p38
sg9
I0
sg10
I165
sg11
I56
sg12
g13
sg14
S'sailor3'
p39
sba(itravian_raidmap
raid
p40
(dp41
g6
I617
sg7
S'Romani'
p42
sg9
I0
sg10
I158
sg11
I73
sg12
g13
sg14
S'stella3'
p43
sba(itravian_raidmap
raid
p44
(dp45
g6
I365
sg7
S'Teutoni'
p46
sg9
I0
sg10
I232
sg11
I51
sg12
g13
sg14
S'wytone'
p47
sba(itravian_raidmap
raid
p48
(dp49
g6
I417
sg7
S'Romani'
p50
sg9
I0
sg10
I179
sg11
I47
sg12
g13
sg14
S'sam92'
p51
sba(itravian_raidmap
raid
p52
(dp53
g6
I263
sg7
S'Romani'
p54
sg9
I0
sg10
I189
sg11
I34
sg12
g13
sg14
S'walleygator'
p55
sba(itravian_raidmap
raid
p56
(dp57
g6
I263
sg7
S'Romani'
p58
sg9
I0
sg10
I191
sg11
I35
sg12
g13
sg14
S'walleygator'
p59
sba(itravian_raidmap
raid
p60
(dp61
g6
I500
sg7
S'Romani'
p62
sg9
I0
sg10
I168
sg11
I77
sg12
g13
sg14
S'Talitha'
p63
sba(itravian_raidmap
raid
p64
(dp65
g6
I376
sg7
S'Romani'
p66
sg9
I0
sg10
I186
sg11
I46
sg12
g13
sg14
S'cavalli'
p67
sba(itravian_raidmap
raid
p68
(dp69
g6
I616
sg7
S'Romani'
p70
sg9
I0
sg10
I180
sg11
I49
sg12
g13
sg14
S'brunda'
p71
sba(itravian_raidmap
raid
p72
(dp73
g6
I150
sg7
S'Teutoni'
p74
sg9
I0
sg10
I249
sg11
I75
sg12
g13
sg14
S'dragonlegend'
p75
sba(itravian_raidmap
raid
p76
(dp77
g6
I135
sg7
S'Romani'
p78
sg9
I0
sg10
I205
sg11
I42
sg12
g13
sg14
S'cynthia90'
p79
sba(itravian_raidmap
raid
p80
(dp81
g6
I547
sg7
S'Romani'
p82
sg9
I0
sg10
I176
sg11
I79
sg12
g13
sg14
S'ZAPOTEC'
p83
sba(itravian_raidmap
raid
p84
(dp85
g6
I292
sg7
S'Romani'
p86
sg9
I0
sg10
I179
sg11
I96
sg12
g13
sg14
S'Catello Salerno'
p87
sba(itravian_raidmap
raid
p88
(dp89
g6
I530
sg7
S'Romani'
p90
sg9
I0
sg10
I179
sg11
I79
sg12
g13
sg14
S'conquistadoras'
p91
sba(itravian_raidmap
raid
p92
(dp93
g6
I255
sg7
S'Teutoni'
p94
sg9
I0
sg10
I256
sg11
I71
sg12
g13
sg14
S'totos89'
p95
sba(itravian_raidmap
raid
p96
(dp97
g6
I1142
sg7
S'Romani'
p98
sg9
I0
sg10
I161
sg11
I75
sg12
g13
sg14
S'Liborio'
p99
sba(itravian_raidmap
raid
p100
(dp101
g6
I1142
sg7
S'Romani'
p102
sg9
I0
sg10
I162
sg11
I73
sg12
g13
sg14
S'Liborio'
p103
sba(itravian_raidmap
raid
p104
(dp105
g6
I1142
sg7
S'Romani'
p106
sg9
I0
sg10
I162
sg11
I74
sg12
g13
sg14
S'Liborio'
p107
sba(itravian_raidmap
raid
p108
(dp109
g6
I333
sg7
S'Teutoni'
p110
sg9
I0
sg10
I260
sg11
I63
sg12
g13
sg14
S'adelecala'
p111
sba(itravian_raidmap
raid
p112
(dp113
g6
I732
sg7
S'Teutoni'
p114
sg9
I0
sg10
I242
sg11
I70
sg12
g13
sg14
S'dbshad87'
p115
sba(itravian_raidmap
raid
p116
(dp117
g6
I146
sg7
S'Romani'
p118
sg9
I0
sg10
I202
sg11
I85
sg12
g13
sg14
S'duro17'
p119
sba(itravian_raidmap
raid
p120
(dp121
g6
I1142
sg7
S'Romani'
p122
sg9
I0
sg10
I163
sg11
I75
sg12
g13
sg14
S'Liborio'
p123
sba(itravian_raidmap
raid
p124
(dp125
g6
I661
sg7
S'Teutoni'
p126
sg9
I0
sg10
I252
sg11
I54
sg12
g13
sg14
S'cri versus'
p127
sba(itravian_raidmap
raid
p128
(dp129
g6
I692
sg7
S'Teutoni'
p130
sg9
I0
sg10
I252
sg11
I53
sg12
g13
sg14
S'Mikno'
p131
sba(itravian_raidmap
raid
p132
(dp133
g6
I324
sg7
S'Romani'
p134
sg9
I0
sg10
I192
sg11
I102
sg12
g13
sg14
S'asataram'
p135
sba(itravian_raidmap
raid
p136
(dp137
g6
I678
sg7
S'Teutoni'
p138
sg9
I0
sg10
I250
sg11
I79
sg12
g13
sg14
S'LETHAL'
p139
sba(itravian_raidmap
raid
p140
(dp141
g6
I744
sg7
S'Romani'
p142
sg9
I0
sg10
I182
sg11
I90
sg12
g13
sg14
S'fabio 7'
p143
sba(itravian_raidmap
raid
p144
(dp145
g6
I744
sg7
S'Romani'
p146
sg9
I0
sg10
I183
sg11
I89
sg12
g13
sg14
S'fabio 7'
p147
sba(itravian_raidmap
raid
p148
(dp149
g6
I378
sg7
S'Romani'
p150
sg9
I0
sg10
I197
sg11
I98
sg12
g13
sg14
S'tino79'
p151
sba(itravian_raidmap
raid
p152
(dp153
g6
I1175
sg7
S'Teutoni'
p154
sg9
I0
sg10
I239
sg11
I74
sg12
g13
sg14
S'Trobox'
p155
sba(itravian_raidmap
raid
p156
(dp157
g6
I373
sg7
S'Romani'
p158
sg9
I0
sg10
I219
sg11
I43
sg12
g13
sg14
S'Navao'
p159
sba(itravian_raidmap
raid
p160
(dp161
g6
I279
sg7
S'Romani'
p162
sg9
I0
sg10
I220
sg11
I67
sg12
g13
sg14
S'sentinela'
p163
sba(itravian_raidmap
raid
p164
(dp165
g6
I172
sg7
S'Romani'
p166
sg9
I0
sg10
I218
sg11
I92
sg12
g13
sg14
S'back8'
p167
sba(itravian_raidmap
raid
p168
(dp169
g6
I276
sg7
S'Galli'
p170
sg9
I0
sg10
I185
sg11
I57
sg12
g13
sg14
S'Milito95'
p171
sba(itravian_raidmap
raid
p172
(dp173
g6
I370
sg7
S'Romani'
p174
sg9
I0
sg10
I225
sg11
I54
sg12
g13
sg14
S'devil.92'
p175
sba(itravian_raidmap
raid
p176
(dp177
g6
I1962
sg7
S'Teutoni'
p178
sg9
I0
sg10
I213
sg11
I90
sg12
g13
sg14
S'Gandalfilbianco'
p179
sba(itravian_raidmap
raid
p180
(dp181
g6
I133
sg7
S'Galli'
p182
sg9
I0
sg10
I179
sg11
I94
sg12
g13
sg14
S'framics'
p183
sba(itravian_raidmap
raid
p184
(dp185
g6
I541
sg7
S'Romani'
p186
sg9
I0
sg10
I211
sg11
I85
sg12
g13
sg14
S'melalomu'
p187
sba(itravian_raidmap
raid
p188
(dp189
g6
I1572
sg7
S'Teutoni'
p190
sg9
I0
sg10
I238
sg11
I77
sg12
g13
sg14
S'daluk95'
p191
sba(itravian_raidmap
raid
p192
(dp193
g6
I1572
sg7
S'Teutoni'
p194
sg9
I0
sg10
I239
sg11
I76
sg12
g13
sg14
S'daluk95'
p195
sba(itravian_raidmap
raid
p196
(dp197
g6
I296
sg7
S'Romani'
p198
sg9
I0
sg10
I231
sg11
I65
sg12
g13
sg14
S'giggio 182'
p199
sba(itravian_raidmap
raid
p200
(dp201
g6
I291
sg7
S'Romani'
p202
sg9
I0
sg10
I226
sg11
I83
sg12
g13
sg14
S'ld1981'
p203
sba(itravian_raidmap
raid
p204
(dp205
g6
I391
sg7
S'Romani'
p206
sg9
I0
sg10
I212
sg11
I109
sg12
g13
sg14
S'falco-arturo'
p207
sba(itravian_raidmap
raid
p208
(dp209
g6
I285
sg7
S'Romani'
p210
sg9
I0
sg10
I221
sg11
I103
sg12
g13
sg14
S'ALE1993'
p211
sba(itravian_raidmap
raid
p212
(dp213
g6
I1626
sg7
S'Teutoni'
p214
sg9
I0
sg10
I245
sg11
I68
sg12
g13
sg14
S'ronzino'
p215
sba(itravian_raidmap
raid
p216
(dp217
g6
I1626
sg7
S'Teutoni'
p218
sg9
I0
sg10
I246
sg11
I68
sg12
g13
sg14
S'ronzino'
p219
sba(itravian_raidmap
raid
p220
(dp221
g6
I849
sg7
S'Romani'
p222
sg9
I0
sg10
I217
sg11
I49
sg12
g13
sg14
S'Cpt.Gaz96'
p223
sba(itravian_raidmap
raid
p224
(dp225
g6
I1626
sg7
S'Teutoni'
p226
sg9
I0
sg10
I246
sg11
I69
sg12
g13
sg14
S'ronzino'
p227
sba(itravian_raidmap
raid
p228
(dp229
g6
I849
sg7
S'Romani'
p230
sg9
I0
sg10
I217
sg11
I50
sg12
g13
sg14
S'Cpt.Gaz96'
p231
sba(itravian_raidmap
raid
p232
(dp233
g6
I1933
sg7
S'Teutoni'
p234
sg9
I0
sg10
I219
sg11
I112
sg12
g13
sg14
S'dinos'
p235
sba(itravian_raidmap
raid
p236
(dp237
g6
I1933
sg7
S'Teutoni'
p238
sg9
I0
sg10
I221
sg11
I114
sg12
g13
sg14
S'dinos'
p239
sba(itravian_raidmap
raid
p240
(dp241
g6
I1933
sg7
S'Teutoni'
p242
sg9
I0
sg10
I223
sg11
I111
sg12
g13
sg14
S'dinos'
p243
sba(itravian_raidmap
raid
p244
(dp245
g6
I1112
sg7
S'Romani'
p246
sg9
I0
sg10
I199
sg11
I86
sg12
g13
sg14
S'BlackWolf90'
p247
sba(itravian_raidmap
raid
p248
(dp249
g6
I1933
sg7
S'Teutoni'
p250
sg9
I0
sg10
I223
sg11
I112
sg12
g13
sg14
S'dinos'
p251
sba(itravian_raidmap
raid
p252
(dp253
g6
I338
sg7
S'Galli'
p254
sg9
I0
sg10
I201
sg11
I38
sg12
g13
sg14
S'pracca'
p255
sba(itravian_raidmap
raid
p256
(dp257
g6
I448
sg7
S'Romani'
p258
sg9
I0
sg10
I231
sg11
I78
sg12
g13
sg14
S'dagobert'
p259
sba(itravian_raidmap
raid
p260
(dp261
g6
I309
sg7
S'Romani'
p262
sg9
I0
sg10
I237
sg11
I78
sg12
g13
sg14
S'Cpra Tibetana'
p263
sba(itravian_raidmap
raid
p264
(dp265
g6
I1626
sg7
S'Teutoni'
p266
sg9
I0
sg10
I255
sg11
I71
sg12
g13
sg14
S'ronzino'
p267
sba(itravian_raidmap
raid
p268
(dp269
g6
I440
sg7
S'Romani'
p270
sg9
I0
sg10
I238
sg11
I64
sg12
g13
sg14
S'morris1208'
p271
sba(itravian_raidmap
raid
p272
(dp273
g6
I425
sg7
S'Galli'
p274
sg9
I0
sg10
I204
sg11
I22
sg12
g13
sg14
S'Fabrizio1970'
p275
sba(itravian_raidmap
raid
p276
(dp277
g6
I628
sg7
S'Romani'
p278
sg9
I0
sg10
I210
sg11
I123
sg12
g13
sg14
S'giuser'
p279
sba(itravian_raidmap
raid
p280
(dp281
g6
I369
sg7
S'Romani'
p282
sg9
I0
sg10
I241
sg11
I82
sg12
g13
sg14
S'Memento mori'
p283
sba(itravian_raidmap
raid
p284
(dp285
g6
I781
sg7
S'Romani'
p286
sg9
I0
sg10
I218
sg11
I97
sg12
g13
sg14
S'josh4'
p287
sba(itravian_raidmap
raid
p288
(dp289
g6
I890
sg7
S'Romani'
p290
sg9
I0
sg10
I218
sg11
I87
sg12
g13
sg14
S'Nakan'
p291
sba(itravian_raidmap
raid
p292
(dp293
g6
I713
sg7
S'Galli'
p294
sg9
I0
sg10
I177
sg11
I87
sg12
g13
sg14
S'Cinghialot'
p295
sba(itravian_raidmap
raid
p296
(dp297
g6
I890
sg7
S'Romani'
p298
sg9
I0
sg10
I218
sg11
I89
sg12
g13
sg14
S'Nakan'
p299
sba(itravian_raidmap
raid
p300
(dp301
g6
I320
sg7
S'Romani'
p302
sg9
I0
sg10
I246
sg11
I79
sg12
g13
sg14
S'ste97'
p303
sba(itravian_raidmap
raid
p304
(dp305
g6
I886
sg7
S'Romani'
p306
sg9
I0
sg10
I203
sg11
I120
sg12
g13
sg14
S'pato94'
p307
sba(itravian_raidmap
raid
p308
(dp309
g6
I886
sg7
S'Romani'
p310
sg9
I0
sg10
I203
sg11
I121
sg12
g13
sg14
S'pato94'
p311
sba(itravian_raidmap
raid
p312
(dp313
g6
I679
sg7
S'Romani'
p314
sg9
I0
sg10
I221
sg11
I105
sg12
g13
sg14
S'angels'
p315
sba(itravian_raidmap
raid
p316
(dp317
g6
I1443
sg7
S'Romani'
p318
sg9
I0
sg10
I196
sg11
I88
sg12
g13
sg14
S'voyage'
p319
sba(itravian_raidmap
raid
p320
(dp321
g6
I798
sg7
S'Romani'
p322
sg9
I0
sg10
I212
sg11
I114
sg12
g13
sg14
S'robyriccio'
p323
sba(itravian_raidmap
raid
p324
(dp325
g6
I798
sg7
S'Romani'
p326
sg9
I0
sg10
I212
sg11
I115
sg12
g13
sg14
S'robyriccio'
p327
sba(itravian_raidmap
raid
p328
(dp329
g6
I516
sg7
S'Romani'
p330
sg9
I0
sg10
I237
sg11
I87
sg12
g13
sg14
S'shaunwhite'
p331
sba(itravian_raidmap
raid
p332
(dp333
g6
I404
sg7
S'Romani'
p334
sg9
I0
sg10
I249
sg11
I64
sg12
g13
sg14
S'lem210572'
p335
sba(itravian_raidmap
raid
p336
(dp337
g6
I516
sg7
S'Romani'
p338
sg9
I0
sg10
I235
sg11
I93
sg12
g13
sg14
S'shaunwhite'
p339
sba(itravian_raidmap
raid
p340
(dp341
g6
I1443
sg7
S'Romani'
p342
sg9
I0
sg10
I197
sg11
I88
sg12
g13
sg14
S'voyage'
p343
sba(itravian_raidmap
raid
p344
(dp345
g6
I1443
sg7
S'Romani'
p346
sg9
I0
sg10
I197
sg11
I89
sg12
g13
sg14
S'voyage'
p347
sba(itravian_raidmap
raid
p348
(dp349
g6
I133
sg7
S'Galli'
p350
sg9
I0
sg10
I215
sg11
I59
sg12
g13
sg14
S'el bres\xc3\xa0'
p351
sba(itravian_raidmap
raid
p352
(dp353
g6
I628
sg7
S'Romani'
p354
sg9
I0
sg10
I237
sg11
I77
sg12
g13
sg14
S'giuser'
p355
sba(itravian_raidmap
raid
p356
(dp357
g6
I4106
sg7
S'Teutoni'
p358
sg9
I0
sg10
I163
sg11
I74
sg12
g13
sg14
S'X-MAS'
p359
sba(itravian_raidmap
raid
p360
(dp361
g6
I404
sg7
S'Romani'
p362
sg9
I0
sg10
I251
sg11
I65
sg12
g13
sg14
S'nik.vr'
p363
sba(itravian_raidmap
raid
p364
(dp365
g6
I296
sg7
S'Romani'
p366
sg9
I0
sg10
I256
sg11
I65
sg12
g13
sg14
S'iperforce96'
p367
sba(itravian_raidmap
raid
p368
(dp369
g6
I156
sg7
S'Galli'
p370
sg9
I0
sg10
I216
sg11
I60
sg12
g13
sg14
S'leonard97'
p371
sba(itravian_raidmap
raid
p372
(dp373
g6
I875
sg7
S'Galli'
p374
sg9
I0
sg10
I192
sg11
I37
sg12
g13
sg14
S'igor79'
p375
sba(itravian_raidmap
raid
p376
(dp377
g6
I332
sg7
S'Romani'
p378
sg9
I0
sg10
I254
sg11
I72
sg12
g13
sg14
S'Innuendo'
p379
sba(itravian_raidmap
raid
p380
(dp381
g6
I689
sg7
S'Romani'
p382
sg9
I0
sg10
I228
sg11
I103
sg12
g13
sg14
S'pippo93'
p383
sba(itravian_raidmap
raid
p384
(dp385
g6
I689
sg7
S'Romani'
p386
sg9
I0
sg10
I229
sg11
I102
sg12
g13
sg14
S'pippo93'
p387
sba(itravian_raidmap
raid
p388
(dp389
g6
I258
sg7
S'Romani'
p390
sg9
I0
sg10
I260
sg11
I66
sg12
g13
sg14
S'libanese'
p391
sba(itravian_raidmap
raid
p392
(dp393
g6
I689
sg7
S'Romani'
p394
sg9
I0
sg10
I229
sg11
I103
sg12
g13
sg14
S'pippo93'
p395
sba(itravian_raidmap
raid
p396
(dp397
g6
I412
sg7
S'Galli'
p398
sg9
I0
sg10
I201
sg11
I83
sg12
g13
sg14
S'peve'
p399
sba(itravian_raidmap
raid
p400
(dp401
g6
I419
sg7
S'Romani'
p402
sg9
I0
sg10
I254
sg11
I73
sg12
g13
sg14
S'scacco92'
p403
sba(itravian_raidmap
raid
p404
(dp405
g6
I742
sg7
S'Romani'
p406
sg9
I0
sg10
I247
sg11
I54
sg12
g13
sg14
S'Stardel'
p407
sba(itravian_raidmap
raid
p408
(dp409
g6
I514
sg7
S'Romani'
p410
sg9
I0
sg10
I246
sg11
I94
sg12
g13
sg14
S'mor3tta'
p411
sba(itravian_raidmap
raid
p412
(dp413
g6
I142
sg7
S'Galli'
p414
sg9
I0
sg10
I229
sg11
I35
sg12
g13
sg14
S'giampiux'
p415
sba(itravian_raidmap
raid
p416
(dp417
g6
I900
sg7
S'Romani'
p418
sg9
I0
sg10
I234
sg11
I85
sg12
g13
sg14
S'orebilacnip'
p419
sba(itravian_raidmap
raid
p420
(dp421
g6
I200
sg7
S'Galli'
p422
sg9
I0
sg10
I200
sg11
I113
sg12
g13
sg14
S'Soldo91'
p423
sba(itravian_raidmap
raid
p424
(dp425
g6
I900
sg7
S'Romani'
p426
sg9
I0
sg10
I235
sg11
I84
sg12
g13
sg14
S'orebilacnip'
p427
sba(itravian_raidmap
raid
p428
(dp429
g6
I427
sg7
S'Romani'
p430
sg9
I0
sg10
I258
sg11
I76
sg12
g13
sg14
S'simo90'
p431
sba(itravian_raidmap
raid
p432
(dp433
g6
I470
sg7
S'Galli'
p434
sg9
I0
sg10
I210
sg11
I68
sg12
g13
sg14
S'ivan77'
p435
sba(itravian_raidmap
raid
p436
(dp437
g6
I284
sg7
S'Galli'
p438
sg9
I0
sg10
I220
sg11
I61
sg12
g13
sg14
S'martinka'
p439
sba(itravian_raidmap
raid
p440
(dp441
g6
I1365
sg7
S'Romani'
p442
sg9
I0
sg10
I206
sg11
I109
sg12
g13
sg14
S'martocchia'
p443
sba(itravian_raidmap
raid
p444
(dp445
g6
I848
sg7
S'Romani'
p446
sg9
I0
sg10
I235
sg11
I98
sg12
g13
sg14
S'Moreland'
p447
sba(itravian_raidmap
raid
p448
(dp449
g6
I848
sg7
S'Romani'
p450
sg9
I0
sg10
I236
sg11
I98
sg12
g13
sg14
S'Moreland'
p451
sba(itravian_raidmap
raid
p452
(dp453
g6
I2218
sg7
S'Romani'
p454
sg9
I0
sg10
I184
sg11
I86
sg12
g13
sg14
S'nefer'
p455
sba(itravian_raidmap
raid
p456
(dp457
g6
I1365
sg7
S'Romani'
p458
sg9
I0
sg10
I210
sg11
I111
sg12
g13
sg14
S'martocchia'
p459
sba(itravian_raidmap
raid
p460
(dp461
g6
I703
sg7
S'Galli'
p462
sg9
I0
sg10
I205
sg11
I66
sg12
g13
sg14
S'loli'
p463
sba(itravian_raidmap
raid
p464
(dp465
g6
I703
sg7
S'Galli'
p466
sg9
I0
sg10
I206
sg11
I66
sg12
g13
sg14
S'loli'
p467
sba(itravian_raidmap
raid
p468
(dp469
g6
I1169
sg7
S'Romani'
p470
sg9
I0
sg10
I231
sg11
I101
sg12
g13
sg14
S'tommasino90'
p471
sba(itravian_raidmap
raid
p472
(dp473
g6
I1216
sg7
S'Romani'
p474
sg9
I0
sg10
I238
sg11
I78
sg12
g13
sg14
S'cris'
p475
sba(itravian_raidmap
raid
p476
(dp477
g6
I1169
sg7
S'Romani'
p478
sg9
I0
sg10
I232
sg11
I102
sg12
g13
sg14
S'tommasino90'
p479
sba(itravian_raidmap
raid
p480
(dp481
g6
I1450
sg7
S'Romani'
p482
sg9
I0
sg10
I220
sg11
I102
sg12
g13
sg14
S'Lupicino'
p483
sba(itravian_raidmap
raid
p484
(dp485
g6
I1169
sg7
S'Romani'
p486
sg9
I0
sg10
I233
sg11
I101
sg12
g13
sg14
S'tommasino90'
p487
sba(itravian_raidmap
raid
p488
(dp489
g6
I893
sg7
S'Romani'
p490
sg9
I0
sg10
I252
sg11
I84
sg12
g13
sg14
S'ATtIlLa'
p491
sba(itravian_raidmap
raid
p492
(dp493
g6
I1454
sg7
S'Romani'
p494
sg9
I0
sg10
I214
sg11
I116
sg12
g13
sg14
S'S.P.Q.R.'
p495
sba(itravian_raidmap
raid
p496
(dp497
g6
I1454
sg7
S'Romani'
p498
sg9
I0
sg10
I214
sg11
I117
sg12
g13
sg14
S'S.P.Q.R.'
p499
sba(itravian_raidmap
raid
p500
(dp501
g6
I1229
sg7
S'Galli'
p502
sg9
I0
sg10
I185
sg11
I83
sg12
g13
sg14
S'mataral'
p503
sba(itravian_raidmap
raid
p504
(dp505
g6
I1454
sg7
S'Romani'
p506
sg9
I0
sg10
I215
sg11
I117
sg12
g13
sg14
S'S.P.Q.R.'
p507
sba(itravian_raidmap
raid
p508
(dp509
g6
I814
sg7
S'Romani'
p510
sg9
I0
sg10
I261
sg11
I72
sg12
g13
sg14
S'Merlino'
p511
sba(itravian_raidmap
raid
p512
(dp513
g6
I1454
sg7
S'Romani'
p514
sg9
I0
sg10
I215
sg11
I118
sg12
g13
sg14
S'S.P.Q.R.'
p515
sba(itravian_raidmap
raid
p516
(dp517
g6
I814
sg7
S'Romani'
p518
sg9
I0
sg10
I262
sg11
I73
sg12
g13
sg14
S'Merlino'
p519
sba(itravian_raidmap
raid
p520
(dp521
g6
I5070
sg7
S'Teutoni'
p522
sg9
I0
sg10
I169
sg11
I67
sg12
g13
sg14
S'russorusso'
p523
sba(itravian_raidmap
raid
p524
(dp525
g6
I4929
sg7
S'Teutoni'
p526
sg9
I0
sg10
I170
sg11
I86
sg12
g13
sg14
S'he-man'
p527
sba(itravian_raidmap
raid
p528
(dp529
g6
I5314
sg7
S'Teutoni'
p530
sg9
I0
sg10
I156
sg11
I80
sg12
g13
sg14
S'Il_Figlioe'
p531
sba(itravian_raidmap
raid
p532
(dp533
g6
I4929
sg7
S'Teutoni'
p534
sg9
I0
sg10
I173
sg11
I81
sg12
g13
sg14
S'he-man'
p535
sba(itravian_raidmap
raid
p536
(dp537
g6
I5284
sg7
S'Teutoni'
p538
sg9
I0
sg10
I163
sg11
I71
sg12
g13
sg14
S'vanniii'
p539
sba(itravian_raidmap
raid
p540
(dp541
g6
I5284
sg7
S'Teutoni'
p542
sg9
I0
sg10
I164
sg11
I71
sg12
g13
sg14
S'vanniii'
p543
sba(itravian_raidmap
raid
p544
(dp545
g6
I427
sg7
S'Galli'
p546
sg9
I0
sg10
I228
sg11
I86
sg12
g13
sg14
S'bello 70'
p547
sba(itravian_raidmap
raid
p548
(dp549
g6
I5284
sg7
S'Teutoni'
p550
sg9
I0
sg10
I164
sg11
I74
sg12
g13
sg14
S'vanniii'
p551
sba(itravian_raidmap
raid
p552
(dp553
g6
I1028
sg7
S'Galli'
p554
sg9
I0
sg10
I209
sg11
I70
sg12
g13
sg14
S'havanavaride'
p555
sba(itravian_raidmap
raid
p556
(dp557
g6
I4929
sg7
S'Teutoni'
p558
sg9
I0
sg10
I175
sg11
I89
sg12
g13
sg14
S'he-man'
p559
sba(itravian_raidmap
raid
p560
(dp561
g6
I591
sg7
S'Galli'
p562
sg9
I0
sg10
I213
sg11
I108
sg12
g13
sg14
S'luis2'
p563
sba(itravian_raidmap
raid
p564
(dp565
g6
I1415
sg7
S'Romani'
p566
sg9
I0
sg10
I242
sg11
I92
sg12
g13
sg14
S'rosaross'
p567
sba(itravian_raidmap
raid
p568
(dp569
g6
I4929
sg7
S'Teutoni'
p570
sg9
I0
sg10
I176
sg11
I89
sg12
g13
sg14
S'he-man'
p571
sba(itravian_raidmap
raid
p572
(dp573
g6
I4925
sg7
S'Teutoni'
p574
sg9
I0
sg10
I177
sg11
I88
sg12
g13
sg14
S'he-man'
p575
sba(itravian_raidmap
raid
p576
(dp577
g6
I1415
sg7
S'Romani'
p578
sg9
I0
sg10
I243
sg11
I91
sg12
g13
sg14
S'rosaross'
p579
sba(itravian_raidmap
raid
p580
(dp581
g6
I4925
sg7
S'Teutoni'
p582
sg9
I0
sg10
I177
sg11
I89
sg12
g13
sg14
S'he-man'
p583
sba(itravian_raidmap
raid
p584
(dp585
g6
I4925
sg7
S'Teutoni'
p586
sg9
I0
sg10
I177
sg11
I92
sg12
g13
sg14
S'he-man'
p587
sba(itravian_raidmap
raid
p588
(dp589
g6
I1871
sg7
S'Romani'
p590
sg9
I0
sg10
I212
sg11
I118
sg12
g13
sg14
S'Leo4'
p591
sba(itravian_raidmap
raid
p592
(dp593
g6
I1871
sg7
S'Romani'
p594
sg9
I0
sg10
I213
sg11
I117
sg12
g13
sg14
S'Leo4'
p595
sba(itravian_raidmap
raid
p596
(dp597
g6
I4925
sg7
S'Teutoni'
p598
sg9
I0
sg10
I180
sg11
I89
sg12
g13
sg14
S'he-man'
p599
sba(itravian_raidmap
raid
p600
(dp601
g6
I4929
sg7
S'Teutoni'
p602
sg9
I0
sg10
I183
sg11
I85
sg12
g13
sg14
S'he-man'
p603
sba(itravian_raidmap
raid
p604
(dp605
g6
I1806
sg7
S'Romani'
p606
sg9
I0
sg10
I240
sg11
I60
sg12
g13
sg14
S'ziotom'
p607
sba(itravian_raidmap
raid
p608
(dp609
g6
I1806
sg7
S'Romani'
p610
sg9
I0
sg10
I240
sg11
I62
sg12
g13
sg14
S'ziotom'
p611
sba(itravian_raidmap
raid
p612
(dp613
g6
I1806
sg7
S'Romani'
p614
sg9
I0
sg10
I241
sg11
I61
sg12
g13
sg14
S'ziotom'
p615
sba(itravian_raidmap
raid
p616
(dp617
g6
I1806
sg7
S'Romani'
p618
sg9
I0
sg10
I241
sg11
I62
sg12
g13
sg14
S'ziotom'
p619
sba(itravian_raidmap
raid
p620
(dp621
g6
I1952
sg7
S'Romani'
p622
sg9
I0
sg10
I239
sg11
I48
sg12
g13
sg14
S'keekeeno'
p623
sba(itravian_raidmap
raid
p624
(dp625
g6
I5521
sg7
S'Teutoni'
p626
sg9
I0
sg10
I172
sg11
I63
sg12
g13
sg14
S'Black Sun'
p627
sba(itravian_raidmap
raid
p628
(dp629
g6
I1952
sg7
S'Romani'
p630
sg9
I0
sg10
I240
sg11
I50
sg12
g13
sg14
S'keekeeno'
p631
sba(itravian_raidmap
raid
p632
(dp633
g6
I5521
sg7
S'Teutoni'
p634
sg9
I0
sg10
I173
sg11
I63
sg12
g13
sg14
S'Black Sun'
p635
sba(itravian_raidmap
raid
p636
(dp637
g6
I1902
sg7
S'Romani'
p638
sg9
I0
sg10
I236
sg11
I76
sg12
g13
sg14
S'malusquo'
p639
sba(itravian_raidmap
raid
p640
(dp641
g6
I5072
sg7
S'Teutoni'
p642
sg9
I0
sg10
I194
sg11
I58
sg12
g13
sg14
S'seem_it'
p643
sba(itravian_raidmap
raid
p644
(dp645
g6
I1335
sg7
S'Romani'
p646
sg9
I0
sg10
I259
sg11
I80
sg12
g13
sg14
S'allstar'
p647
sba(itravian_raidmap
raid
p648
(dp649
g6
I2173
sg7
S'Romani'
p650
sg9
I0
sg10
I220
sg11
I90
sg12
g13
sg14
S'wizard'
p651
sba(itravian_raidmap
raid
p652
(dp653
g6
I1576
sg7
S'Romani'
p654
sg9
I0
sg10
I245
sg11
I92
sg12
g13
sg14
S'lino agostinis'
p655
sba(itravian_raidmap
raid
p656
(dp657
g6
I1902
sg7
S'Romani'
p658
sg9
I0
sg10
I237
sg11
I76
sg12
g13
sg14
S'malusquo'
p659
sba(itravian_raidmap
raid
p660
(dp661
g6
I1576
sg7
S'Romani'
p662
sg9
I0
sg10
I245
sg11
I93
sg12
g13
sg14
S'lino agostinis'
p663
sba(itravian_raidmap
raid
p664
(dp665
g6
I1335
sg7
S'Romani'
p666
sg9
I0
sg10
I260
sg11
I80
sg12
g13
sg14
S'allstar'
p667
sba(itravian_raidmap
raid
p668
(dp669
g6
I1576
sg7
S'Romani'
p670
sg9
I0
sg10
I245
sg11
I94
sg12
g13
sg14
S'lino agostinis'
p671
sba(itravian_raidmap
raid
p672
(dp673
g6
I1902
sg7
S'Romani'
p674
sg9
I0
sg10
I238
sg11
I75
sg12
g13
sg14
S'malusquo'
p675
sba(itravian_raidmap
raid
p676
(dp677
g6
I1928
sg7
S'Romani'
p678
sg9
I0
sg10
I237
sg11
I75
sg12
g13
sg14
S'frazena96'
p679
sba(itravian_raidmap
raid
p680
(dp681
g6
I5072
sg7
S'Teutoni'
p682
sg9
I0
sg10
I196
sg11
I58
sg12
g13
sg14
S'seem_it'
p683
sba(itravian_raidmap
raid
p684
(dp685
g6
I3728
sg7
S'Romani'
p686
sg9
I0
sg10
I160
sg11
I75
sg12
g13
sg14
S'danyontheroad'
p687
sba(itravian_raidmap
raid
p688
(dp689
g6
I510
sg7
S'Galli'
p690
sg9
I0
sg10
I241
sg11
I71
sg12
g13
sg14
S'DEVILMAN'
p691
sba(itravian_raidmap
raid
p692
(dp693
g6
I5072
sg7
S'Teutoni'
p694
sg9
I0
sg10
I195
sg11
I62
sg12
g13
sg14
S'seem_it'
p695
sba(itravian_raidmap
raid
p696
(dp697
g6
I5072
sg7
S'Teutoni'
p698
sg9
I0
sg10
I195
sg11
I63
sg12
g13
sg14
S'seem_it'
p699
sba(itravian_raidmap
raid
p700
(dp701
g6
I5072
sg7
S'Teutoni'
p702
sg9
I0
sg10
I197
sg11
I57
sg12
g13
sg14
S'seem_it'
p703
sba(itravian_raidmap
raid
p704
(dp705
g6
I5072
sg7
S'Teutoni'
p706
sg9
I0
sg10
I197
sg11
I58
sg12
g13
sg14
S'seem_it'
p707
sba(itravian_raidmap
raid
p708
(dp709
g6
I5072
sg7
S'Teutoni'
p710
sg9
I0
sg10
I198
sg11
I58
sg12
g13
sg14
S'seem_it'
p711
sba(itravian_raidmap
raid
p712
(dp713
g6
I1902
sg7
S'Romani'
p714
sg9
I0
sg10
I239
sg11
I78
sg12
g13
sg14
S'malusquo'
p715
sba(itravian_raidmap
raid
p716
(dp717
g6
I1928
sg7
S'Romani'
p718
sg9
I0
sg10
I239
sg11
I75
sg12
g13
sg14
S'frazena96'
p719
sba(itravian_raidmap
raid
p720
(dp721
g6
I5294
sg7
S'Teutoni'
p722
sg9
I0
sg10
I183
sg11
I76
sg12
g13
sg14
S'pozzani'
p723
sba(itravian_raidmap
raid
p724
(dp725
g6
I1928
sg7
S'Romani'
p726
sg9
I0
sg10
I240
sg11
I75
sg12
g13
sg14
S'frazena96'
p727
sba(itravian_raidmap
raid
p728
(dp729
g6
I5294
sg7
S'Teutoni'
p730
sg9
I0
sg10
I185
sg11
I74
sg12
g13
sg14
S'pozzani'
p731
sba(itravian_raidmap
raid
p732
(dp733
g6
I1902
sg7
S'Romani'
p734
sg9
I0
sg10
I240
sg11
I82
sg12
g13
sg14
S'malusquo'
p735
sba(itravian_raidmap
raid
p736
(dp737
g6
I5072
sg7
S'Teutoni'
p738
sg9
I0
sg10
I200
sg11
I62
sg12
g13
sg14
S'seem_it'
p739
sba(itravian_raidmap
raid
p740
(dp741
g6
I5294
sg7
S'Teutoni'
p742
sg9
I0
sg10
I191
sg11
I73
sg12
g13
sg14
S'pozzani'
p743
sba(itravian_raidmap
raid
p744
(dp745
g6
I1952
sg7
S'Romani'
p746
sg9
I0
sg10
I248
sg11
I59
sg12
g13
sg14
S'keekeeno'
p747
sba(itravian_raidmap
raid
p748
(dp749
g6
I692
sg7
S'Galli'
p750
sg9
I0
sg10
I245
sg11
I49
sg12
g13
sg14
S'Tommy0581'
p751
sba(itravian_raidmap
raid
p752
(dp753
g6
I5294
sg7
S'Teutoni'
p754
sg9
I0
sg10
I191
sg11
I75
sg12
g13
sg14
S'pozzani'
p755
sba(itravian_raidmap
raid
p756
(dp757
g6
I5294
sg7
S'Teutoni'
p758
sg9
I0
sg10
I192
sg11
I73
sg12
g13
sg14
S'pozzani'
p759
sba(itravian_raidmap
raid
p760
(dp761
g6
I1952
sg7
S'Romani'
p762
sg9
I0
sg10
I249
sg11
I58
sg12
g13
sg14
S'keekeeno'
p763
sba(itravian_raidmap
raid
p764
(dp765
g6
I5294
sg7
S'Teutoni'
p766
sg9
I0
sg10
I192
sg11
I76
sg12
g13
sg14
S'pozzani'
p767
sba(itravian_raidmap
raid
p768
(dp769
g6
I3940
sg7
S'Teutoni'
p770
sg9
I0
sg10
I252
sg11
I72
sg12
g13
sg14
S'berta'
p771
sba(itravian_raidmap
raid
p772
(dp773
g6
I1988
sg7
S'Romani'
p774
sg9
I0
sg10
I239
sg11
I93
sg12
g13
sg14
S'ziopeter'
p775
sba(itravian_raidmap
raid
p776
(dp777
g6
I3940
sg7
S'Teutoni'
p778
sg9
I0
sg10
I253
sg11
I70
sg12
g13
sg14
S'berta'
p779
sba(itravian_raidmap
raid
p780
(dp781
g6
I2063
sg7
S'Romani'
p782
sg9
I0
sg10
I239
sg11
I85
sg12
g13
sg14
S'bobbino'
p783
sba(itravian_raidmap
raid
p784
(dp785
g6
I5072
sg7
S'Teutoni'
p786
sg9
I0
sg10
I210
sg11
I57
sg12
g13
sg14
S'seem_it'
p787
sba(itravian_raidmap
raid
p788
(dp789
g6
I5294
sg7
S'Teutoni'
p790
sg9
I0
sg10
I192
sg11
I82
sg12
g13
sg14
S'pozzani'
p791
sba(itravian_raidmap
raid
p792
(dp793
g6
I3940
sg7
S'Teutoni'
p794
sg9
I0
sg10
I254
sg11
I69
sg12
g13
sg14
S'berta'
p795
sba(itravian_raidmap
raid
p796
(dp797
g6
I3586
sg7
S'Romani'
p798
sg9
I0
sg10
I181
sg11
I68
sg12
g13
sg14
S'alexandrus'
p799
sba(itravian_raidmap
raid
p800
(dp801
g6
I3940
sg7
S'Teutoni'
p802
sg9
I0
sg10
I254
sg11
I70
sg12
g13
sg14
S'berta'
p803
sba(itravian_raidmap
raid
p804
(dp805
g6
I3940
sg7
S'Teutoni'
p806
sg9
I0
sg10
I252
sg11
I77
sg12
g13
sg14
S'berta'
p807
sba(itravian_raidmap
raid
p808
(dp809
g6
I2063
sg7
S'Romani'
p810
sg9
I0
sg10
I240
sg11
I85
sg12
g13
sg14
S'bobbino'
p811
sba(itravian_raidmap
raid
p812
(dp813
g6
I3940
sg7
S'Teutoni'
p814
sg9
I0
sg10
I253
sg11
I76
sg12
g13
sg14
S'berta'
p815
sba(itravian_raidmap
raid
p816
(dp817
g6
I3940
sg7
S'Teutoni'
p818
sg9
I0
sg10
I253
sg11
I77
sg12
g13
sg14
S'berta'
p819
sba(itravian_raidmap
raid
p820
(dp821
g6
I1988
sg7
S'Romani'
p822
sg9
I0
sg10
I241
sg11
I94
sg12
g13
sg14
S'ziopeter'
p823
sba(itravian_raidmap
raid
p824
(dp825
g6
I2393
sg7
S'Romani'
p826
sg9
I0
sg10
I237
sg11
I53
sg12
g13
sg14
S'sarnese'
p827
sba(itravian_raidmap
raid
p828
(dp829
g6
I1420
sg7
S'Galli'
p830
sg9
I0
sg10
I217
sg11
I61
sg12
g13
sg14
S'roberto95'
p831
sba(itravian_raidmap
raid
p832
(dp833
g6
I5294
sg7
S'Teutoni'
p834
sg9
I0
sg10
I198
sg11
I77
sg12
g13
sg14
S'pozzani'
p835
sba(itravian_raidmap
raid
p836
(dp837
g6
I6192
sg7
S'Teutoni'
p838
sg9
I0
sg10
I159
sg11
I77
sg12
g13
sg14
S'Zaffiro'
p839
sba(itravian_raidmap
raid
p840
(dp841
g6
I1420
sg7
S'Galli'
p842
sg9
I0
sg10
I218
sg11
I61
sg12
g13
sg14
S'roberto95'
p843
sba(itravian_raidmap
raid
p844
(dp845
g6
I2393
sg7
S'Romani'
p846
sg9
I0
sg10
I238
sg11
I56
sg12
g13
sg14
S'sarnese'
p847
sba(itravian_raidmap
raid
p848
(dp849
g6
I2393
sg7
S'Romani'
p850
sg9
I0
sg10
I238
sg11
I57
sg12
g13
sg14
S'sarnese'
p851
sba(itravian_raidmap
raid
p852
(dp853
g6
I1420
sg7
S'Galli'
p854
sg9
I0
sg10
I219
sg11
I61
sg12
g13
sg14
S'roberto95'
p855
sba(itravian_raidmap
raid
p856
(dp857
g6
I1420
sg7
S'Galli'
p858
sg9
I0
sg10
I219
sg11
I62
sg12
g13
sg14
S'roberto95'
p859
sba(itravian_raidmap
raid
p860
(dp861
g6
I2393
sg7
S'Romani'
p862
sg9
I0
sg10
I239
sg11
I57
sg12
g13
sg14
S'sarnese'
p863
sba(itravian_raidmap
raid
p864
(dp865
g6
I4756
sg7
S'Teutoni'
p866
sg9
I0
sg10
I210
sg11
I109
sg12
g13
sg14
S'DEDO1958'
p867
sba(itravian_raidmap
raid
p868
(dp869
g6
I1931
sg7
S'Romani'
p870
sg9
I0
sg10
I258
sg11
I65
sg12
g13
sg14
S'ZioBilly'
p871
sba(itravian_raidmap
raid
p872
(dp873
g6
I5158
sg7
S'Teutoni'
p874
sg9
I0
sg10
I210
sg11
I77
sg12
g13
sg14
S'arin'
p875
sba(itravian_raidmap
raid
p876
(dp877
g6
I1931
sg7
S'Romani'
p878
sg9
I0
sg10
I259
sg11
I65
sg12
g13
sg14
S'ZioBilly'
p879
sba(itravian_raidmap
raid
p880
(dp881
g6
I5070
sg7
S'Teutoni'
p882
sg9
I0
sg10
I212
sg11
I83
sg12
g13
sg14
S'russorusso'
p883
sba(itravian_raidmap
raid
p884
(dp885
g6
I5070
sg7
S'Teutoni'
p886
sg9
I0
sg10
I213
sg11
I83
sg12
g13
sg14
S'russorusso'
p887
sba(itravian_raidmap
raid
p888
(dp889
g6
I452
sg7
S'Galli'
p890
sg9
I0
sg10
I259
sg11
I76
sg12
g13
sg14
S'francesca pizio'
p891
sba(itravian_raidmap
raid
p892
(dp893
g6
I5070
sg7
S'Teutoni'
p894
sg9
I0
sg10
I214
sg11
I83
sg12
g13
sg14
S'russorusso'
p895
sba(itravian_raidmap
raid
p896
(dp897
g6
I1482
sg7
S'Galli'
p898
sg9
I0
sg10
I218
sg11
I74
sg12
g13
sg14
S'MassiP'
p899
sba(itravian_raidmap
raid
p900
(dp901
g6
I4756
sg7
S'Teutoni'
p902
sg9
I0
sg10
I222
sg11
I105
sg12
g13
sg14
S'DEDO1958'
p903
sba(itravian_raidmap
raid
p904
(dp905
g6
I1482
sg7
S'Galli'
p906
sg9
I0
sg10
I220
sg11
I74
sg12
g13
sg14
S'MassiP'
p907
sba(itravian_raidmap
raid
p908
(dp909
g6
I1482
sg7
S'Galli'
p910
sg9
I0
sg10
I220
sg11
I76
sg12
g13
sg14
S'MassiP'
p911
sba(itravian_raidmap
raid
p912
(dp913
g6
I5070
sg7
S'Teutoni'
p914
sg9
I0
sg10
I220
sg11
I85
sg12
g13
sg14
S'russorusso'
p915
sba(itravian_raidmap
raid
p916
(dp917
g6
I1482
sg7
S'Galli'
p918
sg9
I0
sg10
I222
sg11
I74
sg12
g13
sg14
S'MassiP'
p919
sba(itravian_raidmap
raid
p920
(dp921
g6
I5128
sg7
S'Teutoni'
p922
sg9
I0
sg10
I227
sg11
I62
sg12
g13
sg14
S'SAM'
p923
sba(itravian_raidmap
raid
p924
(dp925
g6
I1562
sg7
S'Galli'
p926
sg9
I0
sg10
I203
sg11
I112
sg12
g13
sg14
S'FeDe1990'
p927
sba(itravian_raidmap
raid
p928
(dp929
g6
I1562
sg7
S'Galli'
p930
sg9
I0
sg10
I202
sg11
I114
sg12
g13
sg14
S'FeDe1990'
p931
sba(itravian_raidmap
raid
p932
(dp933
g6
I5128
sg7
S'Teutoni'
p934
sg9
I0
sg10
I233
sg11
I42
sg12
g13
sg14
S'SAM'
p935
sba(itravian_raidmap
raid
p936
(dp937
g6
I5128
sg7
S'Teutoni'
p938
sg9
I0
sg10
I231
sg11
I53
sg12
g13
sg14
S'SAM'
p939
sba(itravian_raidmap
raid
p940
(dp941
g6
I1562
sg7
S'Galli'
p942
sg9
I0
sg10
I203
sg11
I113
sg12
g13
sg14
S'FeDe1990'
p943
sba(itravian_raidmap
raid
p944
(dp945
g6
I3586
sg7
S'Romani'
p946
sg9
I0
sg10
I202
sg11
I60
sg12
g13
sg14
S'alexandrus'
p947
sba(itravian_raidmap
raid
p948
(dp949
g6
I5128
sg7
S'Teutoni'
p950
sg9
I0
sg10
I233
sg11
I55
sg12
g13
sg14
S'SAM'
p951
sba(itravian_raidmap
raid
p952
(dp953
g6
I3154
sg7
S'Romani'
p954
sg9
I0
sg10
I201
sg11
I111
sg12
g13
sg14
S'Simplicio'
p955
sba(itravian_raidmap
raid
p956
(dp957
g6
I3586
sg7
S'Romani'
p958
sg9
I0
sg10
I201
sg11
I69
sg12
g13
sg14
S'alexandrus'
p959
sba(itravian_raidmap
raid
p960
(dp961
g6
I5128
sg7
S'Teutoni'
p962
sg9
I0
sg10
I233
sg11
I58
sg12
g13
sg14
S'SAM'
p963
sba(itravian_raidmap
raid
p964
(dp965
g6
I5128
sg7
S'Teutoni'
p966
sg9
I0
sg10
I230
sg11
I69
sg12
g13
sg14
S'SAM'
p967
sba(itravian_raidmap
raid
p968
(dp969
g6
I3586
sg7
S'Romani'
p970
sg9
I0
sg10
I201
sg11
I70
sg12
g13
sg14
S'alexandrus'
p971
sba(itravian_raidmap
raid
p972
(dp973
g6
I3586
sg7
S'Romani'
p974
sg9
I0
sg10
I201
sg11
I71
sg12
g13
sg14
S'alexandrus'
p975
sba(itravian_raidmap
raid
p976
(dp977
g6
I5128
sg7
S'Teutoni'
p978
sg9
I0
sg10
I237
sg11
I43
sg12
g13
sg14
S'SAM'
p979
sba(itravian_raidmap
raid
p980
(dp981
g6
I3586
sg7
S'Romani'
p982
sg9
I0
sg10
I202
sg11
I69
sg12
g13
sg14
S'alexandrus'
p983
sba(itravian_raidmap
raid
p984
(dp985
g6
I5284
sg7
S'Teutoni'
p986
sg9
I0
sg10
I215
sg11
I97
sg12
g13
sg14
S'vanniii'
p987
sba(itravian_raidmap
raid
p988
(dp989
g6
I2393
sg7
S'Romani'
p990
sg9
I0
sg10
I255
sg11
I61
sg12
g13
sg14
S'sarnese'
p991
sba(itravian_raidmap
raid
p992
(dp993
g6
I5284
sg7
S'Teutoni'
p994
sg9
I0
sg10
I212
sg11
I105
sg12
g13
sg14
S'vanniii'
p995
sba(itravian_raidmap
raid
p996
(dp997
g6
I5284
sg7
S'Teutoni'
p998
sg9
I0
sg10
I213
sg11
I105
sg12
g13
sg14
S'vanniii'
p999
sba(itravian_raidmap
raid
p1000
(dp1001
g6
I5370
sg7
S'Teutoni'
p1002
sg9
I0
sg10
I205
sg11
I115
sg12
g13
sg14
S'sdody'
p1003
sba(itravian_raidmap
raid
p1004
(dp1005
g6
I5370
sg7
S'Teutoni'
p1006
sg9
I0
sg10
I206
sg11
I115
sg12
g13
sg14
S'sdody'
p1007
sba(itravian_raidmap
raid
p1008
(dp1009
g6
I5370
sg7
S'Teutoni'
p1010
sg9
I0
sg10
I204
sg11
I120
sg12
g13
sg14
S'sdody'
p1011
sba(itravian_raidmap
raid
p1012
(dp1013
g6
I5070
sg7
S'Teutoni'
p1014
sg9
I0
sg10
I227
sg11
I102
sg12
g13
sg14
S'russorusso'
p1015
sba(itravian_raidmap
raid
p1016
(dp1017
g6
I5370
sg7
S'Teutoni'
p1018
sg9
I0
sg10
I209
sg11
I113
sg12
g13
sg14
S'sdody'
p1019
sba(itravian_raidmap
raid
p1020
(dp1021
g6
I5128
sg7
S'Teutoni'
p1022
sg9
I0
sg10
I239
sg11
I69
sg12
g13
sg14
S'SAM'
p1023
sba(itravian_raidmap
raid
p1024
(dp1025
g6
I5070
sg7
S'Teutoni'
p1026
sg9
I0
sg10
I231
sg11
I103
sg12
g13
sg14
S'russorusso'
p1027
sba(itravian_raidmap
raid
p1028
(dp1029
g6
I5370
sg7
S'Teutoni'
p1030
sg9
I0
sg10
I211
sg11
I120
sg12
g13
sg14
S'sdody'
p1031
sba(itravian_raidmap
raid
p1032
(dp1033
g6
I5370
sg7
S'Teutoni'
p1034
sg9
I0
sg10
I210
sg11
I122
sg12
g13
sg14
S'sdody'
p1035
sba(itravian_raidmap
raid
p1036
(dp1037
g6
I5158
sg7
S'Teutoni'
p1038
sg9
I0
sg10
I246
sg11
I55
sg12
g13
sg14
S'arin'
p1039
sba(itravian_raidmap
raid
p1040
(dp1041
g6
I3154
sg7
S'Romani'
p1042
sg9
I0
sg10
I213
sg11
I112
sg12
g13
sg14
S'Simplicio'
p1043
sba(itravian_raidmap
raid
p1044
(dp1045
g6
I5284
sg7
S'Teutoni'
p1046
sg9
I0
sg10
I222
sg11
I109
sg12
g13
sg14
S'vanniii'
p1047
sba(itravian_raidmap
raid
p1048
(dp1049
g6
I5284
sg7
S'Teutoni'
p1050
sg9
I0
sg10
I224
sg11
I106
sg12
g13
sg14
S'vanniii'
p1051
sba(itravian_raidmap
raid
p1052
(dp1053
g6
I5158
sg7
S'Teutoni'
p1054
sg9
I0
sg10
I247
sg11
I55
sg12
g13
sg14
S'arin'
p1055
sba(itravian_raidmap
raid
p1056
(dp1057
g6
I5284
sg7
S'Teutoni'
p1058
sg9
I0
sg10
I224
sg11
I107
sg12
g13
sg14
S'vanniii'
p1059
sba(itravian_raidmap
raid
p1060
(dp1061
g6
I4468
sg7
S'Romani'
p1062
sg9
I0
sg10
I173
sg11
I77
sg12
g13
sg14
S'19antonio88'
p1063
sba(itravian_raidmap
raid
p1064
(dp1065
g6
I5322
sg7
S'Teutoni'
p1066
sg9
I0
sg10
I243
sg11
I47
sg12
g13
sg14
S'chandrica'
p1067
sba(itravian_raidmap
raid
p1068
(dp1069
g6
I5370
sg7
S'Teutoni'
p1070
sg9
I0
sg10
I216
sg11
I117
sg12
g13
sg14
S'sdody'
p1071
sba(itravian_raidmap
raid
p1072
(dp1073
g6
I3154
sg7
S'Romani'
p1074
sg9
I0
sg10
I217
sg11
I108
sg12
g13
sg14
S'Simplicio'
p1075
sba(itravian_raidmap
raid
p1076
(dp1077
g6
I4053
sg7
S'Romani'
p1078
sg9
I0
sg10
I194
sg11
I71
sg12
g13
sg14
S'Paso'
p1079
sba(itravian_raidmap
raid
p1080
(dp1081
g6
I4468
sg7
S'Romani'
p1082
sg9
I0
sg10
I171
sg11
I84
sg12
g13
sg14
S'19antonio88'
p1083
sba(itravian_raidmap
raid
p1084
(dp1085
g6
I4053
sg7
S'Romani'
p1086
sg9
I0
sg10
I195
sg11
I70
sg12
g13
sg14
S'Paso'
p1087
sba(itravian_raidmap
raid
p1088
(dp1089
g6
I4468
sg7
S'Romani'
p1090
sg9
I0
sg10
I171
sg11
I85
sg12
g13
sg14
S'19antonio88'
p1091
sba(itravian_raidmap
raid
p1092
(dp1093
g6
I4468
sg7
S'Romani'
p1094
sg9
I0
sg10
I170
sg11
I87
sg12
g13
sg14
S'19antonio88'
p1095
sba(itravian_raidmap
raid
p1096
(dp1097
g6
I4053
sg7
S'Romani'
p1098
sg9
I0
sg10
I196
sg11
I69
sg12
g13
sg14
S'Paso'
p1099
sba(itravian_raidmap
raid
p1100
(dp1101
g6
I4053
sg7
S'Romani'
p1102
sg9
I0
sg10
I196
sg11
I70
sg12
g13
sg14
S'Paso'
p1103
sba(itravian_raidmap
raid
p1104
(dp1105
g6
I4053
sg7
S'Romani'
p1106
sg9
I0
sg10
I196
sg11
I71
sg12
g13
sg14
S'Paso'
p1107
sba(itravian_raidmap
raid
p1108
(dp1109
g6
I4468
sg7
S'Romani'
p1110
sg9
I0
sg10
I173
sg11
I83
sg12
g13
sg14
S'19antonio88'
p1111
sba(itravian_raidmap
raid
p1112
(dp1113
g6
I4468
sg7
S'Romani'
p1114
sg9
I0
sg10
I173
sg11
I84
sg12
g13
sg14
S'19antonio88'
p1115
sba(itravian_raidmap
raid
p1116
(dp1117
g6
I4468
sg7
S'Romani'
p1118
sg9
I0
sg10
I174
sg11
I84
sg12
g13
sg14
S'19antonio88'
p1119
sba(itravian_raidmap
raid
p1120
(dp1121
g6
I4053
sg7
S'Romani'
p1122
sg9
I0
sg10
I197
sg11
I74
sg12
g13
sg14
S'Paso'
p1123
sba(itravian_raidmap
raid
p1124
(dp1125
g6
I4176
sg7
S'Romani'
p1126
sg9
I0
sg10
I186
sg11
I94
sg12
g13
sg14
S'Wolf90'
p1127
sba(itravian_raidmap
raid
p1128
(dp1129
g6
I4176
sg7
S'Romani'
p1130
sg9
I0
sg10
I187
sg11
I93
sg12
g13
sg14
S'Wolf90'
p1131
sba(itravian_raidmap
raid
p1132
(dp1133
g6
I4176
sg7
S'Romani'
p1134
sg9
I0
sg10
I187
sg11
I94
sg12
g13
sg14
S'Wolf90'
p1135
sba(itravian_raidmap
raid
p1136
(dp1137
g6
I4176
sg7
S'Romani'
p1138
sg9
I0
sg10
I186
sg11
I96
sg12
g13
sg14
S'Wolf90'
p1139
sba(itravian_raidmap
raid
p1140
(dp1141
g6
I4176
sg7
S'Romani'
p1142
sg9
I0
sg10
I187
sg11
I95
sg12
g13
sg14
S'Wolf90'
p1143
sba(itravian_raidmap
raid
p1144
(dp1145
g6
I1641
sg7
S'Galli'
p1146
sg9
I0
sg10
I218
sg11
I119
sg12
g13
sg14
S'mister bo'
p1147
sba(itravian_raidmap
raid
p1148
(dp1149
g6
I4176
sg7
S'Romani'
p1150
sg9
I0
sg10
I188
sg11
I94
sg12
g13
sg14
S'Wolf90'
p1151
sba(itravian_raidmap
raid
p1152
(dp1153
g6
I4176
sg7
S'Romani'
p1154
sg9
I0
sg10
I188
sg11
I95
sg12
g13
sg14
S'Wolf90'
p1155
sba(itravian_raidmap
raid
p1156
(dp1157
g6
I4468
sg7
S'Romani'
p1158
sg9
I0
sg10
I184
sg11
I87
sg12
g13
sg14
S'19antonio88'
p1159
sba(itravian_raidmap
raid
p1160
(dp1161
g6
I4468
sg7
S'Romani'
p1162
sg9
I0
sg10
I185
sg11
I86
sg12
g13
sg14
S'19antonio88'
p1163
sba(itravian_raidmap
raid
p1164
(dp1165
g6
I7400
sg7
S'Teutoni'
p1166
sg9
I0
sg10
I180
sg11
I39
sg12
g13
sg14
S'Marco guida'
p1167
sba(itravian_raidmap
raid
p1168
(dp1169
g6
I7400
sg7
S'Teutoni'
p1170
sg9
I0
sg10
I180
sg11
I40
sg12
g13
sg14
S'Marco guida'
p1171
sba(itravian_raidmap
raid
p1172
(dp1173
g6
I7400
sg7
S'Teutoni'
p1174
sg9
I0
sg10
I180
sg11
I44
sg12
g13
sg14
S'Marco guida'
p1175
sba(itravian_raidmap
raid
p1176
(dp1177
g6
I7079
sg7
S'Teutoni'
p1178
sg9
I0
sg10
I188
sg11
I63
sg12
g13
sg14
S'MILIZIADE'
p1179
sba(itravian_raidmap
raid
p1180
(dp1181
g6
I2894
sg7
S'Romani'
p1182
sg9
I0
sg10
I258
sg11
I79
sg12
g13
sg14
S'sandro'
p1183
sba(itravian_raidmap
raid
p1184
(dp1185
g6
I2894
sg7
S'Romani'
p1186
sg9
I0
sg10
I258
sg11
I80
sg12
g13
sg14
S'sandro'
p1187
sba(itravian_raidmap
raid
p1188
(dp1189
g6
I2894
sg7
S'Romani'
p1190
sg9
I0
sg10
I259
sg11
I79
sg12
g13
sg14
S'sandro'
p1191
sba(itravian_raidmap
raid
p1192
(dp1193
g6
I7079
sg7
S'Teutoni'
p1194
sg9
I0
sg10
I191
sg11
I60
sg12
g13
sg14
S'MILIZIADE'
p1195
sba(itravian_raidmap
raid
p1196
(dp1197
g6
I7079
sg7
S'Teutoni'
p1198
sg9
I0
sg10
I190
sg11
I64
sg12
g13
sg14
S'MILIZIADE'
p1199
sba(itravian_raidmap
raid
p1200
(dp1201
g6
I7079
sg7
S'Teutoni'
p1202
sg9
I0
sg10
I192
sg11
I60
sg12
g13
sg14
S'MILIZIADE'
p1203
sba(itravian_raidmap
raid
p1204
(dp1205
g6
I7079
sg7
S'Teutoni'
p1206
sg9
I0
sg10
I192
sg11
I61
sg12
g13
sg14
S'MILIZIADE'
p1207
sba(itravian_raidmap
raid
p1208
(dp1209
g6
I7079
sg7
S'Teutoni'
p1210
sg9
I0
sg10
I193
sg11
I58
sg12
g13
sg14
S'MILIZIADE'
p1211
sba(itravian_raidmap
raid
p1212
(dp1213
g6
I2894
sg7
S'Romani'
p1214
sg9
I0
sg10
I266
sg11
I70
sg12
g13
sg14
S'sandro'
p1215
sba(itravian_raidmap
raid
p1216
(dp1217
g6
I6564
sg7
S'Teutoni'
p1218
sg9
I0
sg10
I210
sg11
I94
sg12
g13
sg14
S'incamax'
p1219
sba(itravian_raidmap
raid
p1220
(dp1221
g6
I3728
sg7
S'Romani'
p1222
sg9
I0
sg10
I245
sg11
I67
sg12
g13
sg14
S'danyontheroad'
p1223
sba(itravian_raidmap
raid
p1224
(dp1225
g6
I3728
sg7
S'Romani'
p1226
sg9
I0
sg10
I244
sg11
I72
sg12
g13
sg14
S'danyontheroad'
p1227
sba(itravian_raidmap
raid
p1228
(dp1229
g6
I7839
sg7
S'Teutoni'
p1230
sg9
I0
sg10
I171
sg11
I89
sg12
g13
sg14
S'mattarco'
p1231
sba(itravian_raidmap
raid
p1232
(dp1233
g6
I7400
sg7
S'Teutoni'
p1234
sg9
I0
sg10
I206
sg11
I45
sg12
g13
sg14
S'Marco guida'
p1235
sba(itravian_raidmap
raid
p1236
(dp1237
g6
I7839
sg7
S'Teutoni'
p1238
sg9
I0
sg10
I172
sg11
I89
sg12
g13
sg14
S'mattarco'
p1239
sba(itravian_raidmap
raid
p1240
(dp1241
g6
I3728
sg7
S'Romani'
p1242
sg9
I0
sg10
I247
sg11
I70
sg12
g13
sg14
S'danyontheroad'
p1243
sba(itravian_raidmap
raid
p1244
(dp1245
g6
I3728
sg7
S'Romani'
p1246
sg9
I0
sg10
I247
sg11
I71
sg12
g13
sg14
S'danyontheroad'
p1247
sba(itravian_raidmap
raid
p1248
(dp1249
g6
I7839
sg7
S'Teutoni'
p1250
sg9
I0
sg10
I174
sg11
I86
sg12
g13
sg14
S'mattarco'
p1251
sba(itravian_raidmap
raid
p1252
(dp1253
g6
I7839
sg7
S'Teutoni'
p1254
sg9
I0
sg10
I174
sg11
I87
sg12
g13
sg14
S'mattarco'
p1255
sba(itravian_raidmap
raid
p1256
(dp1257
g6
I7839
sg7
S'Teutoni'
p1258
sg9
I0
sg10
I175
sg11
I86
sg12
g13
sg14
S'mattarco'
p1259
sba(itravian_raidmap
raid
p1260
(dp1261
g6
I7839
sg7
S'Teutoni'
p1262
sg9
I0
sg10
I175
sg11
I87
sg12
g13
sg14
S'mattarco'
p1263
sba(itravian_raidmap
raid
p1264
(dp1265
g6
I5626
sg7
S'Romani'
p1266
sg9
I0
sg10
I168
sg11
I71
sg12
g13
sg14
S'draka'
p1267
sba(itravian_raidmap
raid
p1268
(dp1269
g6
I3728
sg7
S'Romani'
p1270
sg9
I0
sg10
I249
sg11
I70
sg12
g13
sg14
S'danyontheroad'
p1271
sba(itravian_raidmap
raid
p1272
(dp1273
g6
I5542
sg7
S'Romani'
p1274
sg9
I0
sg10
I167
sg11
I83
sg12
g13
sg14
S'damy73'
p1275
sba(itravian_raidmap
raid
p1276
(dp1277
g6
I5542
sg7
S'Romani'
p1278
sg9
I0
sg10
I168
sg11
I82
sg12
g13
sg14
S'damy73'
p1279
sba(itravian_raidmap
raid
p1280
(dp1281
g6
I5626
sg7
S'Romani'
p1282
sg9
I0
sg10
I169
sg11
I72
sg12
g13
sg14
S'draka'
p1283
sba(itravian_raidmap
raid
p1284
(dp1285
g6
I7839
sg7
S'Teutoni'
p1286
sg9
I0
sg10
I176
sg11
I90
sg12
g13
sg14
S'mattarco'
p1287
sba(itravian_raidmap
raid
p1288
(dp1289
g6
I5542
sg7
S'Romani'
p1290
sg9
I0
sg10
I169
sg11
I81
sg12
g13
sg14
S'damy73'
p1291
sba(itravian_raidmap
raid
p1292
(dp1293
g6
I7079
sg7
S'Teutoni'
p1294
sg9
I0
sg10
I221
sg11
I61
sg12
g13
sg14
S'MILIZIADE'
p1295
sba(itravian_raidmap
raid
p1296
(dp1297
g6
I1656
sg7
S'Galli'
p1298
sg9
I0
sg10
I266
sg11
I72
sg12
g13
sg14
S'UZAR'
p1299
sba(itravian_raidmap
raid
p1300
(dp1301
g6
I7079
sg7
S'Teutoni'
p1302
sg9
I0
sg10
I222
sg11
I60
sg12
g13
sg14
S'MILIZIADE'
p1303
sba(itravian_raidmap
raid
p1304
(dp1305
g6
I8248
sg7
S'Teutoni'
p1306
sg9
I0
sg10
I178
sg11
I46
sg12
g13
sg14
S'SNICH'
p1307
sba(itravian_raidmap
raid
p1308
(dp1309
g6
I7836
sg7
S'Teutoni'
p1310
sg9
I0
sg10
I178
sg11
I94
sg12
g13
sg14
S'mattarco'
p1311
sba(itravian_raidmap
raid
p1312
(dp1313
g6
I7079
sg7
S'Teutoni'
p1314
sg9
I0
sg10
I224
sg11
I60
sg12
g13
sg14
S'MILIZIADE'
p1315
sba(itravian_raidmap
raid
p1316
(dp1317
g6
I2419
sg7
S'Galli'
p1318
sg9
I0
sg10
I240
sg11
I64
sg12
g13
sg14
S'Rodeano'
p1319
sba(itravian_raidmap
raid
p1320
(dp1321
g6
I7839
sg7
S'Teutoni'
p1322
sg9
I0
sg10
I185
sg11
I88
sg12
g13
sg14
S'mattarco'
p1323
sba(itravian_raidmap
raid
p1324
(dp1325
g6
I5542
sg7
S'Romani'
p1326
sg9
I0
sg10
I175
sg11
I82
sg12
g13
sg14
S'damy73'
p1327
sba(itravian_raidmap
raid
p1328
(dp1329
g6
I2419
sg7
S'Galli'
p1330
sg9
I0
sg10
I241
sg11
I64
sg12
g13
sg14
S'Rodeano'
p1331
sba(itravian_raidmap
raid
p1332
(dp1333
g6
I5542
sg7
S'Romani'
p1334
sg9
I0
sg10
I175
sg11
I83
sg12
g13
sg14
S'damy73'
p1335
sba(itravian_raidmap
raid
p1336
(dp1337
g6
I2419
sg7
S'Galli'
p1338
sg9
I0
sg10
I243
sg11
I64
sg12
g13
sg14
S'Rodeano'
p1339
sba(itravian_raidmap
raid
p1340
(dp1341
g6
I5626
sg7
S'Romani'
p1342
sg9
I0
sg10
I179
sg11
I73
sg12
g13
sg14
S'draka'
p1343
sba(itravian_raidmap
raid
p1344
(dp1345
g6
I5626
sg7
S'Romani'
p1346
sg9
I0
sg10
I180
sg11
I74
sg12
g13
sg14
S'draka'
p1347
sba(itravian_raidmap
raid
p1348
(dp1349
g6
I7883
sg7
S'Teutoni'
p1350
sg9
I0
sg10
I209
sg11
I16
sg12
g13
sg14
S'supremo1'
p1351
sba(itravian_raidmap
raid
p1352
(dp1353
g6
I2419
sg7
S'Galli'
p1354
sg9
I0
sg10
I245
sg11
I64
sg12
g13
sg14
S'Rodeano'
p1355
sba(itravian_raidmap
raid
p1356
(dp1357
g6
I5370
sg7
S'Romani'
p1358
sg9
I0
sg10
I205
sg11
I15
sg12
g13
sg14
S'gibbone'
p1359
sba(itravian_raidmap
raid
p1360
(dp1361
g6
I5370
sg7
S'Romani'
p1362
sg9
I0
sg10
I206
sg11
I13
sg12
g13
sg14
S'gibbone'
p1363
sba(itravian_raidmap
raid
p1364
(dp1365
g6
I7883
sg7
S'Teutoni'
p1366
sg9
I0
sg10
I200
sg11
I68
sg12
g13
sg14
S'supremo1'
p1367
sba(itravian_raidmap
raid
p1368
(dp1369
g6
I5542
sg7
S'Romani'
p1370
sg9
I0
sg10
I182
sg11
I82
sg12
g13
sg14
S'damy73'
p1371
sba(itravian_raidmap
raid
p1372
(dp1373
g6
I7079
sg7
S'Teutoni'
p1374
sg9
I0
sg10
I233
sg11
I71
sg12
g13
sg14
S'MILIZIADE'
p1375
sba(itravian_raidmap
raid
p1376
(dp1377
g6
I5370
sg7
S'Romani'
p1378
sg9
I0
sg10
I206
sg11
I20
sg12
g13
sg14
S'gibbone'
p1379
sba(itravian_raidmap
raid
p1380
(dp1381
g6
I5370
sg7
S'Romani'
p1382
sg9
I0
sg10
I207
sg11
I16
sg12
g13
sg14
S'gibbone'
p1383
sba(itravian_raidmap
raid
p1384
(dp1385
g6
I5370
sg7
S'Romani'
p1386
sg9
I0
sg10
I207
sg11
I17
sg12
g13
sg14
S'gibbone'
p1387
sba(itravian_raidmap
raid
p1388
(dp1389
g6
I5542
sg7
S'Romani'
p1390
sg9
I0
sg10
I183
sg11
I83
sg12
g13
sg14
S'damy73'
p1391
sba(itravian_raidmap
raid
p1392
(dp1393
g6
I5370
sg7
S'Romani'
p1394
sg9
I0
sg10
I207
sg11
I20
sg12
g13
sg14
S'gibbone'
p1395
sba(itravian_raidmap
raid
p1396
(dp1397
g6
I5370
sg7
S'Romani'
p1398
sg9
I0
sg10
I208
sg11
I16
sg12
g13
sg14
S'gibbone'
p1399
sba(itravian_raidmap
raid
p1400
(dp1401
g6
I3056
sg7
S'Galli'
p1402
sg9
I0
sg10
I215
sg11
I86
sg12
g13
sg14
S'Chris73'
p1403
sba(itravian_raidmap
raid
p1404
(dp1405
g6
I5542
sg7
S'Romani'
p1406
sg9
I0
sg10
I185
sg11
I84
sg12
g13
sg14
S'damy73'
p1407
sba(itravian_raidmap
raid
p1408
(dp1409
g6
I5542
sg7
S'Romani'
p1410
sg9
I0
sg10
I186
sg11
I82
sg12
g13
sg14
S'damy73'
p1411
sba(itravian_raidmap
raid
p1412
(dp1413
g6
I5542
sg7
S'Romani'
p1414
sg9
I0
sg10
I186
sg11
I83
sg12
g13
sg14
S'damy73'
p1415
sba(itravian_raidmap
raid
p1416
(dp1417
g6
I5370
sg7
S'Romani'
p1418
sg9
I0
sg10
I211
sg11
I16
sg12
g13
sg14
S'gibbone'
p1419
sba(itravian_raidmap
raid
p1420
(dp1421
g6
I5626
sg7
S'Romani'
p1422
sg9
I0
sg10
I184
sg11
I84
sg12
g13
sg14
S'draka'
p1423
sba(itravian_raidmap
raid
p1424
(dp1425
g6
I2738
sg7
S'Galli'
p1426
sg9
I0
sg10
I220
sg11
I112
sg12
g13
sg14
S'Martina Pigoni'
p1427
sba(itravian_raidmap
raid
p1428
(dp1429
g6
I4181
sg7
S'Galli'
p1430
sg9
I0
sg10
I171
sg11
I82
sg12
g13
sg14
S'kiara'
p1431
sba(itravian_raidmap
raid
p1432
(dp1433
g6
I4185
sg7
S'Galli'
p1434
sg9
I0
sg10
I172
sg11
I80
sg12
g13
sg14
S'kiara'
p1435
sba(itravian_raidmap
raid
p1436
(dp1437
g6
I2418
sg7
S'Galli'
p1438
sg9
I0
sg10
I252
sg11
I74
sg12
g13
sg14
S'Rodeano'
p1439
sba(itravian_raidmap
raid
p1440
(dp1441
g6
I3037
sg7
S'Galli'
p1442
sg9
I0
sg10
I224
sg11
I85
sg12
g13
sg14
S'flowergreg'
p1443
sba(itravian_raidmap
raid
p1444
(dp1445
g6
I2418
sg7
S'Galli'
p1446
sg9
I0
sg10
I258
sg11
I64
sg12
g13
sg14
S'Rodeano'
p1447
sba(itravian_raidmap
raid
p1448
(dp1449
g6
I5655
sg7
S'Romani'
p1450
sg9
I0
sg10
I206
sg11
I35
sg12
g13
sg14
S'Richard Neville'
p1451
sba(itravian_raidmap
raid
p1452
(dp1453
g6
I5655
sg7
S'Romani'
p1454
sg9
I0
sg10
I206
sg11
I36
sg12
g13
sg14
S'Richard Neville'
p1455
sba(itravian_raidmap
raid
p1456
(dp1457
g6
I5655
sg7
S'Romani'
p1458
sg9
I0
sg10
I207
sg11
I36
sg12
g13
sg14
S'Richard Neville'
p1459
sba(itravian_raidmap
raid
p1460
(dp1461
g6
I5655
sg7
S'Romani'
p1462
sg9
I0
sg10
I207
sg11
I37
sg12
g13
sg14
S'Richard Neville'
p1463
sba(itravian_raidmap
raid
p1464
(dp1465
g6
I9326
sg7
S'Teutoni'
p1466
sg9
I0
sg10
I157
sg11
I72
sg12
g13
sg14
S'maw'
p1467
sba(itravian_raidmap
raid
p1468
(dp1469
g6
I5655
sg7
S'Romani'
p1470
sg9
I0
sg10
I208
sg11
I36
sg12
g13
sg14
S'Richard Neville'
p1471
sba(itravian_raidmap
raid
p1472
(dp1473
g6
I5655
sg7
S'Romani'
p1474
sg9
I0
sg10
I209
sg11
I35
sg12
g13
sg14
S'Richard Neville'
p1475
sba(itravian_raidmap
raid
p1476
(dp1477
g6
I5655
sg7
S'Romani'
p1478
sg9
I0
sg10
I209
sg11
I36
sg12
g13
sg14
S'Richard Neville'
p1479
sba(itravian_raidmap
raid
p1480
(dp1481
g6
I5655
sg7
S'Romani'
p1482
sg9
I0
sg10
I210
sg11
I33
sg12
g13
sg14
S'Richard Neville'
p1483
sba(itravian_raidmap
raid
p1484
(dp1485
g6
I5655
sg7
S'Romani'
p1486
sg9
I0
sg10
I210
sg11
I35
sg12
g13
sg14
S'Richard Neville'
p1487
sba(itravian_raidmap
raid
p1488
(dp1489
g6
I5655
sg7
S'Romani'
p1490
sg9
I0
sg10
I210
sg11
I36
sg12
g13
sg14
S'Richard Neville'
p1491
sba(itravian_raidmap
raid
p1492
(dp1493
g6
I8248
sg7
S'Teutoni'
p1494
sg9
I0
sg10
I209
sg11
I75
sg12
g13
sg14
S'SNICH'
p1495
sba(itravian_raidmap
raid
p1496
(dp1497
g6
I6185
sg7
S'Romani'
p1498
sg9
I0
sg10
I173
sg11
I93
sg12
g13
sg14
S'grande demone'
p1499
sba(itravian_raidmap
raid
p1500
(dp1501
g6
I8248
sg7
S'Teutoni'
p1502
sg9
I0
sg10
I208
sg11
I86
sg12
g13
sg14
S'SNICH'
p1503
sba(itravian_raidmap
raid
p1504
(dp1505
g6
I5890
sg7
S'Romani'
p1506
sg9
I0
sg10
I205
sg11
I63
sg12
g13
sg14
S'scavesdude'
p1507
sba(itravian_raidmap
raid
p1508
(dp1509
g6
I5890
sg7
S'Romani'
p1510
sg9
I0
sg10
I205
sg11
I64
sg12
g13
sg14
S'scavesdude'
p1511
sba(itravian_raidmap
raid
p1512
(dp1513
g6
I5890
sg7
S'Romani'
p1514
sg9
I0
sg10
I206
sg11
I63
sg12
g13
sg14
S'scavesdude'
p1515
sba(itravian_raidmap
raid
p1516
(dp1517
g6
I6185
sg7
S'Romani'
p1518
sg9
I0
sg10
I182
sg11
I100
sg12
g13
sg14
S'grande demone'
p1519
sba(itravian_raidmap
raid
p1520
(dp1521
g6
I5890
sg7
S'Romani'
p1522
sg9
I0
sg10
I203
sg11
I84
sg12
g13
sg14
S'scavesdude'
p1523
sba(itravian_raidmap
raid
p1524
(dp1525
g6
I3238
sg7
S'Galli'
p1526
sg9
I0
sg10
I241
sg11
I67
sg12
g13
sg14
S'Lucya'
p1527
sba(itravian_raidmap
raid
p1528
(dp1529
g6
I5890
sg7
S'Romani'
p1530
sg9
I0
sg10
I204
sg11
I83
sg12
g13
sg14
S'scavesdude'
p1531
sba(itravian_raidmap
raid
p1532
(dp1533
g6
I3238
sg7
S'Galli'
p1534
sg9
I0
sg10
I241
sg11
I68
sg12
g13
sg14
S'Lucya'
p1535
sba(itravian_raidmap
raid
p1536
(dp1537
g6
I5890
sg7
S'Romani'
p1538
sg9
I0
sg10
I204
sg11
I84
sg12
g13
sg14
S'scavesdude'
p1539
sba(itravian_raidmap
raid
p1540
(dp1541
g6
I5890
sg7
S'Romani'
p1542
sg9
I0
sg10
I208
sg11
I75
sg12
g13
sg14
S'scavesdude'
p1543
sba(itravian_raidmap
raid
p1544
(dp1545
g6
I6185
sg7
S'Romani'
p1546
sg9
I0
sg10
I184
sg11
I100
sg12
g13
sg14
S'grande demone'
p1547
sba(itravian_raidmap
raid
p1548
(dp1549
g6
I6185
sg7
S'Romani'
p1550
sg9
I0
sg10
I184
sg11
I104
sg12
g13
sg14
S'grande demone'
p1551
sba(itravian_raidmap
raid
p1552
(dp1553
g6
I8248
sg7
S'Teutoni'
p1554
sg9
I0
sg10
I232
sg11
I88
sg12
g13
sg14
S'SNICH'
p1555
sba(itravian_raidmap
raid
p1556
(dp1557
g6
I8248
sg7
S'Teutoni'
p1558
sg9
I0
sg10
I233
sg11
I91
sg12
g13
sg14
S'SNICH'
p1559
sba(itravian_raidmap
raid
p1560
(dp1561
g6
I3607
sg7
S'Galli'
p1562
sg9
I0
sg10
I237
sg11
I59
sg12
g13
sg14
S'Rickythedragon'
p1563
sba(itravian_raidmap
raid
p1564
(dp1565
g6
I3238
sg7
S'Galli'
p1566
sg9
I0
sg10
I251
sg11
I66
sg12
g13
sg14
S'Lucya'
p1567
sba(itravian_raidmap
raid
p1568
(dp1569
g6
I3607
sg7
S'Galli'
p1570
sg9
I0
sg10
I238
sg11
I59
sg12
g13
sg14
S'Rickythedragon'
p1571
sba(itravian_raidmap
raid
p1572
(dp1573
g6
I3238
sg7
S'Galli'
p1574
sg9
I0
sg10
I253
sg11
I66
sg12
g13
sg14
S'Lucya'
p1575
sba(itravian_raidmap
raid
p1576
(dp1577
g6
I3607
sg7
S'Galli'
p1578
sg9
I0
sg10
I241
sg11
I55
sg12
g13
sg14
S'Rickythedragon'
p1579
sba(itravian_raidmap
raid
p1580
(dp1581
g6
I3607
sg7
S'Galli'
p1582
sg9
I0
sg10
I242
sg11
I54
sg12
g13
sg14
S'Rickythedragon'
p1583
sba(itravian_raidmap
raid
p1584
(dp1585
g6
I3238
sg7
S'Galli'
p1586
sg9
I0
sg10
I253
sg11
I72
sg12
g13
sg14
S'Lucya'
p1587
sba(itravian_raidmap
raid
p1588
(dp1589
g6
I8804
sg7
S'Teutoni'
p1590
sg9
I0
sg10
I207
sg11
I128
sg12
g13
sg14
S'Archimede'
p1591
sba(itravian_raidmap
raid
p1592
(dp1593
g6
I9391
sg7
S'Teutoni'
p1594
sg9
I0
sg10
I219
sg11
I26
sg12
g13
sg14
S'dejan'
p1595
sba(itravian_raidmap
raid
p1596
(dp1597
g6
I9391
sg7
S'Teutoni'
p1598
sg9
I0
sg10
I219
sg11
I28
sg12
g13
sg14
S'dejan'
p1599
sba(itravian_raidmap
raid
p1600
(dp1601
g6
I9391
sg7
S'Teutoni'
p1602
sg9
I0
sg10
I220
sg11
I28
sg12
g13
sg14
S'dejan'
p1603
sba(itravian_raidmap
raid
p1604
(dp1605
g6
I9391
sg7
S'Teutoni'
p1606
sg9
I0
sg10
I220
sg11
I29
sg12
g13
sg14
S'dejan'
p1607
sba(itravian_raidmap
raid
p1608
(dp1609
g6
I9391
sg7
S'Teutoni'
p1610
sg9
I0
sg10
I221
sg11
I29
sg12
g13
sg14
S'dejan'
p1611
sba(itravian_raidmap
raid
p1612
(dp1613
g6
I9391
sg7
S'Teutoni'
p1614
sg9
I0
sg10
I223
sg11
I28
sg12
g13
sg14
S'dejan'
p1615
sba(itravian_raidmap
raid
p1616
(dp1617
g6
I9391
sg7
S'Teutoni'
p1618
sg9
I0
sg10
I224
sg11
I29
sg12
g13
sg14
S'dejan'
p1619
sba(itravian_raidmap
raid
p1620
(dp1621
g6
I9391
sg7
S'Teutoni'
p1622
sg9
I0
sg10
I230
sg11
I37
sg12
g13
sg14
S'dejan'
p1623
sba(itravian_raidmap
raid
p1624
(dp1625
g6
I5890
sg7
S'Romani'
p1626
sg9
I0
sg10
I231
sg11
I100
sg12
g13
sg14
S'scavesdude'
p1627
sba(itravian_raidmap
raid
p1628
(dp1629
g6
I11021
sg7
S'Teutoni'
p1630
sg9
I0
sg10
I158
sg11
I60
sg12
g13
sg14
S'TEUTONICMAN'
p1631
sba(itravian_raidmap
raid
p1632
(dp1633
g6
I9391
sg7
S'Teutoni'
p1634
sg9
I0
sg10
I232
sg11
I34
sg12
g13
sg14
S'dejan'
p1635
sba(itravian_raidmap
raid
p1636
(dp1637
g6
I11021
sg7
S'Teutoni'
p1638
sg9
I0
sg10
I158
sg11
I61
sg12
g13
sg14
S'TEUTONICMAN'
p1639
sba(itravian_raidmap
raid
p1640
(dp1641
g6
I5890
sg7
S'Romani'
p1642
sg9
I0
sg10
I232
sg11
I100
sg12
g13
sg14
S'scavesdude'
p1643
sba(itravian_raidmap
raid
p1644
(dp1645
g6
I11021
sg7
S'Teutoni'
p1646
sg9
I0
sg10
I159
sg11
I60
sg12
g13
sg14
S'TEUTONICMAN'
p1647
sba(itravian_raidmap
raid
p1648
(dp1649
g6
I11021
sg7
S'Teutoni'
p1650
sg9
I0
sg10
I159
sg11
I61
sg12
g13
sg14
S'TEUTONICMAN'
p1651
sba(itravian_raidmap
raid
p1652
(dp1653
g6
I11021
sg7
S'Teutoni'
p1654
sg9
I0
sg10
I160
sg11
I60
sg12
g13
sg14
S'TEUTONICMAN'
p1655
sba(itravian_raidmap
raid
p1656
(dp1657
g6
I11021
sg7
S'Teutoni'
p1658
sg9
I0
sg10
I160
sg11
I61
sg12
g13
sg14
S'TEUTONICMAN'
p1659
sba(itravian_raidmap
raid
p1660
(dp1661
g6
I11021
sg7
S'Teutoni'
p1662
sg9
I0
sg10
I161
sg11
I62
sg12
g13
sg14
S'TEUTONICMAN'
p1663
sba(itravian_raidmap
raid
p1664
(dp1665
g6
I11021
sg7
S'Teutoni'
p1666
sg9
I0
sg10
I162
sg11
I60
sg12
g13
sg14
S'TEUTONICMAN'
p1667
sba(itravian_raidmap
raid
p1668
(dp1669
g6
I11021
sg7
S'Teutoni'
p1670
sg9
I0
sg10
I162
sg11
I63
sg12
g13
sg14
S'TEUTONICMAN'
p1671
sba(itravian_raidmap
raid
p1672
(dp1673
g6
I11021
sg7
S'Teutoni'
p1674
sg9
I0
sg10
I162
sg11
I65
sg12
g13
sg14
S'TEUTONICMAN'
p1675
sba(itravian_raidmap
raid
p1676
(dp1677
g6
I7800
sg7
S'Romani'
p1678
sg9
I0
sg10
I164
sg11
I84
sg12
g13
sg14
S'noire!'
p1679
sba(itravian_raidmap
raid
p1680
(dp1681
g6
I7800
sg7
S'Romani'
p1682
sg9
I0
sg10
I163
sg11
I87
sg12
g13
sg14
S'noire!'
p1683
sba(itravian_raidmap
raid
p1684
(dp1685
g6
I9921
sg7
S'Teutoni'
p1686
sg9
I0
sg10
I205
sg11
I94
sg12
g13
sg14
S'Mastck'
p1687
sba(itravian_raidmap
raid
p1688
(dp1689
g6
I11021
sg7
S'Teutoni'
p1690
sg9
I0
sg10
I179
sg11
I45
sg12
g13
sg14
S'TEUTONICMAN'
p1691
sba(itravian_raidmap
raid
p1692
(dp1693
g6
I9922
sg7
S'Teutoni'
p1694
sg9
I0
sg10
I209
sg11
I115
sg12
g13
sg14
S'Mastck'
p1695
sba(itravian_raidmap
raid
p1696
(dp1697
g6
I9921
sg7
S'Teutoni'
p1698
sg9
I0
sg10
I208
sg11
I117
sg12
g13
sg14
S'Mastck'
p1699
sba(itravian_raidmap
raid
p1700
(dp1701
g6
I9922
sg7
S'Teutoni'
p1702
sg9
I0
sg10
I210
sg11
I114
sg12
g13
sg14
S'Mastck'
p1703
sba(itravian_raidmap
raid
p1704
(dp1705
g6
I9922
sg7
S'Teutoni'
p1706
sg9
I0
sg10
I210
sg11
I115
sg12
g13
sg14
S'Mastck'
p1707
sba(itravian_raidmap
raid
p1708
(dp1709
g6
I9921
sg7
S'Teutoni'
p1710
sg9
I0
sg10
I209
sg11
I117
sg12
g13
sg14
S'Mastck'
p1711
sba(itravian_raidmap
raid
p1712
(dp1713
g6
I5143
sg7
S'Galli'
p1714
sg9
I0
sg10
I229
sg11
I53
sg12
g13
sg14
S'mikelanzi'
p1715
sba(itravian_raidmap
raid
p1716
(dp1717
g6
I5143
sg7
S'Galli'
p1718
sg9
I0
sg10
I230
sg11
I53
sg12
g13
sg14
S'mikelanzi'
p1719
sba(itravian_raidmap
raid
p1720
(dp1721
g6
I8831
sg7
S'Romani'
p1722
sg9
I0
sg10
I176
sg11
I48
sg12
g13
sg14
S'livio71'
p1723
sba(itravian_raidmap
raid
p1724
(dp1725
g6
I8831
sg7
S'Romani'
p1726
sg9
I0
sg10
I175
sg11
I53
sg12
g13
sg14
S'livio71'
p1727
sba(itravian_raidmap
raid
p1728
(dp1729
g6
I8831
sg7
S'Romani'
p1730
sg9
I0
sg10
I177
sg11
I48
sg12
g13
sg14
S'livio71'
p1731
sba(itravian_raidmap
raid
p1732
(dp1733
g6
I8831
sg7
S'Romani'
p1734
sg9
I0
sg10
I178
sg11
I47
sg12
g13
sg14
S'livio71'
p1735
sba(itravian_raidmap
raid
p1736
(dp1737
g6
I8831
sg7
S'Romani'
p1738
sg9
I0
sg10
I178
sg11
I49
sg12
g13
sg14
S'livio71'
p1739
sba(itravian_raidmap
raid
p1740
(dp1741
g6
I8831
sg7
S'Romani'
p1742
sg9
I0
sg10
I179
sg11
I50
sg12
g13
sg14
S'livio71'
p1743
sba(itravian_raidmap
raid
p1744
(dp1745
g6
I8831
sg7
S'Romani'
p1746
sg9
I0
sg10
I179
sg11
I52
sg12
g13
sg14
S'livio71'
p1747
sba(itravian_raidmap
raid
p1748
(dp1749
g6
I8831
sg7
S'Romani'
p1750
sg9
I0
sg10
I180
sg11
I56
sg12
g13
sg14
S'livio71'
p1751
sba(itravian_raidmap
raid
p1752
(dp1753
g6
I8831
sg7
S'Romani'
p1754
sg9
I0
sg10
I182
sg11
I56
sg12
g13
sg14
S'livio71'
p1755
sba(itravian_raidmap
raid
p1756
(dp1757
g6
I8831
sg7
S'Romani'
p1758
sg9
I0
sg10
I186
sg11
I45
sg12
g13
sg14
S'livio71'
p1759
sba(itravian_raidmap
raid
p1760
(dp1761
g6
I12176
sg7
S'Teutoni'
p1762
sg9
I0
sg10
I190
sg11
I38
sg12
g13
sg14
S'Dom89'
p1763
sba(itravian_raidmap
raid
p1764
(dp1765
g6
I12176
sg7
S'Teutoni'
p1766
sg9
I0
sg10
I191
sg11
I36
sg12
g13
sg14
S'Dom89'
p1767
sba(itravian_raidmap
raid
p1768
(dp1769
g6
I12176
sg7
S'Teutoni'
p1770
sg9
I0
sg10
I191
sg11
I38
sg12
g13
sg14
S'Dom89'
p1771
sba(itravian_raidmap
raid
p1772
(dp1773
g6
I8358
sg7
S'Romani'
p1774
sg9
I0
sg10
I204
sg11
I55
sg12
g13
sg14
S'rusty'
p1775
sba(itravian_raidmap
raid
p1776
(dp1777
g6
I12176
sg7
S'Teutoni'
p1778
sg9
I0
sg10
I192
sg11
I36
sg12
g13
sg14
S'Dom89'
p1779
sba(itravian_raidmap
raid
p1780
(dp1781
g6
I8358
sg7
S'Romani'
p1782
sg9
I0
sg10
I205
sg11
I54
sg12
g13
sg14
S'rusty'
p1783
sba(itravian_raidmap
raid
p1784
(dp1785
g6
I12176
sg7
S'Teutoni'
p1786
sg9
I0
sg10
I193
sg11
I34
sg12
g13
sg14
S'Dom89'
p1787
sba(itravian_raidmap
raid
p1788
(dp1789
g6
I12176
sg7
S'Teutoni'
p1790
sg9
I0
sg10
I192
sg11
I40
sg12
g13
sg14
S'Dom89'
p1791
sba(itravian_raidmap
raid
p1792
(dp1793
g6
I8358
sg7
S'Romani'
p1794
sg9
I0
sg10
I205
sg11
I55
sg12
g13
sg14
S'rusty'
p1795
sba(itravian_raidmap
raid
p1796
(dp1797
g6
I12176
sg7
S'Teutoni'
p1798
sg9
I0
sg10
I193
sg11
I36
sg12
g13
sg14
S'Dom89'
p1799
sba(itravian_raidmap
raid
p1800
(dp1801
g6
I12176
sg7
S'Teutoni'
p1802
sg9
I0
sg10
I193
sg11
I37
sg12
g13
sg14
S'Dom89'
p1803
sba(itravian_raidmap
raid
p1804
(dp1805
g6
I12176
sg7
S'Teutoni'
p1806
sg9
I0
sg10
I194
sg11
I38
sg12
g13
sg14
S'Dom89'
p1807
sba(itravian_raidmap
raid
p1808
(dp1809
g6
I8358
sg7
S'Romani'
p1810
sg9
I0
sg10
I208
sg11
I51
sg12
g13
sg14
S'rusty'
p1811
sba(itravian_raidmap
raid
p1812
(dp1813
g6
I8358
sg7
S'Romani'
p1814
sg9
I0
sg10
I210
sg11
I49
sg12
g13
sg14
S'rusty'
p1815
sba(itravian_raidmap
raid
p1816
(dp1817
g6
I8358
sg7
S'Romani'
p1818
sg9
I0
sg10
I211
sg11
I48
sg12
g13
sg14
S'rusty'
p1819
sba(itravian_raidmap
raid
p1820
(dp1821
g6
I8358
sg7
S'Romani'
p1822
sg9
I0
sg10
I212
sg11
I49
sg12
g13
sg14
S'rusty'
p1823
sba(itravian_raidmap
raid
p1824
(dp1825
g6
I12176
sg7
S'Teutoni'
p1826
sg9
I0
sg10
I199
sg11
I40
sg12
g13
sg14
S'Dom89'
p1827
sba(itravian_raidmap
raid
p1828
(dp1829
g6
I8831
sg7
S'Romani'
p1830
sg9
I0
sg10
I189
sg11
I63
sg12
g13
sg14
S'livio71'
p1831
sba(itravian_raidmap
raid
p1832
(dp1833
g6
I5767
sg7
S'Galli'
p1834
sg9
I0
sg10
I207
sg11
I100
sg12
g13
sg14
S'yuma'
p1835
sba(itravian_raidmap
raid
p1836
(dp1837
g6
I5767
sg7
S'Galli'
p1838
sg9
I0
sg10
I208
sg11
I99
sg12
g13
sg14
S'yuma'
p1839
sba(itravian_raidmap
raid
p1840
(dp1841
g6
I7543
sg7
S'Romani'
p1842
sg9
I0
sg10
I239
sg11
I90
sg12
g13
sg14
S'brodway'
p1843
sba(itravian_raidmap
raid
p1844
(dp1845
g6
I5767
sg7
S'Galli'
p1846
sg9
I0
sg10
I212
sg11
I103
sg12
g13
sg14
S'yuma'
p1847
sba(itravian_raidmap
raid
p1848
(dp1849
g6
I5767
sg7
S'Galli'
p1850
sg9
I0
sg10
I213
sg11
I103
sg12
g13
sg14
S'yuma'
p1851
sba(itravian_raidmap
raid
p1852
(dp1853
g6
I7543
sg7
S'Romani'
p1854
sg9
I0
sg10
I252
sg11
I82
sg12
g13
sg14
S'brodway'
p1855
sba(itravian_raidmap
raid
p1856
(dp1857
g6
I13316
sg7
S'Teutoni'
p1858
sg9
I0
sg10
I160
sg11
I73
sg12
g13
sg14
S'artemisia'
p1859
sba(itravian_raidmap
raid
p1860
(dp1861
g6
I7543
sg7
S'Romani'
p1862
sg9
I0
sg10
I251
sg11
I86
sg12
g13
sg14
S'brodway'
p1863
sba(itravian_raidmap
raid
p1864
(dp1865
g6
I13316
sg7
S'Teutoni'
p1866
sg9
I0
sg10
I163
sg11
I73
sg12
g13
sg14
S'artemisia'
p1867
sba(itravian_raidmap
raid
p1868
(dp1869
g6
I12244
sg7
S'Teutoni'
p1870
sg9
I0
sg10
I226
sg11
I82
sg12
g13
sg14
S'aglianico'
p1871
sba(itravian_raidmap
raid
p1872
(dp1873
g6
I12244
sg7
S'Teutoni'
p1874
sg9
I0
sg10
I227
sg11
I82
sg12
g13
sg14
S'aglianico'
p1875
sba(itravian_raidmap
raid
p1876
(dp1877
g6
I9911
sg7
S'Romani'
p1878
sg9
I0
sg10
I185
sg11
I40
sg12
g13
sg14
S'binik'
p1879
sba(itravian_raidmap
raid
p1880
(dp1881
g6
I8923
sg7
S'Romani'
p1882
sg9
I0
sg10
I225
sg11
I48
sg12
g13
sg14
S'THC'
p1883
sba(itravian_raidmap
raid
p1884
(dp1885
g6
I8923
sg7
S'Romani'
p1886
sg9
I0
sg10
I225
sg11
I49
sg12
g13
sg14
S'THC'
p1887
sba(itravian_raidmap
raid
p1888
(dp1889
g6
I8923
sg7
S'Romani'
p1890
sg9
I0
sg10
I226
sg11
I47
sg12
g13
sg14
S'THC'
p1891
sba(itravian_raidmap
raid
p1892
(dp1893
g6
I8923
sg7
S'Romani'
p1894
sg9
I0
sg10
I226
sg11
I49
sg12
g13
sg14
S'THC'
p1895
sba(itravian_raidmap
raid
p1896
(dp1897
g6
I8831
sg7
S'Romani'
p1898
sg9
I0
sg10
I218
sg11
I88
sg12
g13
sg14
S'livio71'
p1899
sba(itravian_raidmap
raid
p1900
(dp1901
g6
I8923
sg7
S'Romani'
p1902
sg9
I0
sg10
I227
sg11
I47
sg12
g13
sg14
S'THC'
p1903
sba(itravian_raidmap
raid
p1904
(dp1905
g6
I10296
sg7
S'Romani'
p1906
sg9
I0
sg10
I161
sg11
I74
sg12
g13
sg14
S'homerxxx'
p1907
sba(itravian_raidmap
raid
p1908
(dp1909
g6
I8923
sg7
S'Romani'
p1910
sg9
I0
sg10
I227
sg11
I49
sg12
g13
sg14
S'THC'
p1911
sba(itravian_raidmap
raid
p1912
(dp1913
g6
I8923
sg7
S'Romani'
p1914
sg9
I0
sg10
I227
sg11
I50
sg12
g13
sg14
S'THC'
p1915
sba(itravian_raidmap
raid
p1916
(dp1917
g6
I8923
sg7
S'Romani'
p1918
sg9
I0
sg10
I227
sg11
I51
sg12
g13
sg14
S'THC'
p1919
sba(itravian_raidmap
raid
p1920
(dp1921
g6
I8923
sg7
S'Romani'
p1922
sg9
I0
sg10
I228
sg11
I47
sg12
g13
sg14
S'THC'
p1923
sba(itravian_raidmap
raid
p1924
(dp1925
g6
I8923
sg7
S'Romani'
p1926
sg9
I0
sg10
I228
sg11
I49
sg12
g13
sg14
S'THC'
p1927
sba(itravian_raidmap
raid
p1928
(dp1929
g6
I8923
sg7
S'Romani'
p1930
sg9
I0
sg10
I228
sg11
I50
sg12
g13
sg14
S'THC'
p1931
sba(itravian_raidmap
raid
p1932
(dp1933
g6
I9911
sg7
S'Romani'
p1934
sg9
I0
sg10
I188
sg11
I48
sg12
g13
sg14
S'binik'
p1935
sba(itravian_raidmap
raid
p1936
(dp1937
g6
I8923
sg7
S'Romani'
p1938
sg9
I0
sg10
I228
sg11
I51
sg12
g13
sg14
S'THC'
p1939
sba(itravian_raidmap
raid
p1940
(dp1941
g6
I8923
sg7
S'Romani'
p1942
sg9
I0
sg10
I229
sg11
I48
sg12
g13
sg14
S'THC'
p1943
sba(itravian_raidmap
raid
p1944
(dp1945
g6
I9911
sg7
S'Romani'
p1946
sg9
I0
sg10
I189
sg11
I46
sg12
g13
sg14
S'binik'
p1947
sba(itravian_raidmap
raid
p1948
(dp1949
g6
I9911
sg7
S'Romani'
p1950
sg9
I0
sg10
I189
sg11
I47
sg12
g13
sg14
S'binik'
p1951
sba(itravian_raidmap
raid
p1952
(dp1953
g6
I14283
sg7
S'Teutoni'
p1954
sg9
I0
sg10
I156
sg11
I62
sg12
g13
sg14
S'lanpizva'
p1955
sba(itravian_raidmap
raid
p1956
(dp1957
g6
I9911
sg7
S'Romani'
p1958
sg9
I0
sg10
I189
sg11
I48
sg12
g13
sg14
S'binik'
p1959
sba(itravian_raidmap
raid
p1960
(dp1961
g6
I9911
sg7
S'Romani'
p1962
sg9
I0
sg10
I189
sg11
I49
sg12
g13
sg14
S'binik'
p1963
sba(itravian_raidmap
raid
p1964
(dp1965
g6
I9911
sg7
S'Romani'
p1966
sg9
I0
sg10
I190
sg11
I48
sg12
g13
sg14
S'binik'
p1967
sba(itravian_raidmap
raid
p1968
(dp1969
g6
I9911
sg7
S'Romani'
p1970
sg9
I0
sg10
I190
sg11
I49
sg12
g13
sg14
S'binik'
p1971
sba(itravian_raidmap
raid
p1972
(dp1973
g6
I9911
sg7
S'Romani'
p1974
sg9
I0
sg10
I191
sg11
I46
sg12
g13
sg14
S'binik'
p1975
sba(itravian_raidmap
raid
p1976
(dp1977
g6
I9911
sg7
S'Romani'
p1978
sg9
I0
sg10
I191
sg11
I48
sg12
g13
sg14
S'binik'
p1979
sba(itravian_raidmap
raid
p1980
(dp1981
g6
I9911
sg7
S'Romani'
p1982
sg9
I0
sg10
I193
sg11
I50
sg12
g13
sg14
S'binik'
p1983
sba(itravian_raidmap
raid
p1984
(dp1985
g6
I9911
sg7
S'Romani'
p1986
sg9
I0
sg10
I195
sg11
I45
sg12
g13
sg14
S'binik'
p1987
sba(itravian_raidmap
raid
p1988
(dp1989
g6
I10296
sg7
S'Romani'
p1990
sg9
I0
sg10
I167
sg11
I80
sg12
g13
sg14
S'homerxxx'
p1991
sba(itravian_raidmap
raid
p1992
(dp1993
g6
I9911
sg7
S'Romani'
p1994
sg9
I0
sg10
I190
sg11
I65
sg12
g13
sg14
S'binik'
p1995
sba(itravian_raidmap
raid
p1996
(dp1997
g6
I10296
sg7
S'Romani'
p1998
sg9
I0
sg10
I167
sg11
I82
sg12
g13
sg14
S'homerxxx'
p1999
sba(itravian_raidmap
raid
p2000
(dp2001
g6
I10296
sg7
S'Romani'
p2002
sg9
I0
sg10
I168
sg11
I80
sg12
g13
sg14
S'homerxxx'
p2003
sba(itravian_raidmap
raid
p2004
(dp2005
g6
I9911
sg7
S'Romani'
p2006
sg9
I0
sg10
I192
sg11
I62
sg12
g13
sg14
S'binik'
p2007
sba(itravian_raidmap
raid
p2008
(dp2009
g6
I10296
sg7
S'Romani'
p2010
sg9
I0
sg10
I168
sg11
I81
sg12
g13
sg14
S'homerxxx'
p2011
sba(itravian_raidmap
raid
p2012
(dp2013
g6
I14283
sg7
S'Teutoni'
p2014
sg9
I0
sg10
I167
sg11
I58
sg12
g13
sg14
S'lanpizva'
p2015
sba(itravian_raidmap
raid
p2016
(dp2017
g6
I9911
sg7
S'Romani'
p2018
sg9
I0
sg10
I190
sg11
I70
sg12
g13
sg14
S'binik'
p2019
sba(itravian_raidmap
raid
p2020
(dp2021
g6
I9911
sg7
S'Romani'
p2022
sg9
I0
sg10
I193
sg11
I62
sg12
g13
sg14
S'binik'
p2023
sba(itravian_raidmap
raid
p2024
(dp2025
g6
I9847
sg7
S'Romani'
p2026
sg9
I0
sg10
I185
sg11
I96
sg12
g13
sg14
S'Stomoxys'
p2027
sba(itravian_raidmap
raid
p2028
(dp2029
g6
I8184
sg7
S'Galli'
p2030
sg9
I0
sg10
I169
sg11
I53
sg12
g13
sg14
S'carroarmato'
p2031
sba(itravian_raidmap
raid
p2032
(dp2033
g6
I8184
sg7
S'Galli'
p2034
sg9
I0
sg10
I171
sg11
I50
sg12
g13
sg14
S'carroarmato'
p2035
sba(itravian_raidmap
raid
p2036
(dp2037
g6
I8184
sg7
S'Galli'
p2038
sg9
I0
sg10
I171
sg11
I51
sg12
g13
sg14
S'carroarmato'
p2039
sba(itravian_raidmap
raid
p2040
(dp2041
g6
I8184
sg7
S'Galli'
p2042
sg9
I0
sg10
I171
sg11
I52
sg12
g13
sg14
S'carroarmato'
p2043
sba(itravian_raidmap
raid
p2044
(dp2045
g6
I8184
sg7
S'Galli'
p2046
sg9
I0
sg10
I172
sg11
I50
sg12
g13
sg14
S'carroarmato'
p2047
sba(itravian_raidmap
raid
p2048
(dp2049
g6
I9847
sg7
S'Romani'
p2050
sg9
I0
sg10
I185
sg11
I108
sg12
g13
sg14
S'Stomoxys'
p2051
sba(itravian_raidmap
raid
p2052
(dp2053
g6
I8184
sg7
S'Galli'
p2054
sg9
I0
sg10
I172
sg11
I51
sg12
g13
sg14
S'carroarmato'
p2055
sba(itravian_raidmap
raid
p2056
(dp2057
g6
I8184
sg7
S'Galli'
p2058
sg9
I0
sg10
I173
sg11
I52
sg12
g13
sg14
S'carroarmato'
p2059
sba(itravian_raidmap
raid
p2060
(dp2061
g6
I8184
sg7
S'Galli'
p2062
sg9
I0
sg10
I173
sg11
I56
sg12
g13
sg14
S'carroarmato'
p2063
sba(itravian_raidmap
raid
p2064
(dp2065
g6
I14356
sg7
S'Teutoni'
p2066
sg9
I0
sg10
I173
sg11
I87
sg12
g13
sg14
S'_HeLlLaS_'
p2067
sba(itravian_raidmap
raid
p2068
(dp2069
g6
I7465
sg7
S'Galli'
p2070
sg9
I0
sg10
I196
sg11
I89
sg12
g13
sg14
S'valer x'
p2071
sba(itravian_raidmap
raid
p2072
(dp2073
g6
I9847
sg7
S'Romani'
p2074
sg9
I0
sg10
I207
sg11
I95
sg12
g13
sg14
S'Stomoxys'
p2075
sba(itravian_raidmap
raid
p2076
(dp2077
g6
I7465
sg7
S'Galli'
p2078
sg9
I0
sg10
I200
sg11
I91
sg12
g13
sg14
S'valer x'
p2079
sba(itravian_raidmap
raid
p2080
(dp2081
g6
I14356
sg7
S'Teutoni'
p2082
sg9
I0
sg10
I179
sg11
I98
sg12
g13
sg14
S'_HeLlLaS_'
p2083
sba(itravian_raidmap
raid
p2084
(dp2085
g6
I14356
sg7
S'Teutoni'
p2086
sg9
I0
sg10
I179
sg11
I99
sg12
g13
sg14
S'_HeLlLaS_'
p2087
sba(itravian_raidmap
raid
p2088
(dp2089
g6
I14487
sg7
S'Teutoni'
p2090
sg9
I0
sg10
I199
sg11
I19
sg12
g13
sg14
S'-M-'
p2091
sba(itravian_raidmap
raid
p2092
(dp2093
g6
I6646
sg7
S'Galli'
p2094
sg9
I0
sg10
I244
sg11
I70
sg12
g13
sg14
S'marcopancio'
p2095
sba(itravian_raidmap
raid
p2096
(dp2097
g6
I14356
sg7
S'Teutoni'
p2098
sg9
I0
sg10
I189
sg11
I94
sg12
g13
sg14
S'_HeLlLaS_'
p2099
sba(itravian_raidmap
raid
p2100
(dp2101
g6
I6646
sg7
S'Galli'
p2102
sg9
I0
sg10
I251
sg11
I61
sg12
g13
sg14
S'marcopancio'
p2103
sba(itravian_raidmap
raid
p2104
(dp2105
g6
I14356
sg7
S'Teutoni'
p2106
sg9
I0
sg10
I189
sg11
I97
sg12
g13
sg14
S'_HeLlLaS_'
p2107
sba(itravian_raidmap
raid
p2108
(dp2109
g6
I14356
sg7
S'Teutoni'
p2110
sg9
I0
sg10
I192
sg11
I96
sg12
g13
sg14
S'_HeLlLaS_'
p2111
sba(itravian_raidmap
raid
p2112
(dp2113
g6
I14487
sg7
S'Teutoni'
p2114
sg9
I0
sg10
I210
sg11
I13
sg12
g13
sg14
S'-M-'
p2115
sba(itravian_raidmap
raid
p2116
(dp2117
g6
I14356
sg7
S'Teutoni'
p2118
sg9
I0
sg10
I194
sg11
I96
sg12
g13
sg14
S'_HeLlLaS_'
p2119
sba(itravian_raidmap
raid
p2120
(dp2121
g6
I14356
sg7
S'Teutoni'
p2122
sg9
I0
sg10
I192
sg11
I100
sg12
g13
sg14
S'_HeLlLaS_'
p2123
sba(itravian_raidmap
raid
p2124
(dp2125
g6
I14356
sg7
S'Teutoni'
p2126
sg9
I0
sg10
I192
sg11
I103
sg12
g13
sg14
S'_HeLlLaS_'
p2127
sba(itravian_raidmap
raid
p2128
(dp2129
g6
I14356
sg7
S'Teutoni'
p2130
sg9
I0
sg10
I191
sg11
I106
sg12
g13
sg14
S'_HeLlLaS_'
p2131
sba(itravian_raidmap
raid
p2132
(dp2133
g6
I14356
sg7
S'Teutoni'
p2134
sg9
I0
sg10
I199
sg11
I98
sg12
g13
sg14
S'_HeLlLaS_'
p2135
sba(itravian_raidmap
raid
p2136
(dp2137
g6
I14356
sg7
S'Teutoni'
p2138
sg9
I0
sg10
I195
sg11
I111
sg12
g13
sg14
S'_HeLlLaS_'
p2139
sba(itravian_raidmap
raid
p2140
(dp2141
g6
I14356
sg7
S'Teutoni'
p2142
sg9
I0
sg10
I197
sg11
I108
sg12
g13
sg14
S'_HeLlLaS_'
p2143
sba(itravian_raidmap
raid
p2144
(dp2145
g6
I14356
sg7
S'Teutoni'
p2146
sg9
I0
sg10
I205
sg11
I95
sg12
g13
sg14
S'_HeLlLaS_'
p2147
sba(itravian_raidmap
raid
p2148
(dp2149
g6
I14356
sg7
S'Teutoni'
p2150
sg9
I0
sg10
I205
sg11
I96
sg12
g13
sg14
S'_HeLlLaS_'
p2151
sba(itravian_raidmap
raid
p2152
(dp2153
g6
I14356
sg7
S'Teutoni'
p2154
sg9
I0
sg10
I204
sg11
I106
sg12
g13
sg14
S'_HeLlLaS_'
p2155
sba(itravian_raidmap
raid
p2156
(dp2157
g6
I8351
sg7
S'Galli'
p2158
sg9
I0
sg10
I213
sg11
I24
sg12
g13
sg14
S'Tosondoro'
p2159
sba(itravian_raidmap
raid
p2160
(dp2161
g6
I8119
sg7
S'Galli'
p2162
sg9
I0
sg10
I203
sg11
I103
sg12
g13
sg14
S'fuvin'
p2163
sba(itravian_raidmap
raid
p2164
(dp2165
g6
I8351
sg7
S'Galli'
p2166
sg9
I0
sg10
I218
sg11
I23
sg12
g13
sg14
S'Tosondoro'
p2167
sba(itravian_raidmap
raid
p2168
(dp2169
g6
I8351
sg7
S'Galli'
p2170
sg9
I0
sg10
I218
sg11
I24
sg12
g13
sg14
S'Tosondoro'
p2171
sba(itravian_raidmap
raid
p2172
(dp2173
g6
I8119
sg7
S'Galli'
p2174
sg9
I0
sg10
I203
sg11
I109
sg12
g13
sg14
S'fuvin'
p2175
sba(itravian_raidmap
raid
p2176
(dp2177
g6
I8119
sg7
S'Galli'
p2178
sg9
I0
sg10
I211
sg11
I97
sg12
g13
sg14
S'fuvin'
p2179
sba(itravian_raidmap
raid
p2180
(dp2181
g6
I8119
sg7
S'Galli'
p2182
sg9
I0
sg10
I224
sg11
I98
sg12
g13
sg14
S'fuvin'
p2183
sba(itravian_raidmap
raid
p2184
(dp2185
g6
I12643
sg7
S'Romani'
p2186
sg9
I0
sg10
I185
sg11
I38
sg12
g13
sg14
S'kanaki'
p2187
sba(itravian_raidmap
raid
p2188
(dp2189
g6
I9855
sg7
S'Galli'
p2190
sg9
I0
sg10
I180
sg11
I78
sg12
g13
sg14
S'gianox'
p2191
sba(itravian_raidmap
raid
p2192
(dp2193
g6
I9103
sg7
S'Galli'
p2194
sg9
I0
sg10
I201
sg11
I121
sg12
g13
sg14
S'Thomas Magno'
p2195
sba(itravian_raidmap
raid
p2196
(dp2197
g6
I13597
sg7
S'Romani'
p2198
sg9
I0
sg10
I171
sg11
I48
sg12
g13
sg14
S'dinamite'
p2199
sba(itravian_raidmap
raid
p2200
(dp2201
g6
I9103
sg7
S'Galli'
p2202
sg9
I0
sg10
I207
sg11
I117
sg12
g13
sg14
S'Thomas Magno'
p2203
sba(itravian_raidmap
raid
p2204
(dp2205
g6
I9103
sg7
S'Galli'
p2206
sg9
I0
sg10
I213
sg11
I113
sg12
g13
sg14
S'Thomas Magno'
p2207
sba(itravian_raidmap
raid
p2208
(dp2209
g6
I13998
sg7
S'Romani'
p2210
sg9
I0
sg10
I157
sg11
I64
sg12
g13
sg14
S'Ganja Lover'
p2211
sba(itravian_raidmap
raid
p2212
(dp2213
g6
I13597
sg7
S'Romani'
p2214
sg9
I0
sg10
I180
sg11
I46
sg12
g13
sg14
S'dinamite'
p2215
sba(itravian_raidmap
raid
p2216
(dp2217
g6
I18165
sg7
S'Teutoni'
p2218
sg9
I0
sg10
I176
sg11
I59
sg12
g13
sg14
S'S4RGON'
p2219
sba(itravian_raidmap
raid
p2220
(dp2221
g6
I18165
sg7
S'Teutoni'
p2222
sg9
I0
sg10
I176
sg11
I63
sg12
g13
sg14
S'S4RGON'
p2223
sba(itravian_raidmap
raid
p2224
(dp2225
g6
I18165
sg7
S'Teutoni'
p2226
sg9
I0
sg10
I172
sg11
I75
sg12
g13
sg14
S'S4RGON'
p2227
sba(itravian_raidmap
raid
p2228
(dp2229
g6
I13594
sg7
S'Romani'
p2230
sg9
I0
sg10
I185
sg11
I32
sg12
g13
sg14
S'dinamite'
p2231
sba(itravian_raidmap
raid
p2232
(dp2233
g6
I18165
sg7
S'Teutoni'
p2234
sg9
I0
sg10
I175
sg11
I71
sg12
g13
sg14
S'S4RGON'
p2235
sba(itravian_raidmap
raid
p2236
(dp2237
g6
I13594
sg7
S'Romani'
p2238
sg9
I0
sg10
I186
sg11
I33
sg12
g13
sg14
S'dinamite'
p2239
sba(itravian_raidmap
raid
p2240
(dp2241
g6
I13597
sg7
S'Romani'
p2242
sg9
I0
sg10
I179
sg11
I62
sg12
g13
sg14
S'dinamite'
p2243
sba(itravian_raidmap
raid
p2244
(dp2245
g6
I18165
sg7
S'Teutoni'
p2246
sg9
I0
sg10
I179
sg11
I64
sg12
g13
sg14
S'S4RGON'
p2247
sba(itravian_raidmap
raid
p2248
(dp2249
g6
I18165
sg7
S'Teutoni'
p2250
sg9
I0
sg10
I173
sg11
I80
sg12
g13
sg14
S'S4RGON'
p2251
sba(itravian_raidmap
raid
p2252
(dp2253
g6
I18165
sg7
S'Teutoni'
p2254
sg9
I0
sg10
I179
sg11
I66
sg12
g13
sg14
S'S4RGON'
p2255
sba(itravian_raidmap
raid
p2256
(dp2257
g6
I18162
sg7
S'Teutoni'
p2258
sg9
I0
sg10
I177
sg11
I73
sg12
g13
sg14
S'S4RGON'
p2259
sba(itravian_raidmap
raid
p2260
(dp2261
g6
I18165
sg7
S'Teutoni'
p2262
sg9
I0
sg10
I182
sg11
I60
sg12
g13
sg14
S'S4RGON'
p2263
sba(itravian_raidmap
raid
p2264
(dp2265
g6
I18165
sg7
S'Teutoni'
p2266
sg9
I0
sg10
I181
sg11
I64
sg12
g13
sg14
S'S4RGON'
p2267
sba(itravian_raidmap
raid
p2268
(dp2269
g6
I13597
sg7
S'Romani'
p2270
sg9
I0
sg10
I181
sg11
I62
sg12
g13
sg14
S'dinamite'
p2271
sba(itravian_raidmap
raid
p2272
(dp2273
g6
I18165
sg7
S'Teutoni'
p2274
sg9
I0
sg10
I183
sg11
I63
sg12
g13
sg14
S'S4RGON'
p2275
sba(itravian_raidmap
raid
p2276
(dp2277
g6
I18165
sg7
S'Teutoni'
p2278
sg9
I0
sg10
I183
sg11
I64
sg12
g13
sg14
S'S4RGON'
p2279
sba(itravian_raidmap
raid
p2280
(dp2281
g6
I13998
sg7
S'Romani'
p2282
sg9
I0
sg10
I166
sg11
I60
sg12
g13
sg14
S'Ganja Lover'
p2283
sba(itravian_raidmap
raid
p2284
(dp2285
g6
I18162
sg7
S'Teutoni'
p2286
sg9
I0
sg10
I181
sg11
I70
sg12
g13
sg14
S'S4RGON'
p2287
sba(itravian_raidmap
raid
p2288
(dp2289
g6
I18165
sg7
S'Teutoni'
p2290
sg9
I0
sg10
I183
sg11
I65
sg12
g13
sg14
S'S4RGON'
p2291
sba(itravian_raidmap
raid
p2292
(dp2293
g6
I13594
sg7
S'Romani'
p2294
sg9
I0
sg10
I192
sg11
I25
sg12
g13
sg14
S'dinamite'
p2295
sba(itravian_raidmap
raid
p2296
(dp2297
g6
I13998
sg7
S'Romani'
p2298
sg9
I0
sg10
I167
sg11
I63
sg12
g13
sg14
S'Ganja Lover'
p2299
sba(itravian_raidmap
raid
p2300
(dp2301
g6
I13594
sg7
S'Romani'
p2302
sg9
I0
sg10
I194
sg11
I26
sg12
g13
sg14
S'dinamite'
p2303
sba(itravian_raidmap
raid
p2304
(dp2305
g6
I18162
sg7
S'Teutoni'
p2306
sg9
I0
sg10
I186
sg11
I69
sg12
g13
sg14
S'S4RGON'
p2307
sba(itravian_raidmap
raid
p2308
(dp2309
g6
I18165
sg7
S'Teutoni'
p2310
sg9
I0
sg10
I189
sg11
I64
sg12
g13
sg14
S'S4RGON'
p2311
sba(itravian_raidmap
raid
p2312
(dp2313
g6
I18165
sg7
S'Teutoni'
p2314
sg9
I0
sg10
I184
sg11
I78
sg12
g13
sg14
S'S4RGON'
p2315
sba(itravian_raidmap
raid
p2316
(dp2317
g6
I13998
sg7
S'Romani'
p2318
sg9
I0
sg10
I182
sg11
I48
sg12
g13
sg14
S'Ganja Lover'
p2319
sba(itravian_raidmap
raid
p2320
(dp2321
g6
I18162
sg7
S'Teutoni'
p2322
sg9
I0
sg10
I195
sg11
I92
sg12
g13
sg14
S'S4RGON'
p2323
sba(itravian_raidmap
raid
p2324
(dp2325
g6
I9855
sg7
S'Galli'
p2326
sg9
I0
sg10
I232
sg11
I41
sg12
g13
sg14
S'gianox'
p2327
sba(itravian_raidmap
raid
p2328
(dp2329
g6
I13996
sg7
S'Romani'
p2330
sg9
I0
sg10
I186
sg11
I68
sg12
g13
sg14
S'Ganja Lover'
p2331
sba(itravian_raidmap
raid
p2332
(dp2333
g6
I18165
sg7
S'Teutoni'
p2334
sg9
I0
sg10
I215
sg11
I62
sg12
g13
sg14
S'S4RGON'
p2335
sba(itravian_raidmap
raid
p2336
(dp2337
g6
I18162
sg7
S'Teutoni'
p2338
sg9
I0
sg10
I207
sg11
I89
sg12
g13
sg14
S'S4RGON'
p2339
sba(itravian_raidmap
raid
p2340
(dp2341
g6
I9855
sg7
S'Galli'
p2342
sg9
I0
sg10
I245
sg11
I84
sg12
g13
sg14
S'gianox'
p2343
sba(itravian_raidmap
raid
p2344
(dp2345
g6
I9855
sg7
S'Galli'
p2346
sg9
I0
sg10
I251
sg11
I77
sg12
g13
sg14
S'gianox'
p2347
sba(itravian_raidmap
raid
p2348
(dp2349
g6
I9855
sg7
S'Galli'
p2350
sg9
I0
sg10
I264
sg11
I73
sg12
g13
sg14
S'gianox'
p2351
sba(itravian_raidmap
raid
p2352
(dp2353
g6
I12095
sg7
S'Galli'
p2354
sg9
I0
sg10
I198
sg11
I83
sg12
g13
sg14
S'Mighel'
p2355
sba(itravian_raidmap
raid
p2356
(dp2357
g6
I12095
sg7
S'Galli'
p2358
sg9
I0
sg10
I202
sg11
I77
sg12
g13
sg14
S'Mighel'
p2359
sba(itravian_raidmap
raid
p2360
(dp2361
g6
I12095
sg7
S'Galli'
p2362
sg9
I0
sg10
I202
sg11
I81
sg12
g13
sg14
S'Mighel'
p2363
sba(itravian_raidmap
raid
p2364
(dp2365
g6
I17015
sg7
S'Romani'
p2366
sg9
I0
sg10
I196
sg11
I36
sg12
g13
sg14
S'KiRaG'
p2367
sba(itravian_raidmap
raid
p2368
(dp2369
g6
I17015
sg7
S'Romani'
p2370
sg9
I0
sg10
I202
sg11
I29
sg12
g13
sg14
S'KiRaG'
p2371
sba(itravian_raidmap
raid
p2372
(dp2373
g6
I17015
sg7
S'Romani'
p2374
sg9
I0
sg10
I208
sg11
I28
sg12
g13
sg14
S'KiRaG'
p2375
sba(itravian_raidmap
raid
p2376
(dp2377
g6
I17015
sg7
S'Romani'
p2378
sg9
I0
sg10
I210
sg11
I24
sg12
g13
sg14
S'KiRaG'
p2379
sba(itravian_raidmap
raid
p2380
(dp2381
g6
I17015
sg7
S'Romani'
p2382
sg9
I0
sg10
I210
sg11
I30
sg12
g13
sg14
S'KiRaG'
p2383
sba(itravian_raidmap
raid
p2384
(dp2385
g6
I17015
sg7
S'Romani'
p2386
sg9
I0
sg10
I212
sg11
I30
sg12
g13
sg14
S'KiRaG'
p2387
sba(itravian_raidmap
raid
p2388
(dp2389
g6
I17015
sg7
S'Romani'
p2390
sg9
I0
sg10
I212
sg11
I32
sg12
g13
sg14
S'KiRaG'
p2391
sba(itravian_raidmap
raid
p2392
(dp2393
g6
I17015
sg7
S'Romani'
p2394
sg9
I0
sg10
I213
sg11
I26
sg12
g13
sg14
S'KiRaG'
p2395
sba(itravian_raidmap
raid
p2396
(dp2397
g6
I17015
sg7
S'Romani'
p2398
sg9
I0
sg10
I213
sg11
I30
sg12
g13
sg14
S'KiRaG'
p2399
sba(itravian_raidmap
raid
p2400
(dp2401
g6
I17015
sg7
S'Romani'
p2402
sg9
I0
sg10
I213
sg11
I32
sg12
g13
sg14
S'KiRaG'
p2403
sba(itravian_raidmap
raid
p2404
(dp2405
g6
I17015
sg7
S'Romani'
p2406
sg9
I0
sg10
I213
sg11
I33
sg12
g13
sg14
S'KiRaG'
p2407
sba(itravian_raidmap
raid
p2408
(dp2409
g6
I17015
sg7
S'Romani'
p2410
sg9
I0
sg10
I214
sg11
I31
sg12
g13
sg14
S'KiRaG'
p2411
sba(itravian_raidmap
raid
p2412
(dp2413
g6
I17015
sg7
S'Romani'
p2414
sg9
I0
sg10
I218
sg11
I39
sg12
g13
sg14
S'KiRaG'
p2415
sba(itravian_raidmap
raid
p2416
(dp2417
g6
I17015
sg7
S'Romani'
p2418
sg9
I0
sg10
I229
sg11
I34
sg12
g13
sg14
S'KiRaG'
p2419
sba(itravian_raidmap
raid
p2420
(dp2421
g6
I24277
sg7
S'Teutoni'
p2422
sg9
I0
sg10
I161
sg11
I67
sg12
g13
sg14
S'mezzodestro'
p2423
sba(itravian_raidmap
raid
p2424
(dp2425
g6
I24277
sg7
S'Teutoni'
p2426
sg9
I0
sg10
I167
sg11
I53
sg12
g13
sg14
S'mezzodestro'
p2427
sba(itravian_raidmap
raid
p2428
(dp2429
g6
I24277
sg7
S'Teutoni'
p2430
sg9
I0
sg10
I168
sg11
I53
sg12
g13
sg14
S'mezzodestro'
p2431
sba(itravian_raidmap
raid
p2432
(dp2433
g6
I24277
sg7
S'Teutoni'
p2434
sg9
I0
sg10
I161
sg11
I73
sg12
g13
sg14
S'mezzodestro'
p2435
sba(itravian_raidmap
raid
p2436
(dp2437
g6
I24277
sg7
S'Teutoni'
p2438
sg9
I0
sg10
I173
sg11
I48
sg12
g13
sg14
S'mezzodestro'
p2439
sba(itravian_raidmap
raid
p2440
(dp2441
g6
I24277
sg7
S'Teutoni'
p2442
sg9
I0
sg10
I166
sg11
I72
sg12
g13
sg14
S'mezzodestro'
p2443
sba(itravian_raidmap
raid
p2444
(dp2445
g6
I24277
sg7
S'Teutoni'
p2446
sg9
I0
sg10
I179
sg11
I43
sg12
g13
sg14
S'mezzodestro'
p2447
sba(itravian_raidmap
raid
p2448
(dp2449
g6
I24277
sg7
S'Teutoni'
p2450
sg9
I0
sg10
I185
sg11
I50
sg12
g13
sg14
S'mezzodestro'
p2451
sba(itravian_raidmap
raid
p2452
(dp2453
g6
I24277
sg7
S'Teutoni'
p2454
sg9
I0
sg10
I191
sg11
I71
sg12
g13
sg14
S'mezzodestro'
p2455
sba(itravian_raidmap
raid
p2456
(dp2457
g6
I24277
sg7
S'Teutoni'
p2458
sg9
I0
sg10
I197
sg11
I69
sg12
g13
sg14
S'mezzodestro'
p2459
sba(itravian_raidmap
raid
p2460
(dp2461
g6
I24277
sg7
S'Teutoni'
p2462
sg9
I0
sg10
I206
sg11
I67
sg12
g13
sg14
S'mezzodestro'
p2463
sba(itravian_raidmap
raid
p2464
(dp2465
g6
I24277
sg7
S'Teutoni'
p2466
sg9
I0
sg10
I209
sg11
I89
sg12
g13
sg14
S'mezzodestro'
p2467
sba(itravian_raidmap
raid
p2468
(dp2469
g6
I15923
sg7
S'Galli'
p2470
sg9
I0
sg10
I171
sg11
I47
sg12
g13
sg14
S'Pitois'
p2471
sba(itravian_raidmap
raid
p2472
(dp2473
g6
I15923
sg7
S'Galli'
p2474
sg9
I0
sg10
I173
sg11
I51
sg12
g13
sg14
S'Pitois'
p2475
sba(itravian_raidmap
raid
p2476
(dp2477
g6
I15923
sg7
S'Galli'
p2478
sg9
I0
sg10
I175
sg11
I48
sg12
g13
sg14
S'Pitois'
p2479
sba(itravian_raidmap
raid
p2480
(dp2481
g6
I15921
sg7
S'Galli'
p2482
sg9
I0
sg10
I210
sg11
I89
sg12
g13
sg14
S'Pitois'
p2483
sba(itravian_raidmap
raid
p2484
(dp2485
g6
I29464
sg7
S'Teutoni'
p2486
sg9
I0
sg10
I158
sg11
I67
sg12
g13
sg14
S'damicabi'
p2487
sba(itravian_raidmap
raid
p2488
(dp2489
g6
I29464
sg7
S'Teutoni'
p2490
sg9
I0
sg10
I172
sg11
I64
sg12
g13
sg14
S'damicabi'
p2491
sba(itravian_raidmap
raid
p2492
(dp2493
g6
I29464
sg7
S'Teutoni'
p2494
sg9
I0
sg10
I174
sg11
I67
sg12
g13
sg14
S'damicabi'
p2495
sba(itravian_raidmap
raid
p2496
(dp2497
g6
I29464
sg7
S'Teutoni'
p2498
sg9
I0
sg10
I191
sg11
I37
sg12
g13
sg14
S'damicabi'
p2499
sba(itravian_raidmap
raid
p2500
(dp2501
g6
I29464
sg7
S'Teutoni'
p2502
sg9
I0
sg10
I192
sg11
I38
sg12
g13
sg14
S'damicabi'
p2503
sba(itravian_raidmap
raid
p2504
(dp2505
g6
I29464
sg7
S'Teutoni'
p2506
sg9
I0
sg10
I193
sg11
I35
sg12
g13
sg14
S'damicabi'
p2507
sba(itravian_raidmap
raid
p2508
(dp2509
g6
I29464
sg7
S'Teutoni'
p2510
sg9
I0
sg10
I193
sg11
I45
sg12
g13
sg14
S'damicabi'
p2511
sba(itravian_raidmap
raid
p2512
(dp2513
g6
I29464
sg7
S'Teutoni'
p2514
sg9
I0
sg10
I191
sg11
I54
sg12
g13
sg14
S'damicabi'
p2515
sba(itravian_raidmap
raid
p2516
(dp2517
g6
I29464
sg7
S'Teutoni'
p2518
sg9
I0
sg10
I196
sg11
I40
sg12
g13
sg14
S'damicabi'
p2519
sba(itravian_raidmap
raid
p2520
(dp2521
g6
I29464
sg7
S'Teutoni'
p2522
sg9
I0
sg10
I199
sg11
I25
sg12
g13
sg14
S'damicabi'
p2523
sba(itravian_raidmap
raid
p2524
(dp2525
g6
I29464
sg7
S'Teutoni'
p2526
sg9
I0
sg10
I192
sg11
I58
sg12
g13
sg14
S'damicabi'
p2527
sba(itravian_raidmap
raid
p2528
(dp2529
g6
I29464
sg7
S'Teutoni'
p2530
sg9
I0
sg10
I194
sg11
I56
sg12
g13
sg14
S'damicabi'
p2531
sba(itravian_raidmap
raid
p2532
(dp2533
g6
I29464
sg7
S'Teutoni'
p2534
sg9
I0
sg10
I199
sg11
I50
sg12
g13
sg14
S'damicabi'
p2535
sba(itravian_raidmap
raid
p2536
(dp2537
g6
I29464
sg7
S'Teutoni'
p2538
sg9
I0
sg10
I199
sg11
I51
sg12
g13
sg14
S'damicabi'
p2539
sba(itravian_raidmap
raid
p2540
(dp2541
g6
I29464
sg7
S'Teutoni'
p2542
sg9
I0
sg10
I201
sg11
I49
sg12
g13
sg14
S'damicabi'
p2543
sba(itravian_raidmap
raid
p2544
(dp2545
g6
I29464
sg7
S'Teutoni'
p2546
sg9
I0
sg10
I203
sg11
I50
sg12
g13
sg14
S'damicabi'
p2547
sba(itravian_raidmap
raid
p2548
(dp2549
g6
I29464
sg7
S'Teutoni'
p2550
sg9
I0
sg10
I197
sg11
I70
sg12
g13
sg14
S'damicabi'
p2551
sba(itravian_raidmap
raid
p2552
(dp2553
g6
I29464
sg7
S'Teutoni'
p2554
sg9
I0
sg10
I210
sg11
I42
sg12
g13
sg14
S'damicabi'
p2555
sba(itravian_raidmap
raid
p2556
(dp2557
g6
I29464
sg7
S'Teutoni'
p2558
sg9
I0
sg10
I212
sg11
I38
sg12
g13
sg14
S'damicabi'
p2559
sba(itravian_raidmap
raid
p2560
(dp2561
g6
I29464
sg7
S'Teutoni'
p2562
sg9
I0
sg10
I213
sg11
I38
sg12
g13
sg14
S'damicabi'
p2563
sba(itravian_raidmap
raid
p2564
(dp2565
g6
I29464
sg7
S'Teutoni'
p2566
sg9
I0
sg10
I207
sg11
I66
sg12
g13
sg14
S'damicabi'
p2567
sba(itravian_raidmap
raid
p2568
(dp2569
g6
I29464
sg7
S'Teutoni'
p2570
sg9
I0
sg10
I207
sg11
I67
sg12
g13
sg14
S'damicabi'
p2571
sba(itravian_raidmap
raid
p2572
(dp2573
g6
I29464
sg7
S'Teutoni'
p2574
sg9
I0
sg10
I207
sg11
I70
sg12
g13
sg14
S'damicabi'
p2575
sba(itravian_raidmap
raid
p2576
(dp2577
g6
I29464
sg7
S'Teutoni'
p2578
sg9
I0
sg10
I208
sg11
I70
sg12
g13
sg14
S'damicabi'
p2579
sba(itravian_raidmap
raid
p2580
(dp2581
g6
I29464
sg7
S'Teutoni'
p2582
sg9
I0
sg10
I207
sg11
I76
sg12
g13
sg14
S'damicabi'
p2583
sba(itravian_raidmap
raid
p2584
(dp2585
g6
I29464
sg7
S'Teutoni'
p2586
sg9
I0
sg10
I210
sg11
I69
sg12
g13
sg14
S'damicabi'
p2587
sba(itravian_raidmap
raid
p2588
(dp2589
g6
I29464
sg7
S'Teutoni'
p2590
sg9
I0
sg10
I208
sg11
I76
sg12
g13
sg14
S'damicabi'
p2591
sba(itravian_raidmap
raid
p2592
(dp2593
g6
I29464
sg7
S'Teutoni'
p2594
sg9
I0
sg10
I208
sg11
I77
sg12
g13
sg14
S'damicabi'
p2595
sba(itravian_raidmap
raid
p2596
(dp2597
g6
I29464
sg7
S'Teutoni'
p2598
sg9
I0
sg10
I210
sg11
I75
sg12
g13
sg14
S'damicabi'
p2599
sba(itravian_raidmap
raid
p2600
(dp2601
g6
I29464
sg7
S'Teutoni'
p2602
sg9
I0
sg10
I214
sg11
I65
sg12
g13
sg14
S'damicabi'
p2603
sba(itravian_raidmap
raid
p2604
(dp2605
g6
I29464
sg7
S'Teutoni'
p2606
sg9
I0
sg10
I218
sg11
I57
sg12
g13
sg14
S'damicabi'
p2607
sba(itravian_raidmap
raid
p2608
(dp2609
g6
I29464
sg7
S'Teutoni'
p2610
sg9
I0
sg10
I208
sg11
I89
sg12
g13
sg14
S'damicabi'
p2611
sba(itravian_raidmap
raid
p2612
(dp2613
g6
I29464
sg7
S'Teutoni'
p2614
sg9
I0
sg10
I230
sg11
I42
sg12
g13
sg14
S'damicabi'
p2615
sba(itravian_raidmap
raid
p2616
(dp2617
g6
I26690
sg7
S'Romani'
p2618
sg9
I0
sg10
I179
sg11
I78
sg12
g13
sg14
S'durbans2'
p2619
sbasb.