(itravian_raidmap
raidlist
p0
(dp1
S'raids'
p2
(lp3
(itravian_raidmap
raid
p4
(dp5
S'popolazione'
p6
I524
sS'tribu'
p7
S'Teutoni'
p8
sS'done'
p9
I0
sS'yp'
p10
I154
sS'xp'
p11
I77
sS'id'
p12
S''
p13
sS'giocatore'
p14
S'SIOBAN'
p15
sba(itravian_raidmap
raid
p16
(dp17
g6
I437
sg7
S'Teutoni'
p18
sg9
I0
sg10
I179
sg11
I86
sg12
g13
sg14
S'merryterry'
p19
sba(itravian_raidmap
raid
p20
(dp21
g6
I513
sg7
S'Teutoni'
p22
sg9
I0
sg10
I193
sg11
I46
sg12
g13
sg14
S'giangi81'
p23
sba(itravian_raidmap
raid
p24
(dp25
g6
I513
sg7
S'Teutoni'
p26
sg9
I0
sg10
I194
sg11
I45
sg12
g13
sg14
S'giangi81'
p27
sba(itravian_raidmap
raid
p28
(dp29
g6
I513
sg7
S'Teutoni'
p30
sg9
I0
sg10
I195
sg11
I46
sg12
g13
sg14
S'giangi81'
p31
sba(itravian_raidmap
raid
p32
(dp33
g6
I260
sg7
S'Romani'
p34
sg9
I0
sg10
I149
sg11
I79
sg12
g13
sg14
S'skyzzoh'
p35
sba(itravian_raidmap
raid
p36
(dp37
g6
I218
sg7
S'Teutoni'
p38
sg9
I0
sg10
I186
sg11
I114
sg12
g13
sg14
S'Robertos82'
p39
sba(itravian_raidmap
raid
p40
(dp41
g6
I316
sg7
S'Teutoni'
p42
sg9
I0
sg10
I193
sg11
I113
sg12
g13
sg14
S'Rum'
p43
sba(itravian_raidmap
raid
p44
(dp45
g6
I183
sg7
S'Romani'
p46
sg9
I0
sg10
I166
sg11
I78
sg12
g13
sg14
S'Linneo78'
p47
sba(itravian_raidmap
raid
p48
(dp49
g6
I419
sg7
S'Romani'
p50
sg9
I0
sg10
I165
sg11
I56
sg12
g13
sg14
S'sailor3'
p51
sba(itravian_raidmap
raid
p52
(dp53
g6
I619
sg7
S'Romani'
p54
sg9
I0
sg10
I158
sg11
I73
sg12
g13
sg14
S'stella3'
p55
sba(itravian_raidmap
raid
p56
(dp57
g6
I365
sg7
S'Teutoni'
p58
sg9
I0
sg10
I232
sg11
I51
sg12
g13
sg14
S'wytone'
p59
sba(itravian_raidmap
raid
p60
(dp61
g6
I419
sg7
S'Romani'
p62
sg9
I0
sg10
I179
sg11
I47
sg12
g13
sg14
S'sam92'
p63
sba(itravian_raidmap
raid
p64
(dp65
g6
I263
sg7
S'Romani'
p66
sg9
I0
sg10
I189
sg11
I34
sg12
g13
sg14
S'walleygator'
p67
sba(itravian_raidmap
raid
p68
(dp69
g6
I273
sg7
S'Romani'
p70
sg9
I0
sg10
I190
sg11
I29
sg12
g13
sg14
S'peppus'
p71
sba(itravian_raidmap
raid
p72
(dp73
g6
I263
sg7
S'Romani'
p74
sg9
I0
sg10
I191
sg11
I35
sg12
g13
sg14
S'walleygator'
p75
sba(itravian_raidmap
raid
p76
(dp77
g6
I500
sg7
S'Romani'
p78
sg9
I0
sg10
I168
sg11
I77
sg12
g13
sg14
S'Talitha'
p79
sba(itravian_raidmap
raid
p80
(dp81
g6
I376
sg7
S'Romani'
p82
sg9
I0
sg10
I186
sg11
I46
sg12
g13
sg14
S'cavalli'
p83
sba(itravian_raidmap
raid
p84
(dp85
g6
I194
sg7
S'Teutoni'
p86
sg9
I0
sg10
I216
sg11
I127
sg12
g13
sg14
S'came-barca'
p87
sba(itravian_raidmap
raid
p88
(dp89
g6
I616
sg7
S'Romani'
p90
sg9
I0
sg10
I180
sg11
I49
sg12
g13
sg14
S'brunda'
p91
sba(itravian_raidmap
raid
p92
(dp93
g6
I141
sg7
S'Teutoni'
p94
sg9
I0
sg10
I249
sg11
I75
sg12
g13
sg14
S'dragonlegend'
p95
sba(itravian_raidmap
raid
p96
(dp97
g6
I154
sg7
S'Teutoni'
p98
sg9
I0
sg10
I256
sg11
I56
sg12
g13
sg14
S'dadolandia'
p99
sba(itravian_raidmap
raid
p100
(dp101
g6
I135
sg7
S'Romani'
p102
sg9
I0
sg10
I205
sg11
I42
sg12
g13
sg14
S'cynthia90'
p103
sba(itravian_raidmap
raid
p104
(dp105
g6
I294
sg7
S'Romani'
p106
sg9
I0
sg10
I179
sg11
I96
sg12
g13
sg14
S'Catello Salerno'
p107
sba(itravian_raidmap
raid
p108
(dp109
g6
I563
sg7
S'Romani'
p110
sg9
I0
sg10
I176
sg11
I79
sg12
g13
sg14
S'ZAPOTEC'
p111
sba(itravian_raidmap
raid
p112
(dp113
g6
I530
sg7
S'Romani'
p114
sg9
I0
sg10
I179
sg11
I79
sg12
g13
sg14
S'conquistadoras'
p115
sba(itravian_raidmap
raid
p116
(dp117
g6
I255
sg7
S'Teutoni'
p118
sg9
I0
sg10
I256
sg11
I71
sg12
g13
sg14
S'totos89'
p119
sba(itravian_raidmap
raid
p120
(dp121
g6
I219
sg7
S'Teutoni'
p122
sg9
I0
sg10
I257
sg11
I82
sg12
g13
sg14
S'kay2000'
p123
sba(itravian_raidmap
raid
p124
(dp125
g6
I202
sg7
S'Romani'
p126
sg9
I0
sg10
I215
sg11
I16
sg12
g13
sg14
S'giulio00'
p127
sba(itravian_raidmap
raid
p128
(dp129
g6
I146
sg7
S'Romani'
p130
sg9
I0
sg10
I202
sg11
I85
sg12
g13
sg14
S'duro17'
p131
sba(itravian_raidmap
raid
p132
(dp133
g6
I734
sg7
S'Teutoni'
p134
sg9
I0
sg10
I242
sg11
I70
sg12
g13
sg14
S'dbshad87'
p135
sba(itravian_raidmap
raid
p136
(dp137
g6
I664
sg7
S'Teutoni'
p138
sg9
I0
sg10
I252
sg11
I52
sg12
g13
sg14
S'cri versus'
p139
sba(itravian_raidmap
raid
p140
(dp141
g6
I664
sg7
S'Teutoni'
p142
sg9
I0
sg10
I252
sg11
I54
sg12
g13
sg14
S'cri versus'
p143
sba(itravian_raidmap
raid
p144
(dp145
g6
I704
sg7
S'Teutoni'
p146
sg9
I0
sg10
I252
sg11
I53
sg12
g13
sg14
S'Mikno'
p147
sba(itravian_raidmap
raid
p148
(dp149
g6
I666
sg7
S'Romani'
p150
sg9
I0
sg10
I182
sg11
I90
sg12
g13
sg14
S'fabio 7'
p151
sba(itravian_raidmap
raid
p152
(dp153
g6
I666
sg7
S'Romani'
p154
sg9
I0
sg10
I183
sg11
I89
sg12
g13
sg14
S'fabio 7'
p155
sba(itravian_raidmap
raid
p156
(dp157
g6
I324
sg7
S'Romani'
p158
sg9
I0
sg10
I192
sg11
I102
sg12
g13
sg14
S'asataram'
p159
sba(itravian_raidmap
raid
p160
(dp161
g6
I678
sg7
S'Teutoni'
p162
sg9
I0
sg10
I250
sg11
I79
sg12
g13
sg14
S'LETHAL'
p163
sba(itravian_raidmap
raid
p164
(dp165
g6
I2763
sg7
S'Teutoni'
p166
sg9
I0
sg10
I163
sg11
I74
sg12
g13
sg14
S'X-MAS'
p167
sba(itravian_raidmap
raid
p168
(dp169
g6
I560
sg7
S'Teutoni'
p170
sg9
I0
sg10
I264
sg11
I61
sg12
g13
sg14
S'papa69'
p171
sba(itravian_raidmap
raid
p172
(dp173
g6
I378
sg7
S'Romani'
p174
sg9
I0
sg10
I197
sg11
I98
sg12
g13
sg14
S'tino79'
p175
sba(itravian_raidmap
raid
p176
(dp177
g6
I781
sg7
S'Teutoni'
p178
sg9
I0
sg10
I251
sg11
I89
sg12
g13
sg14
S'maialaina'
p179
sba(itravian_raidmap
raid
p180
(dp181
g6
I382
sg7
S'Romani'
p182
sg9
I0
sg10
I219
sg11
I43
sg12
g13
sg14
S'Navao'
p183
sba(itravian_raidmap
raid
p184
(dp185
g6
I283
sg7
S'Romani'
p186
sg9
I0
sg10
I220
sg11
I67
sg12
g13
sg14
S'sentinela'
p187
sba(itravian_raidmap
raid
p188
(dp189
g6
I619
sg7
S'Romani'
p190
sg9
I0
sg10
I217
sg11
I14
sg12
g13
sg14
S'drago13'
p191
sba(itravian_raidmap
raid
p192
(dp193
g6
I980
sg7
S'Teutoni'
p194
sg9
I0
sg10
I248
sg11
I91
sg12
g13
sg14
S'animale'
p195
sba(itravian_raidmap
raid
p196
(dp197
g6
I619
sg7
S'Romani'
p198
sg9
I0
sg10
I218
sg11
I13
sg12
g13
sg14
S'drago13'
p199
sba(itravian_raidmap
raid
p200
(dp201
g6
I980
sg7
S'Teutoni'
p202
sg9
I0
sg10
I249
sg11
I90
sg12
g13
sg14
S'animale'
p203
sba(itravian_raidmap
raid
p204
(dp205
g6
I980
sg7
S'Teutoni'
p206
sg9
I0
sg10
I249
sg11
I91
sg12
g13
sg14
S'animale'
p207
sba(itravian_raidmap
raid
p208
(dp209
g6
I176
sg7
S'Romani'
p210
sg9
I0
sg10
I218
sg11
I92
sg12
g13
sg14
S'back8'
p211
sba(itravian_raidmap
raid
p212
(dp213
g6
I276
sg7
S'Galli'
p214
sg9
I0
sg10
I185
sg11
I57
sg12
g13
sg14
S'Milito95'
p215
sba(itravian_raidmap
raid
p216
(dp217
g6
I384
sg7
S'Romani'
p218
sg9
I0
sg10
I225
sg11
I54
sg12
g13
sg14
S'devil.92'
p219
sba(itravian_raidmap
raid
p220
(dp221
g6
I1610
sg7
S'Teutoni'
p222
sg9
I0
sg10
I206
sg11
I131
sg12
g13
sg14
S'daluk95'
p223
sba(itravian_raidmap
raid
p224
(dp225
g6
I583
sg7
S'Romani'
p226
sg9
I0
sg10
I223
sg11
I23
sg12
g13
sg14
S'Lo Zoppo'
p227
sba(itravian_raidmap
raid
p228
(dp229
g6
I1507
sg7
S'Teutoni'
p230
sg9
I0
sg10
I239
sg11
I74
sg12
g13
sg14
S'Trobox'
p231
sba(itravian_raidmap
raid
p232
(dp233
g6
I133
sg7
S'Galli'
p234
sg9
I0
sg10
I179
sg11
I94
sg12
g13
sg14
S'framics'
p235
sba(itravian_raidmap
raid
p236
(dp237
g6
I2012
sg7
S'Teutoni'
p238
sg9
I0
sg10
I213
sg11
I90
sg12
g13
sg14
S'Gandalfilbianco'
p239
sba(itravian_raidmap
raid
p240
(dp241
g6
I552
sg7
S'Romani'
p242
sg9
I0
sg10
I211
sg11
I85
sg12
g13
sg14
S'melalomu'
p243
sba(itravian_raidmap
raid
p244
(dp245
g6
I1610
sg7
S'Teutoni'
p246
sg9
I0
sg10
I238
sg11
I77
sg12
g13
sg14
S'daluk95'
p247
sba(itravian_raidmap
raid
p248
(dp249
g6
I296
sg7
S'Romani'
p250
sg9
I0
sg10
I231
sg11
I65
sg12
g13
sg14
S'giggio 182'
p251
sba(itravian_raidmap
raid
p252
(dp253
g6
I1610
sg7
S'Teutoni'
p254
sg9
I0
sg10
I239
sg11
I76
sg12
g13
sg14
S'daluk95'
p255
sba(itravian_raidmap
raid
p256
(dp257
g6
I291
sg7
S'Romani'
p258
sg9
I0
sg10
I226
sg11
I83
sg12
g13
sg14
S'ld1981'
p259
sba(itravian_raidmap
raid
p260
(dp261
g6
I391
sg7
S'Romani'
p262
sg9
I0
sg10
I212
sg11
I109
sg12
g13
sg14
S'falco-arturo'
p263
sba(itravian_raidmap
raid
p264
(dp265
g6
I285
sg7
S'Romani'
p266
sg9
I0
sg10
I221
sg11
I103
sg12
g13
sg14
S'ALE1993'
p267
sba(itravian_raidmap
raid
p268
(dp269
g6
I1626
sg7
S'Teutoni'
p270
sg9
I0
sg10
I245
sg11
I68
sg12
g13
sg14
S'ronzino'
p271
sba(itravian_raidmap
raid
p272
(dp273
g6
I1626
sg7
S'Teutoni'
p274
sg9
I0
sg10
I246
sg11
I68
sg12
g13
sg14
S'ronzino'
p275
sba(itravian_raidmap
raid
p276
(dp277
g6
I1626
sg7
S'Teutoni'
p278
sg9
I0
sg10
I246
sg11
I69
sg12
g13
sg14
S'ronzino'
p279
sba(itravian_raidmap
raid
p280
(dp281
g6
I861
sg7
S'Romani'
p282
sg9
I0
sg10
I217
sg11
I49
sg12
g13
sg14
S'Cpt.Gaz96'
p283
sba(itravian_raidmap
raid
p284
(dp285
g6
I861
sg7
S'Romani'
p286
sg9
I0
sg10
I217
sg11
I50
sg12
g13
sg14
S'Cpt.Gaz96'
p287
sba(itravian_raidmap
raid
p288
(dp289
g6
I540
sg7
S'Romani'
p290
sg9
I0
sg10
I234
sg11
I37
sg12
g13
sg14
S'debug'
p291
sba(itravian_raidmap
raid
p292
(dp293
g6
I152
sg7
S'Romani'
p294
sg9
I0
sg10
I222
sg11
I121
sg12
g13
sg14
S'FURE'
p295
sba(itravian_raidmap
raid
p296
(dp297
g6
I1982
sg7
S'Teutoni'
p298
sg9
I0
sg10
I219
sg11
I112
sg12
g13
sg14
S'dinos'
p299
sba(itravian_raidmap
raid
p300
(dp301
g6
I1116
sg7
S'Romani'
p302
sg9
I0
sg10
I199
sg11
I86
sg12
g13
sg14
S'BlackWolf90'
p303
sba(itravian_raidmap
raid
p304
(dp305
g6
I338
sg7
S'Galli'
p306
sg9
I0
sg10
I201
sg11
I38
sg12
g13
sg14
S'pracca'
p307
sba(itravian_raidmap
raid
p308
(dp309
g6
I309
sg7
S'Romani'
p310
sg9
I0
sg10
I237
sg11
I78
sg12
g13
sg14
S'Cpra Tibetana'
p311
sba(itravian_raidmap
raid
p312
(dp313
g6
I1982
sg7
S'Teutoni'
p314
sg9
I0
sg10
I215
sg11
I124
sg12
g13
sg14
S'dinos'
p315
sba(itravian_raidmap
raid
p316
(dp317
g6
I456
sg7
S'Romani'
p318
sg9
I0
sg10
I231
sg11
I78
sg12
g13
sg14
S'dagobert'
p319
sba(itravian_raidmap
raid
p320
(dp321
g6
I282
sg7
S'Romani'
p322
sg9
I0
sg10
I217
sg11
I126
sg12
g13
sg14
S'fil94'
p323
sba(itravian_raidmap
raid
p324
(dp325
g6
I1982
sg7
S'Teutoni'
p326
sg9
I0
sg10
I221
sg11
I114
sg12
g13
sg14
S'dinos'
p327
sba(itravian_raidmap
raid
p328
(dp329
g6
I1982
sg7
S'Teutoni'
p330
sg9
I0
sg10
I223
sg11
I111
sg12
g13
sg14
S'dinos'
p331
sba(itravian_raidmap
raid
p332
(dp333
g6
I1982
sg7
S'Teutoni'
p334
sg9
I0
sg10
I223
sg11
I112
sg12
g13
sg14
S'dinos'
p335
sba(itravian_raidmap
raid
p336
(dp337
g6
I1626
sg7
S'Teutoni'
p338
sg9
I0
sg10
I255
sg11
I71
sg12
g13
sg14
S'ronzino'
p339
sba(itravian_raidmap
raid
p340
(dp341
g6
I454
sg7
S'Romani'
p342
sg9
I0
sg10
I238
sg11
I64
sg12
g13
sg14
S'morris1208'
p343
sba(itravian_raidmap
raid
p344
(dp345
g6
I433
sg7
S'Galli'
p346
sg9
I0
sg10
I204
sg11
I22
sg12
g13
sg14
S'Fabrizio1970'
p347
sba(itravian_raidmap
raid
p348
(dp349
g6
I632
sg7
S'Romani'
p350
sg9
I0
sg10
I210
sg11
I123
sg12
g13
sg14
S'giuser'
p351
sba(itravian_raidmap
raid
p352
(dp353
g6
I367
sg7
S'Romani'
p354
sg9
I0
sg10
I241
sg11
I82
sg12
g13
sg14
S'Memento mori'
p355
sba(itravian_raidmap
raid
p356
(dp357
g6
I900
sg7
S'Romani'
p358
sg9
I0
sg10
I218
sg11
I87
sg12
g13
sg14
S'Nakan'
p359
sba(itravian_raidmap
raid
p360
(dp361
g6
I806
sg7
S'Romani'
p362
sg9
I0
sg10
I218
sg11
I97
sg12
g13
sg14
S'josh4'
p363
sba(itravian_raidmap
raid
p364
(dp365
g6
I714
sg7
S'Galli'
p366
sg9
I0
sg10
I177
sg11
I87
sg12
g13
sg14
S'Cinghialot'
p367
sba(itravian_raidmap
raid
p368
(dp369
g6
I320
sg7
S'Romani'
p370
sg9
I0
sg10
I246
sg11
I79
sg12
g13
sg14
S'ste97'
p371
sba(itravian_raidmap
raid
p372
(dp373
g6
I294
sg7
S'Romani'
p374
sg9
I0
sg10
I254
sg11
I53
sg12
g13
sg14
S'Brad Pitt'
p375
sba(itravian_raidmap
raid
p376
(dp377
g6
I900
sg7
S'Romani'
p378
sg9
I0
sg10
I218
sg11
I89
sg12
g13
sg14
S'Nakan'
p379
sba(itravian_raidmap
raid
p380
(dp381
g6
I679
sg7
S'Romani'
p382
sg9
I0
sg10
I221
sg11
I105
sg12
g13
sg14
S'angels'
p383
sba(itravian_raidmap
raid
p384
(dp385
g6
I798
sg7
S'Romani'
p386
sg9
I0
sg10
I212
sg11
I114
sg12
g13
sg14
S'robyriccio'
p387
sba(itravian_raidmap
raid
p388
(dp389
g6
I923
sg7
S'Romani'
p390
sg9
I0
sg10
I203
sg11
I120
sg12
g13
sg14
S'pato94'
p391
sba(itravian_raidmap
raid
p392
(dp393
g6
I798
sg7
S'Romani'
p394
sg9
I0
sg10
I212
sg11
I115
sg12
g13
sg14
S'robyriccio'
p395
sba(itravian_raidmap
raid
p396
(dp397
g6
I516
sg7
S'Romani'
p398
sg9
I0
sg10
I237
sg11
I87
sg12
g13
sg14
S'shaunwhite'
p399
sba(itravian_raidmap
raid
p400
(dp401
g6
I923
sg7
S'Romani'
p402
sg9
I0
sg10
I203
sg11
I121
sg12
g13
sg14
S'pato94'
p403
sba(itravian_raidmap
raid
p404
(dp405
g6
I404
sg7
S'Romani'
p406
sg9
I0
sg10
I249
sg11
I64
sg12
g13
sg14
S'lem210572'
p407
sba(itravian_raidmap
raid
p408
(dp409
g6
I516
sg7
S'Romani'
p410
sg9
I0
sg10
I235
sg11
I93
sg12
g13
sg14
S'shaunwhite'
p411
sba(itravian_raidmap
raid
p412
(dp413
g6
I1469
sg7
S'Romani'
p414
sg9
I0
sg10
I196
sg11
I88
sg12
g13
sg14
S'voyage'
p415
sba(itravian_raidmap
raid
p416
(dp417
g6
I133
sg7
S'Galli'
p418
sg9
I0
sg10
I215
sg11
I59
sg12
g13
sg14
S'el bres\xc3\xa0'
p419
sba(itravian_raidmap
raid
p420
(dp421
g6
I632
sg7
S'Romani'
p422
sg9
I0
sg10
I237
sg11
I77
sg12
g13
sg14
S'giuser'
p423
sba(itravian_raidmap
raid
p424
(dp425
g6
I1469
sg7
S'Romani'
p426
sg9
I0
sg10
I197
sg11
I88
sg12
g13
sg14
S'voyage'
p427
sba(itravian_raidmap
raid
p428
(dp429
g6
I1469
sg7
S'Romani'
p430
sg9
I0
sg10
I197
sg11
I89
sg12
g13
sg14
S'voyage'
p431
sba(itravian_raidmap
raid
p432
(dp433
g6
I399
sg7
S'Romani'
p434
sg9
I0
sg10
I251
sg11
I65
sg12
g13
sg14
S'nik.vr'
p435
sba(itravian_raidmap
raid
p436
(dp437
g6
I296
sg7
S'Romani'
p438
sg9
I0
sg10
I256
sg11
I65
sg12
g13
sg14
S'iperforce96'
p439
sba(itravian_raidmap
raid
p440
(dp441
g6
I156
sg7
S'Galli'
p442
sg9
I0
sg10
I216
sg11
I60
sg12
g13
sg14
S'leonard97'
p443
sba(itravian_raidmap
raid
p444
(dp445
g6
I875
sg7
S'Galli'
p446
sg9
I0
sg10
I192
sg11
I37
sg12
g13
sg14
S'igor79'
p447
sba(itravian_raidmap
raid
p448
(dp449
g6
I286
sg7
S'Romani'
p450
sg9
I0
sg10
I259
sg11
I59
sg12
g13
sg14
S'gilorum'
p451
sba(itravian_raidmap
raid
p452
(dp453
g6
I332
sg7
S'Romani'
p454
sg9
I0
sg10
I254
sg11
I72
sg12
g13
sg14
S'Innuendo'
p455
sba(itravian_raidmap
raid
p456
(dp457
g6
I689
sg7
S'Romani'
p458
sg9
I0
sg10
I228
sg11
I103
sg12
g13
sg14
S'pippo93'
p459
sba(itravian_raidmap
raid
p460
(dp461
g6
I689
sg7
S'Romani'
p462
sg9
I0
sg10
I229
sg11
I102
sg12
g13
sg14
S'pippo93'
p463
sba(itravian_raidmap
raid
p464
(dp465
g6
I258
sg7
S'Romani'
p466
sg9
I0
sg10
I260
sg11
I66
sg12
g13
sg14
S'libanese'
p467
sba(itravian_raidmap
raid
p468
(dp469
g6
I689
sg7
S'Romani'
p470
sg9
I0
sg10
I229
sg11
I103
sg12
g13
sg14
S'pippo93'
p471
sba(itravian_raidmap
raid
p472
(dp473
g6
I103
sg7
S'Romani'
p474
sg9
I0
sg10
I265
sg11
I75
sg12
g13
sg14
S'finzi'
p475
sba(itravian_raidmap
raid
p476
(dp477
g6
I412
sg7
S'Galli'
p478
sg9
I0
sg10
I201
sg11
I83
sg12
g13
sg14
S'peve'
p479
sba(itravian_raidmap
raid
p480
(dp481
g6
I428
sg7
S'Romani'
p482
sg9
I0
sg10
I254
sg11
I73
sg12
g13
sg14
S'scacco92'
p483
sba(itravian_raidmap
raid
p484
(dp485
g6
I757
sg7
S'Romani'
p486
sg9
I0
sg10
I248
sg11
I46
sg12
g13
sg14
S'Stardel'
p487
sba(itravian_raidmap
raid
p488
(dp489
g6
I268
sg7
S'Galli'
p490
sg9
I0
sg10
I192
sg11
I117
sg12
g13
sg14
S'Mrseat'
p491
sba(itravian_raidmap
raid
p492
(dp493
g6
I746
sg7
S'Romani'
p494
sg9
I0
sg10
I226
sg11
I114
sg12
g13
sg14
S'malto'
p495
sba(itravian_raidmap
raid
p496
(dp497
g6
I757
sg7
S'Romani'
p498
sg9
I0
sg10
I247
sg11
I54
sg12
g13
sg14
S'Stardel'
p499
sba(itravian_raidmap
raid
p500
(dp501
g6
I2747
sg7
S'Teutoni'
p502
sg9
I0
sg10
I205
sg11
I133
sg12
g13
sg14
S'cegiofox'
p503
sba(itravian_raidmap
raid
p504
(dp505
g6
I163
sg7
S'Galli'
p506
sg9
I0
sg10
I200
sg11
I113
sg12
g13
sg14
S'Soldo91'
p507
sba(itravian_raidmap
raid
p508
(dp509
g6
I2747
sg7
S'Teutoni'
p510
sg9
I0
sg10
I205
sg11
I134
sg12
g13
sg14
S'cegiofox'
p511
sba(itravian_raidmap
raid
p512
(dp513
g6
I142
sg7
S'Romani'
p514
sg9
I0
sg10
I267
sg11
I78
sg12
g13
sg14
S'matteo960'
p515
sba(itravian_raidmap
raid
p516
(dp517
g6
I746
sg7
S'Romani'
p518
sg9
I0
sg10
I228
sg11
I114
sg12
g13
sg14
S'malto'
p519
sba(itravian_raidmap
raid
p520
(dp521
g6
I142
sg7
S'Galli'
p522
sg9
I0
sg10
I229
sg11
I35
sg12
g13
sg14
S'giampiux'
p523
sba(itravian_raidmap
raid
p524
(dp525
g6
I352
sg7
S'Romani'
p526
sg9
I0
sg10
I264
sg11
I64
sg12
g13
sg14
S'fabio ai\xc3\xb9'
p527
sba(itravian_raidmap
raid
p528
(dp529
g6
I429
sg7
S'Romani'
p530
sg9
I0
sg10
I258
sg11
I76
sg12
g13
sg14
S'simo90'
p531
sba(itravian_raidmap
raid
p532
(dp533
g6
I561
sg7
S'Galli'
p534
sg9
I0
sg10
I206
sg11
I66
sg12
g13
sg14
S'loli'
p535
sba(itravian_raidmap
raid
p536
(dp537
g6
I965
sg7
S'Romani'
p538
sg9
I0
sg10
I234
sg11
I85
sg12
g13
sg14
S'orebilacnip'
p539
sba(itravian_raidmap
raid
p540
(dp541
g6
I473
sg7
S'Galli'
p542
sg9
I0
sg10
I210
sg11
I68
sg12
g13
sg14
S'ivan77'
p543
sba(itravian_raidmap
raid
p544
(dp545
g6
I284
sg7
S'Galli'
p546
sg9
I0
sg10
I220
sg11
I61
sg12
g13
sg14
S'martinka'
p547
sba(itravian_raidmap
raid
p548
(dp549
g6
I965
sg7
S'Romani'
p550
sg9
I0
sg10
I235
sg11
I84
sg12
g13
sg14
S'orebilacnip'
p551
sba(itravian_raidmap
raid
p552
(dp553
g6
I1381
sg7
S'Romani'
p554
sg9
I0
sg10
I206
sg11
I109
sg12
g13
sg14
S'martocchia'
p555
sba(itravian_raidmap
raid
p556
(dp557
g6
I881
sg7
S'Romani'
p558
sg9
I0
sg10
I235
sg11
I98
sg12
g13
sg14
S'Moreland'
p559
sba(itravian_raidmap
raid
p560
(dp561
g6
I881
sg7
S'Romani'
p562
sg9
I0
sg10
I236
sg11
I98
sg12
g13
sg14
S'Moreland'
p563
sba(itravian_raidmap
raid
p564
(dp565
g6
I1381
sg7
S'Romani'
p566
sg9
I0
sg10
I210
sg11
I111
sg12
g13
sg14
S'martocchia'
p567
sba(itravian_raidmap
raid
p568
(dp569
g6
I2308
sg7
S'Romani'
p570
sg9
I0
sg10
I184
sg11
I86
sg12
g13
sg14
S'nefer'
p571
sba(itravian_raidmap
raid
p572
(dp573
g6
I3493
sg7
S'Romani'
p574
sg9
I0
sg10
I142
sg11
I72
sg12
g13
sg14
S'ce.se.re'
p575
sba(itravian_raidmap
raid
p576
(dp577
g6
I631
sg7
S'Romani'
p578
sg9
I0
sg10
I260
sg11
I86
sg12
g13
sg14
S'claudio 94'
p579
sba(itravian_raidmap
raid
p580
(dp581
g6
I1184
sg7
S'Romani'
p582
sg9
I0
sg10
I231
sg11
I101
sg12
g13
sg14
S'tommasino90'
p583
sba(itravian_raidmap
raid
p584
(dp585
g6
I3727
sg7
S'Teutoni'
p586
sg9
I0
sg10
I225
sg11
I19
sg12
g13
sg14
S'fabryolo'
p587
sba(itravian_raidmap
raid
p588
(dp589
g6
I1238
sg7
S'Romani'
p590
sg9
I0
sg10
I238
sg11
I78
sg12
g13
sg14
S'cris'
p591
sba(itravian_raidmap
raid
p592
(dp593
g6
I867
sg7
S'Romani'
p594
sg9
I0
sg10
I260
sg11
I56
sg12
g13
sg14
S'armix73'
p595
sba(itravian_raidmap
raid
p596
(dp597
g6
I1184
sg7
S'Romani'
p598
sg9
I0
sg10
I232
sg11
I102
sg12
g13
sg14
S'tommasino90'
p599
sba(itravian_raidmap
raid
p600
(dp601
g6
I1184
sg7
S'Romani'
p602
sg9
I0
sg10
I233
sg11
I101
sg12
g13
sg14
S'tommasino90'
p603
sba(itravian_raidmap
raid
p604
(dp605
g6
I1454
sg7
S'Romani'
p606
sg9
I0
sg10
I214
sg11
I116
sg12
g13
sg14
S'S.P.Q.R.'
p607
sba(itravian_raidmap
raid
p608
(dp609
g6
I1454
sg7
S'Romani'
p610
sg9
I0
sg10
I214
sg11
I117
sg12
g13
sg14
S'S.P.Q.R.'
p611
sba(itravian_raidmap
raid
p612
(dp613
g6
I912
sg7
S'Romani'
p614
sg9
I0
sg10
I252
sg11
I84
sg12
g13
sg14
S'ATtIlLa'
p615
sba(itravian_raidmap
raid
p616
(dp617
g6
I1495
sg7
S'Romani'
p618
sg9
I0
sg10
I220
sg11
I102
sg12
g13
sg14
S'Lupicino'
p619
sba(itravian_raidmap
raid
p620
(dp621
g6
I1454
sg7
S'Romani'
p622
sg9
I0
sg10
I215
sg11
I117
sg12
g13
sg14
S'S.P.Q.R.'
p623
sba(itravian_raidmap
raid
p624
(dp625
g6
I1454
sg7
S'Romani'
p626
sg9
I0
sg10
I215
sg11
I118
sg12
g13
sg14
S'S.P.Q.R.'
p627
sba(itravian_raidmap
raid
p628
(dp629
g6
I1284
sg7
S'Galli'
p630
sg9
I0
sg10
I185
sg11
I83
sg12
g13
sg14
S'mataral'
p631
sba(itravian_raidmap
raid
p632
(dp633
g6
I860
sg7
S'Romani'
p634
sg9
I0
sg10
I261
sg11
I72
sg12
g13
sg14
S'Merlino'
p635
sba(itravian_raidmap
raid
p636
(dp637
g6
I860
sg7
S'Romani'
p638
sg9
I0
sg10
I262
sg11
I73
sg12
g13
sg14
S'Merlino'
p639
sba(itravian_raidmap
raid
p640
(dp641
g6
I5087
sg7
S'Teutoni'
p642
sg9
I0
sg10
I169
sg11
I67
sg12
g13
sg14
S'russorusso'
p643
sba(itravian_raidmap
raid
p644
(dp645
g6
I122
sg7
S'Galli'
p646
sg9
I0
sg10
I227
sg11
I110
sg12
g13
sg14
S'sampei'
p647
sba(itravian_raidmap
raid
p648
(dp649
g6
I5316
sg7
S'Teutoni'
p650
sg9
I0
sg10
I155
sg11
I78
sg12
g13
sg14
S'Il_Figlioe'
p651
sba(itravian_raidmap
raid
p652
(dp653
g6
I5372
sg7
S'Teutoni'
p654
sg9
I0
sg10
I153
sg11
I77
sg12
g13
sg14
S'vanniii'
p655
sba(itravian_raidmap
raid
p656
(dp657
g6
I5316
sg7
S'Teutoni'
p658
sg9
I0
sg10
I156
sg11
I80
sg12
g13
sg14
S'Il_Figlioe'
p659
sba(itravian_raidmap
raid
p660
(dp661
g6
I443
sg7
S'Galli'
p662
sg9
I0
sg10
I228
sg11
I86
sg12
g13
sg14
S'bello 70'
p663
sba(itravian_raidmap
raid
p664
(dp665
g6
I5372
sg7
S'Teutoni'
p666
sg9
I0
sg10
I163
sg11
I71
sg12
g13
sg14
S'vanniii'
p667
sba(itravian_raidmap
raid
p668
(dp669
g6
I1042
sg7
S'Galli'
p670
sg9
I0
sg10
I209
sg11
I70
sg12
g13
sg14
S'havanavaride'
p671
sba(itravian_raidmap
raid
p672
(dp673
g6
I5372
sg7
S'Teutoni'
p674
sg9
I0
sg10
I164
sg11
I71
sg12
g13
sg14
S'vanniii'
p675
sba(itravian_raidmap
raid
p676
(dp677
g6
I591
sg7
S'Galli'
p678
sg9
I0
sg10
I213
sg11
I108
sg12
g13
sg14
S'luis2'
p679
sba(itravian_raidmap
raid
p680
(dp681
g6
I5372
sg7
S'Teutoni'
p682
sg9
I0
sg10
I164
sg11
I74
sg12
g13
sg14
S'vanniii'
p683
sba(itravian_raidmap
raid
p684
(dp685
g6
I1401
sg7
S'Romani'
p686
sg9
I0
sg10
I241
sg11
I99
sg12
g13
sg14
S'MetallicO'
p687
sba(itravian_raidmap
raid
p688
(dp689
g6
I1253
sg7
S'Romani'
p690
sg9
I0
sg10
I250
sg11
I93
sg12
g13
sg14
S'spigola'
p691
sba(itravian_raidmap
raid
p692
(dp693
g6
I1454
sg7
S'Romani'
p694
sg9
I0
sg10
I242
sg11
I92
sg12
g13
sg14
S'rosaross'
p695
sba(itravian_raidmap
raid
p696
(dp697
g6
I1401
sg7
S'Romani'
p698
sg9
I0
sg10
I241
sg11
I101
sg12
g13
sg14
S'MetallicO'
p699
sba(itravian_raidmap
raid
p700
(dp701
g6
I1253
sg7
S'Romani'
p702
sg9
I0
sg10
I251
sg11
I92
sg12
g13
sg14
S'spigola'
p703
sba(itravian_raidmap
raid
p704
(dp705
g6
I1454
sg7
S'Romani'
p706
sg9
I0
sg10
I243
sg11
I91
sg12
g13
sg14
S'rosaross'
p707
sba(itravian_raidmap
raid
p708
(dp709
g6
I3757
sg7
S'Teutoni'
p710
sg9
I0
sg10
I244
sg11
I39
sg12
g13
sg14
S'yiam'
p711
sba(itravian_raidmap
raid
p712
(dp713
g6
I1401
sg7
S'Romani'
p714
sg9
I0
sg10
I242
sg11
I101
sg12
g13
sg14
S'MetallicO'
p715
sba(itravian_raidmap
raid
p716
(dp717
g6
I1855
sg7
S'Romani'
p718
sg9
I0
sg10
I240
sg11
I60
sg12
g13
sg14
S'ziotom'
p719
sba(itravian_raidmap
raid
p720
(dp721
g6
I1855
sg7
S'Romani'
p722
sg9
I0
sg10
I240
sg11
I62
sg12
g13
sg14
S'ziotom'
p723
sba(itravian_raidmap
raid
p724
(dp725
g6
I1454
sg7
S'Romani'
p726
sg9
I0
sg10
I247
sg11
I93
sg12
g13
sg14
S'rosaross'
p727
sba(itravian_raidmap
raid
p728
(dp729
g6
I1999
sg7
S'Romani'
p730
sg9
I0
sg10
I212
sg11
I118
sg12
g13
sg14
S'Leo4'
p731
sba(itravian_raidmap
raid
p732
(dp733
g6
I1855
sg7
S'Romani'
p734
sg9
I0
sg10
I241
sg11
I61
sg12
g13
sg14
S'ziotom'
p735
sba(itravian_raidmap
raid
p736
(dp737
g6
I1999
sg7
S'Romani'
p738
sg9
I0
sg10
I213
sg11
I117
sg12
g13
sg14
S'Leo4'
p739
sba(itravian_raidmap
raid
p740
(dp741
g6
I1855
sg7
S'Romani'
p742
sg9
I0
sg10
I241
sg11
I62
sg12
g13
sg14
S'ziotom'
p743
sba(itravian_raidmap
raid
p744
(dp745
g6
I1328
sg7
S'Romani'
p746
sg9
I0
sg10
I262
sg11
I65
sg12
g13
sg14
S'fathom'
p747
sba(itravian_raidmap
raid
p748
(dp749
g6
I1328
sg7
S'Romani'
p750
sg9
I0
sg10
I264
sg11
I60
sg12
g13
sg14
S'fathom'
p751
sba(itravian_raidmap
raid
p752
(dp753
g6
I5555
sg7
S'Teutoni'
p754
sg9
I0
sg10
I172
sg11
I63
sg12
g13
sg14
S'Black Sun'
p755
sba(itravian_raidmap
raid
p756
(dp757
g6
I5555
sg7
S'Teutoni'
p758
sg9
I0
sg10
I173
sg11
I63
sg12
g13
sg14
S'Black Sun'
p759
sba(itravian_raidmap
raid
p760
(dp761
g6
I1942
sg7
S'Romani'
p762
sg9
I0
sg10
I236
sg11
I76
sg12
g13
sg14
S'malusquo'
p763
sba(itravian_raidmap
raid
p764
(dp765
g6
I1928
sg7
S'Romani'
p766
sg9
I0
sg10
I237
sg11
I75
sg12
g13
sg14
S'frazena96'
p767
sba(itravian_raidmap
raid
p768
(dp769
g6
I3728
sg7
S'Romani'
p770
sg9
I0
sg10
I160
sg11
I75
sg12
g13
sg14
S'danyontheroad'
p771
sba(itravian_raidmap
raid
p772
(dp773
g6
I1373
sg7
S'Romani'
p774
sg9
I0
sg10
I263
sg11
I66
sg12
g13
sg14
S'Massy221986'
p775
sba(itravian_raidmap
raid
p776
(dp777
g6
I515
sg7
S'Galli'
p778
sg9
I0
sg10
I241
sg11
I71
sg12
g13
sg14
S'DEVILMAN'
p779
sba(itravian_raidmap
raid
p780
(dp781
g6
I1942
sg7
S'Romani'
p782
sg9
I0
sg10
I237
sg11
I76
sg12
g13
sg14
S'malusquo'
p783
sba(itravian_raidmap
raid
p784
(dp785
g6
I1373
sg7
S'Romani'
p786
sg9
I0
sg10
I264
sg11
I65
sg12
g13
sg14
S'Massy221986'
p787
sba(itravian_raidmap
raid
p788
(dp789
g6
I1402
sg7
S'Romani'
p790
sg9
I0
sg10
I259
sg11
I80
sg12
g13
sg14
S'allstar'
p791
sba(itravian_raidmap
raid
p792
(dp793
g6
I1942
sg7
S'Romani'
p794
sg9
I0
sg10
I238
sg11
I75
sg12
g13
sg14
S'malusquo'
p795
sba(itravian_raidmap
raid
p796
(dp797
g6
I5467
sg7
S'Teutoni'
p798
sg9
I0
sg10
I170
sg11
I86
sg12
g13
sg14
S'he-man'
p799
sba(itravian_raidmap
raid
p800
(dp801
g6
I1373
sg7
S'Romani'
p802
sg9
I0
sg10
I265
sg11
I64
sg12
g13
sg14
S'Massy221986'
p803
sba(itravian_raidmap
raid
p804
(dp805
g6
I1928
sg7
S'Romani'
p806
sg9
I0
sg10
I239
sg11
I75
sg12
g13
sg14
S'frazena96'
p807
sba(itravian_raidmap
raid
p808
(dp809
g6
I5467
sg7
S'Teutoni'
p810
sg9
I0
sg10
I173
sg11
I81
sg12
g13
sg14
S'he-man'
p811
sba(itravian_raidmap
raid
p812
(dp813
g6
I1373
sg7
S'Romani'
p814
sg9
I0
sg10
I265
sg11
I65
sg12
g13
sg14
S'Massy221986'
p815
sba(itravian_raidmap
raid
p816
(dp817
g6
I1402
sg7
S'Romani'
p818
sg9
I0
sg10
I260
sg11
I80
sg12
g13
sg14
S'allstar'
p819
sba(itravian_raidmap
raid
p820
(dp821
g6
I5467
sg7
S'Teutoni'
p822
sg9
I0
sg10
I173
sg11
I83
sg12
g13
sg14
S'he-man'
p823
sba(itravian_raidmap
raid
p824
(dp825
g6
I1928
sg7
S'Romani'
p826
sg9
I0
sg10
I240
sg11
I75
sg12
g13
sg14
S'frazena96'
p827
sba(itravian_raidmap
raid
p828
(dp829
g6
I1679
sg7
S'Romani'
p830
sg9
I0
sg10
I245
sg11
I92
sg12
g13
sg14
S'lino agostinis'
p831
sba(itravian_raidmap
raid
p832
(dp833
g6
I5330
sg7
S'Teutoni'
p834
sg9
I0
sg10
I183
sg11
I76
sg12
g13
sg14
S'pozzani'
p835
sba(itravian_raidmap
raid
p836
(dp837
g6
I1942
sg7
S'Romani'
p838
sg9
I0
sg10
I239
sg11
I78
sg12
g13
sg14
S'malusquo'
p839
sba(itravian_raidmap
raid
p840
(dp841
g6
I1679
sg7
S'Romani'
p842
sg9
I0
sg10
I245
sg11
I93
sg12
g13
sg14
S'lino agostinis'
p843
sba(itravian_raidmap
raid
p844
(dp845
g6
I1679
sg7
S'Romani'
p846
sg9
I0
sg10
I245
sg11
I94
sg12
g13
sg14
S'lino agostinis'
p847
sba(itravian_raidmap
raid
p848
(dp849
g6
I2303
sg7
S'Romani'
p850
sg9
I0
sg10
I220
sg11
I90
sg12
g13
sg14
S'wizard'
p851
sba(itravian_raidmap
raid
p852
(dp853
g6
I5330
sg7
S'Teutoni'
p854
sg9
I0
sg10
I185
sg11
I74
sg12
g13
sg14
S'pozzani'
p855
sba(itravian_raidmap
raid
p856
(dp857
g6
I1942
sg7
S'Romani'
p858
sg9
I0
sg10
I240
sg11
I82
sg12
g13
sg14
S'malusquo'
p859
sba(itravian_raidmap
raid
p860
(dp861
g6
I2189
sg7
S'Romani'
p862
sg9
I0
sg10
I239
sg11
I48
sg12
g13
sg14
S'keekeeno'
p863
sba(itravian_raidmap
raid
p864
(dp865
g6
I5467
sg7
S'Teutoni'
p866
sg9
I0
sg10
I175
sg11
I89
sg12
g13
sg14
S'he-man'
p867
sba(itravian_raidmap
raid
p868
(dp869
g6
I5323
sg7
S'Teutoni'
p870
sg9
I0
sg10
I194
sg11
I58
sg12
g13
sg14
S'seem_it'
p871
sba(itravian_raidmap
raid
p872
(dp873
g6
I2189
sg7
S'Romani'
p874
sg9
I0
sg10
I240
sg11
I50
sg12
g13
sg14
S'keekeeno'
p875
sba(itravian_raidmap
raid
p876
(dp877
g6
I5467
sg7
S'Teutoni'
p878
sg9
I0
sg10
I176
sg11
I89
sg12
g13
sg14
S'he-man'
p879
sba(itravian_raidmap
raid
p880
(dp881
g6
I5465
sg7
S'Teutoni'
p882
sg9
I0
sg10
I177
sg11
I88
sg12
g13
sg14
S'he-man'
p883
sba(itravian_raidmap
raid
p884
(dp885
g6
I5465
sg7
S'Teutoni'
p886
sg9
I0
sg10
I177
sg11
I89
sg12
g13
sg14
S'he-man'
p887
sba(itravian_raidmap
raid
p888
(dp889
g6
I5323
sg7
S'Teutoni'
p890
sg9
I0
sg10
I196
sg11
I58
sg12
g13
sg14
S'seem_it'
p891
sba(itravian_raidmap
raid
p892
(dp893
g6
I1944
sg7
S'Romani'
p894
sg9
I0
sg10
I252
sg11
I46
sg12
g13
sg14
S'shumi'
p895
sba(itravian_raidmap
raid
p896
(dp897
g6
I712
sg7
S'Galli'
p898
sg9
I0
sg10
I245
sg11
I49
sg12
g13
sg14
S'Tommy0581'
p899
sba(itravian_raidmap
raid
p900
(dp901
g6
I5323
sg7
S'Teutoni'
p902
sg9
I0
sg10
I195
sg11
I62
sg12
g13
sg14
S'seem_it'
p903
sba(itravian_raidmap
raid
p904
(dp905
g6
I1944
sg7
S'Romani'
p906
sg9
I0
sg10
I252
sg11
I47
sg12
g13
sg14
S'shumi'
p907
sba(itravian_raidmap
raid
p908
(dp909
g6
I5330
sg7
S'Teutoni'
p910
sg9
I0
sg10
I191
sg11
I73
sg12
g13
sg14
S'pozzani'
p911
sba(itravian_raidmap
raid
p912
(dp913
g6
I5323
sg7
S'Teutoni'
p914
sg9
I0
sg10
I195
sg11
I63
sg12
g13
sg14
S'seem_it'
p915
sba(itravian_raidmap
raid
p916
(dp917
g6
I5319
sg7
S'Teutoni'
p918
sg9
I0
sg10
I205
sg11
I9
sg12
g13
sg14
S'narcio24'
p919
sba(itravian_raidmap
raid
p920
(dp921
g6
I5323
sg7
S'Teutoni'
p922
sg9
I0
sg10
I197
sg11
I57
sg12
g13
sg14
S'seem_it'
p923
sba(itravian_raidmap
raid
p924
(dp925
g6
I5465
sg7
S'Teutoni'
p926
sg9
I0
sg10
I177
sg11
I92
sg12
g13
sg14
S'he-man'
p927
sba(itravian_raidmap
raid
p928
(dp929
g6
I5323
sg7
S'Teutoni'
p930
sg9
I0
sg10
I197
sg11
I58
sg12
g13
sg14
S'seem_it'
p931
sba(itravian_raidmap
raid
p932
(dp933
g6
I5330
sg7
S'Teutoni'
p934
sg9
I0
sg10
I191
sg11
I75
sg12
g13
sg14
S'pozzani'
p935
sba(itravian_raidmap
raid
p936
(dp937
g6
I5330
sg7
S'Teutoni'
p938
sg9
I0
sg10
I192
sg11
I73
sg12
g13
sg14
S'pozzani'
p939
sba(itravian_raidmap
raid
p940
(dp941
g6
I5330
sg7
S'Teutoni'
p942
sg9
I0
sg10
I191
sg11
I76
sg12
g13
sg14
S'pozzani'
p943
sba(itravian_raidmap
raid
p944
(dp945
g6
I5319
sg7
S'Teutoni'
p946
sg9
I0
sg10
I206
sg11
I9
sg12
g13
sg14
S'narcio24'
p947
sba(itravian_raidmap
raid
p948
(dp949
g6
I5323
sg7
S'Teutoni'
p950
sg9
I0
sg10
I198
sg11
I58
sg12
g13
sg14
S'seem_it'
p951
sba(itravian_raidmap
raid
p952
(dp953
g6
I5465
sg7
S'Teutoni'
p954
sg9
I0
sg10
I180
sg11
I89
sg12
g13
sg14
S'he-man'
p955
sba(itravian_raidmap
raid
p956
(dp957
g6
I5330
sg7
S'Teutoni'
p958
sg9
I0
sg10
I192
sg11
I76
sg12
g13
sg14
S'pozzani'
p959
sba(itravian_raidmap
raid
p960
(dp961
g6
I5469
sg7
S'Teutoni'
p962
sg9
I0
sg10
I183
sg11
I85
sg12
g13
sg14
S'he-man'
p963
sba(itravian_raidmap
raid
p964
(dp965
g6
I3597
sg7
S'Romani'
p966
sg9
I0
sg10
I181
sg11
I68
sg12
g13
sg14
S'alexandrus'
p967
sba(itravian_raidmap
raid
p968
(dp969
g6
I3989
sg7
S'Teutoni'
p970
sg9
I0
sg10
I252
sg11
I72
sg12
g13
sg14
S'berta'
p971
sba(itravian_raidmap
raid
p972
(dp973
g6
I5319
sg7
S'Teutoni'
p974
sg9
I0
sg10
I209
sg11
I8
sg12
g13
sg14
S'narcio24'
p975
sba(itravian_raidmap
raid
p976
(dp977
g6
I5330
sg7
S'Teutoni'
p978
sg9
I0
sg10
I192
sg11
I82
sg12
g13
sg14
S'pozzani'
p979
sba(itravian_raidmap
raid
p980
(dp981
g6
I3989
sg7
S'Teutoni'
p982
sg9
I0
sg10
I253
sg11
I70
sg12
g13
sg14
S'berta'
p983
sba(itravian_raidmap
raid
p984
(dp985
g6
I5323
sg7
S'Teutoni'
p986
sg9
I0
sg10
I200
sg11
I62
sg12
g13
sg14
S'seem_it'
p987
sba(itravian_raidmap
raid
p988
(dp989
g6
I3989
sg7
S'Teutoni'
p990
sg9
I0
sg10
I254
sg11
I69
sg12
g13
sg14
S'berta'
p991
sba(itravian_raidmap
raid
p992
(dp993
g6
I2388
sg7
S'Romani'
p994
sg9
I0
sg10
I237
sg11
I53
sg12
g13
sg14
S'sarnese'
p995
sba(itravian_raidmap
raid
p996
(dp997
g6
I3989
sg7
S'Teutoni'
p998
sg9
I0
sg10
I254
sg11
I70
sg12
g13
sg14
S'berta'
p999
sba(itravian_raidmap
raid
p1000
(dp1001
g6
I3989
sg7
S'Teutoni'
p1002
sg9
I0
sg10
I252
sg11
I77
sg12
g13
sg14
S'berta'
p1003
sba(itravian_raidmap
raid
p1004
(dp1005
g6
I1420
sg7
S'Galli'
p1006
sg9
I0
sg10
I217
sg11
I61
sg12
g13
sg14
S'roberto95'
p1007
sba(itravian_raidmap
raid
p1008
(dp1009
g6
I2125
sg7
S'Romani'
p1010
sg9
I0
sg10
I239
sg11
I85
sg12
g13
sg14
S'bobbino'
p1011
sba(itravian_raidmap
raid
p1012
(dp1013
g6
I3989
sg7
S'Teutoni'
p1014
sg9
I0
sg10
I253
sg11
I76
sg12
g13
sg14
S'berta'
p1015
sba(itravian_raidmap
raid
p1016
(dp1017
g6
I5319
sg7
S'Teutoni'
p1018
sg9
I0
sg10
I211
sg11
I10
sg12
g13
sg14
S'narcio24'
p1019
sba(itravian_raidmap
raid
p1020
(dp1021
g6
I3989
sg7
S'Teutoni'
p1022
sg9
I0
sg10
I253
sg11
I77
sg12
g13
sg14
S'berta'
p1023
sba(itravian_raidmap
raid
p1024
(dp1025
g6
I2125
sg7
S'Romani'
p1026
sg9
I0
sg10
I240
sg11
I85
sg12
g13
sg14
S'bobbino'
p1027
sba(itravian_raidmap
raid
p1028
(dp1029
g6
I1420
sg7
S'Galli'
p1030
sg9
I0
sg10
I218
sg11
I61
sg12
g13
sg14
S'roberto95'
p1031
sba(itravian_raidmap
raid
p1032
(dp1033
g6
I2388
sg7
S'Romani'
p1034
sg9
I0
sg10
I238
sg11
I56
sg12
g13
sg14
S'sarnese'
p1035
sba(itravian_raidmap
raid
p1036
(dp1037
g6
I2388
sg7
S'Romani'
p1038
sg9
I0
sg10
I238
sg11
I57
sg12
g13
sg14
S'sarnese'
p1039
sba(itravian_raidmap
raid
p1040
(dp1041
g6
I5330
sg7
S'Teutoni'
p1042
sg9
I0
sg10
I198
sg11
I77
sg12
g13
sg14
S'pozzani'
p1043
sba(itravian_raidmap
raid
p1044
(dp1045
g6
I2112
sg7
S'Romani'
p1046
sg9
I0
sg10
I239
sg11
I93
sg12
g13
sg14
S'ziopeter'
p1047
sba(itravian_raidmap
raid
p1048
(dp1049
g6
I1420
sg7
S'Galli'
p1050
sg9
I0
sg10
I219
sg11
I61
sg12
g13
sg14
S'roberto95'
p1051
sba(itravian_raidmap
raid
p1052
(dp1053
g6
I1156
sg7
S'Galli'
p1054
sg9
I0
sg10
I216
sg11
I100
sg12
g13
sg14
S'cianuro'
p1055
sba(itravian_raidmap
raid
p1056
(dp1057
g6
I2388
sg7
S'Romani'
p1058
sg9
I0
sg10
I239
sg11
I57
sg12
g13
sg14
S'sarnese'
p1059
sba(itravian_raidmap
raid
p1060
(dp1061
g6
I1420
sg7
S'Galli'
p1062
sg9
I0
sg10
I219
sg11
I62
sg12
g13
sg14
S'roberto95'
p1063
sba(itravian_raidmap
raid
p1064
(dp1065
g6
I2202
sg7
S'Romani'
p1066
sg9
I0
sg10
I249
sg11
I48
sg12
g13
sg14
S'GiulioCesare'
p1067
sba(itravian_raidmap
raid
p1068
(dp1069
g6
I6283
sg7
S'Teutoni'
p1070
sg9
I0
sg10
I159
sg11
I77
sg12
g13
sg14
S'Zaffiro'
p1071
sba(itravian_raidmap
raid
p1072
(dp1073
g6
I2202
sg7
S'Romani'
p1074
sg9
I0
sg10
I250
sg11
I47
sg12
g13
sg14
S'GiulioCesare'
p1075
sba(itravian_raidmap
raid
p1076
(dp1077
g6
I2189
sg7
S'Romani'
p1078
sg9
I0
sg10
I248
sg11
I59
sg12
g13
sg14
S'keekeeno'
p1079
sba(itravian_raidmap
raid
p1080
(dp1081
g6
I2202
sg7
S'Romani'
p1082
sg9
I0
sg10
I250
sg11
I48
sg12
g13
sg14
S'GiulioCesare'
p1083
sba(itravian_raidmap
raid
p1084
(dp1085
g6
I2202
sg7
S'Romani'
p1086
sg9
I0
sg10
I250
sg11
I49
sg12
g13
sg14
S'GiulioCesare'
p1087
sba(itravian_raidmap
raid
p1088
(dp1089
g6
I2112
sg7
S'Romani'
p1090
sg9
I0
sg10
I240
sg11
I96
sg12
g13
sg14
S'ziopeter'
p1091
sba(itravian_raidmap
raid
p1092
(dp1093
g6
I1622
sg7
S'Romani'
p1094
sg9
I0
sg10
I270
sg11
I67
sg12
g13
sg14
S'paolo.carmine'
p1095
sba(itravian_raidmap
raid
p1096
(dp1097
g6
I2112
sg7
S'Romani'
p1098
sg9
I0
sg10
I241
sg11
I94
sg12
g13
sg14
S'ziopeter'
p1099
sba(itravian_raidmap
raid
p1100
(dp1101
g6
I2189
sg7
S'Romani'
p1102
sg9
I0
sg10
I249
sg11
I58
sg12
g13
sg14
S'keekeeno'
p1103
sba(itravian_raidmap
raid
p1104
(dp1105
g6
I2112
sg7
S'Romani'
p1106
sg9
I0
sg10
I241
sg11
I95
sg12
g13
sg14
S'ziopeter'
p1107
sba(itravian_raidmap
raid
p1108
(dp1109
g6
I2112
sg7
S'Romani'
p1110
sg9
I0
sg10
I241
sg11
I96
sg12
g13
sg14
S'ziopeter'
p1111
sba(itravian_raidmap
raid
p1112
(dp1113
g6
I5323
sg7
S'Teutoni'
p1114
sg9
I0
sg10
I210
sg11
I57
sg12
g13
sg14
S'seem_it'
p1115
sba(itravian_raidmap
raid
p1116
(dp1117
g6
I5087
sg7
S'Teutoni'
p1118
sg9
I0
sg10
I212
sg11
I83
sg12
g13
sg14
S'russorusso'
p1119
sba(itravian_raidmap
raid
p1120
(dp1121
g6
I5087
sg7
S'Teutoni'
p1122
sg9
I0
sg10
I213
sg11
I83
sg12
g13
sg14
S'russorusso'
p1123
sba(itravian_raidmap
raid
p1124
(dp1125
g6
I5087
sg7
S'Teutoni'
p1126
sg9
I0
sg10
I214
sg11
I83
sg12
g13
sg14
S'russorusso'
p1127
sba(itravian_raidmap
raid
p1128
(dp1129
g6
I4932
sg7
S'Teutoni'
p1130
sg9
I0
sg10
I210
sg11
I109
sg12
g13
sg14
S'DEDO1958'
p1131
sba(itravian_raidmap
raid
p1132
(dp1133
g6
I2132
sg7
S'Romani'
p1134
sg9
I0
sg10
I257
sg11
I53
sg12
g13
sg14
S'ZioBilly'
p1135
sba(itravian_raidmap
raid
p1136
(dp1137
g6
I5280
sg7
S'Teutoni'
p1138
sg9
I0
sg10
I210
sg11
I77
sg12
g13
sg14
S'arin'
p1139
sba(itravian_raidmap
raid
p1140
(dp1141
g6
I514
sg7
S'Galli'
p1142
sg9
I0
sg10
I259
sg11
I76
sg12
g13
sg14
S'francesca pizio'
p1143
sba(itravian_raidmap
raid
p1144
(dp1145
g6
I2132
sg7
S'Romani'
p1146
sg9
I0
sg10
I258
sg11
I53
sg12
g13
sg14
S'ZioBilly'
p1147
sba(itravian_raidmap
raid
p1148
(dp1149
g6
I2132
sg7
S'Romani'
p1150
sg9
I0
sg10
I258
sg11
I54
sg12
g13
sg14
S'ZioBilly'
p1151
sba(itravian_raidmap
raid
p1152
(dp1153
g6
I2121
sg7
S'Romani'
p1154
sg9
I0
sg10
I246
sg11
I97
sg12
g13
sg14
S'william_ap'
p1155
sba(itravian_raidmap
raid
p1156
(dp1157
g6
I2125
sg7
S'Romani'
p1158
sg9
I0
sg10
I249
sg11
I89
sg12
g13
sg14
S'bobbino'
p1159
sba(itravian_raidmap
raid
p1160
(dp1161
g6
I514
sg7
S'Galli'
p1162
sg9
I0
sg10
I261
sg11
I76
sg12
g13
sg14
S'francesca pizio'
p1163
sba(itravian_raidmap
raid
p1164
(dp1165
g6
I2132
sg7
S'Romani'
p1166
sg9
I0
sg10
I258
sg11
I65
sg12
g13
sg14
S'ZioBilly'
p1167
sba(itravian_raidmap
raid
p1168
(dp1169
g6
I5087
sg7
S'Teutoni'
p1170
sg9
I0
sg10
I220
sg11
I85
sg12
g13
sg14
S'russorusso'
p1171
sba(itravian_raidmap
raid
p1172
(dp1173
g6
I6283
sg7
S'Teutoni'
p1174
sg9
I0
sg10
I165
sg11
I91
sg12
g13
sg14
S'Zaffiro'
p1175
sba(itravian_raidmap
raid
p1176
(dp1177
g6
I2132
sg7
S'Romani'
p1178
sg9
I0
sg10
I259
sg11
I65
sg12
g13
sg14
S'ZioBilly'
p1179
sba(itravian_raidmap
raid
p1180
(dp1181
g6
I1554
sg7
S'Galli'
p1182
sg9
I0
sg10
I203
sg11
I112
sg12
g13
sg14
S'FeDe1990'
p1183
sba(itravian_raidmap
raid
p1184
(dp1185
g6
I1554
sg7
S'Galli'
p1186
sg9
I0
sg10
I202
sg11
I114
sg12
g13
sg14
S'FeDe1990'
p1187
sba(itravian_raidmap
raid
p1188
(dp1189
g6
I1554
sg7
S'Galli'
p1190
sg9
I0
sg10
I203
sg11
I113
sg12
g13
sg14
S'FeDe1990'
p1191
sba(itravian_raidmap
raid
p1192
(dp1193
g6
I1620
sg7
S'Galli'
p1194
sg9
I0
sg10
I218
sg11
I74
sg12
g13
sg14
S'MassiP'
p1195
sba(itravian_raidmap
raid
p1196
(dp1197
g6
I4932
sg7
S'Teutoni'
p1198
sg9
I0
sg10
I222
sg11
I105
sg12
g13
sg14
S'DEDO1958'
p1199
sba(itravian_raidmap
raid
p1200
(dp1201
g6
I5195
sg7
S'Teutoni'
p1202
sg9
I0
sg10
I227
sg11
I62
sg12
g13
sg14
S'SAM'
p1203
sba(itravian_raidmap
raid
p1204
(dp1205
g6
I3597
sg7
S'Romani'
p1206
sg9
I0
sg10
I202
sg11
I60
sg12
g13
sg14
S'alexandrus'
p1207
sba(itravian_raidmap
raid
p1208
(dp1209
g6
I5195
sg7
S'Teutoni'
p1210
sg9
I0
sg10
I233
sg11
I42
sg12
g13
sg14
S'SAM'
p1211
sba(itravian_raidmap
raid
p1212
(dp1213
g6
I5195
sg7
S'Teutoni'
p1214
sg9
I0
sg10
I231
sg11
I53
sg12
g13
sg14
S'SAM'
p1215
sba(itravian_raidmap
raid
p1216
(dp1217
g6
I1620
sg7
S'Galli'
p1218
sg9
I0
sg10
I220
sg11
I74
sg12
g13
sg14
S'MassiP'
p1219
sba(itravian_raidmap
raid
p1220
(dp1221
g6
I3597
sg7
S'Romani'
p1222
sg9
I0
sg10
I201
sg11
I69
sg12
g13
sg14
S'alexandrus'
p1223
sba(itravian_raidmap
raid
p1224
(dp1225
g6
I484
sg7
S'Galli'
p1226
sg9
I0
sg10
I267
sg11
I77
sg12
g13
sg14
S'picionasipasi'
p1227
sba(itravian_raidmap
raid
p1228
(dp1229
g6
I3597
sg7
S'Romani'
p1230
sg9
I0
sg10
I201
sg11
I70
sg12
g13
sg14
S'alexandrus'
p1231
sba(itravian_raidmap
raid
p1232
(dp1233
g6
I578
sg7
S'Galli'
p1234
sg9
I0
sg10
I267
sg11
I63
sg12
g13
sg14
S'AL CRANE'
p1235
sba(itravian_raidmap
raid
p1236
(dp1237
g6
I3597
sg7
S'Romani'
p1238
sg9
I0
sg10
I201
sg11
I71
sg12
g13
sg14
S'alexandrus'
p1239
sba(itravian_raidmap
raid
p1240
(dp1241
g6
I1620
sg7
S'Galli'
p1242
sg9
I0
sg10
I220
sg11
I76
sg12
g13
sg14
S'MassiP'
p1243
sba(itravian_raidmap
raid
p1244
(dp1245
g6
I3597
sg7
S'Romani'
p1246
sg9
I0
sg10
I202
sg11
I69
sg12
g13
sg14
S'alexandrus'
p1247
sba(itravian_raidmap
raid
p1248
(dp1249
g6
I2388
sg7
S'Romani'
p1250
sg9
I0
sg10
I255
sg11
I61
sg12
g13
sg14
S'sarnese'
p1251
sba(itravian_raidmap
raid
p1252
(dp1253
g6
I5195
sg7
S'Teutoni'
p1254
sg9
I0
sg10
I233
sg11
I55
sg12
g13
sg14
S'SAM'
p1255
sba(itravian_raidmap
raid
p1256
(dp1257
g6
I5195
sg7
S'Teutoni'
p1258
sg9
I0
sg10
I233
sg11
I58
sg12
g13
sg14
S'SAM'
p1259
sba(itravian_raidmap
raid
p1260
(dp1261
g6
I5195
sg7
S'Teutoni'
p1262
sg9
I0
sg10
I230
sg11
I69
sg12
g13
sg14
S'SAM'
p1263
sba(itravian_raidmap
raid
p1264
(dp1265
g6
I1620
sg7
S'Galli'
p1266
sg9
I0
sg10
I222
sg11
I74
sg12
g13
sg14
S'MassiP'
p1267
sba(itravian_raidmap
raid
p1268
(dp1269
g6
I5195
sg7
S'Teutoni'
p1270
sg9
I0
sg10
I237
sg11
I43
sg12
g13
sg14
S'SAM'
p1271
sba(itravian_raidmap
raid
p1272
(dp1273
g6
I3242
sg7
S'Romani'
p1274
sg9
I0
sg10
I201
sg11
I111
sg12
g13
sg14
S'Simplicio'
p1275
sba(itravian_raidmap
raid
p1276
(dp1277
g6
I5372
sg7
S'Teutoni'
p1278
sg9
I0
sg10
I215
sg11
I97
sg12
g13
sg14
S'vanniii'
p1279
sba(itravian_raidmap
raid
p1280
(dp1281
g6
I5406
sg7
S'Teutoni'
p1282
sg9
I0
sg10
I205
sg11
I115
sg12
g13
sg14
S'sdody'
p1283
sba(itravian_raidmap
raid
p1284
(dp1285
g6
I5372
sg7
S'Teutoni'
p1286
sg9
I0
sg10
I212
sg11
I105
sg12
g13
sg14
S'vanniii'
p1287
sba(itravian_raidmap
raid
p1288
(dp1289
g6
I548
sg7
S'Galli'
p1290
sg9
I0
sg10
I270
sg11
I71
sg12
g13
sg14
S'andry64'
p1291
sba(itravian_raidmap
raid
p1292
(dp1293
g6
I548
sg7
S'Galli'
p1294
sg9
I0
sg10
I270
sg11
I72
sg12
g13
sg14
S'andry64'
p1295
sba(itravian_raidmap
raid
p1296
(dp1297
g6
I5406
sg7
S'Teutoni'
p1298
sg9
I0
sg10
I206
sg11
I115
sg12
g13
sg14
S'sdody'
p1299
sba(itravian_raidmap
raid
p1300
(dp1301
g6
I5087
sg7
S'Teutoni'
p1302
sg9
I0
sg10
I227
sg11
I102
sg12
g13
sg14
S'russorusso'
p1303
sba(itravian_raidmap
raid
p1304
(dp1305
g6
I5372
sg7
S'Teutoni'
p1306
sg9
I0
sg10
I213
sg11
I105
sg12
g13
sg14
S'vanniii'
p1307
sba(itravian_raidmap
raid
p1308
(dp1309
g6
I5406
sg7
S'Teutoni'
p1310
sg9
I0
sg10
I204
sg11
I120
sg12
g13
sg14
S'sdody'
p1311
sba(itravian_raidmap
raid
p1312
(dp1313
g6
I5406
sg7
S'Teutoni'
p1314
sg9
I0
sg10
I209
sg11
I113
sg12
g13
sg14
S'sdody'
p1315
sba(itravian_raidmap
raid
p1316
(dp1317
g6
I5406
sg7
S'Teutoni'
p1318
sg9
I0
sg10
I203
sg11
I126
sg12
g13
sg14
S'sdody'
p1319
sba(itravian_raidmap
raid
p1320
(dp1321
g6
I5087
sg7
S'Teutoni'
p1322
sg9
I0
sg10
I231
sg11
I103
sg12
g13
sg14
S'russorusso'
p1323
sba(itravian_raidmap
raid
p1324
(dp1325
g6
I5195
sg7
S'Teutoni'
p1326
sg9
I0
sg10
I239
sg11
I69
sg12
g13
sg14
S'SAM'
p1327
sba(itravian_raidmap
raid
p1328
(dp1329
g6
I5406
sg7
S'Teutoni'
p1330
sg9
I0
sg10
I211
sg11
I120
sg12
g13
sg14
S'sdody'
p1331
sba(itravian_raidmap
raid
p1332
(dp1333
g6
I5406
sg7
S'Teutoni'
p1334
sg9
I0
sg10
I210
sg11
I122
sg12
g13
sg14
S'sdody'
p1335
sba(itravian_raidmap
raid
p1336
(dp1337
g6
I757
sg7
S'Galli'
p1338
sg9
I0
sg10
I269
sg11
I67
sg12
g13
sg14
S'tita.libero0'
p1339
sba(itravian_raidmap
raid
p1340
(dp1341
g6
I757
sg7
S'Galli'
p1342
sg9
I0
sg10
I269
sg11
I68
sg12
g13
sg14
S'tita.libero0'
p1343
sba(itravian_raidmap
raid
p1344
(dp1345
g6
I5406
sg7
S'Teutoni'
p1346
sg9
I0
sg10
I216
sg11
I117
sg12
g13
sg14
S'sdody'
p1347
sba(itravian_raidmap
raid
p1348
(dp1349
g6
I5372
sg7
S'Teutoni'
p1350
sg9
I0
sg10
I222
sg11
I109
sg12
g13
sg14
S'vanniii'
p1351
sba(itravian_raidmap
raid
p1352
(dp1353
g6
I4085
sg7
S'Romani'
p1354
sg9
I0
sg10
I194
sg11
I71
sg12
g13
sg14
S'Paso'
p1355
sba(itravian_raidmap
raid
p1356
(dp1357
g6
I5372
sg7
S'Teutoni'
p1358
sg9
I0
sg10
I224
sg11
I106
sg12
g13
sg14
S'vanniii'
p1359
sba(itravian_raidmap
raid
p1360
(dp1361
g6
I6639
sg7
S'Teutoni'
p1362
sg9
I0
sg10
I170
sg11
I100
sg12
g13
sg14
S'incamax'
p1363
sba(itravian_raidmap
raid
p1364
(dp1365
g6
I3242
sg7
S'Romani'
p1366
sg9
I0
sg10
I213
sg11
I112
sg12
g13
sg14
S'Simplicio'
p1367
sba(itravian_raidmap
raid
p1368
(dp1369
g6
I5372
sg7
S'Teutoni'
p1370
sg9
I0
sg10
I224
sg11
I107
sg12
g13
sg14
S'vanniii'
p1371
sba(itravian_raidmap
raid
p1372
(dp1373
g6
I4085
sg7
S'Romani'
p1374
sg9
I0
sg10
I195
sg11
I70
sg12
g13
sg14
S'Paso'
p1375
sba(itravian_raidmap
raid
p1376
(dp1377
g6
I5280
sg7
S'Teutoni'
p1378
sg9
I0
sg10
I246
sg11
I55
sg12
g13
sg14
S'arin'
p1379
sba(itravian_raidmap
raid
p1380
(dp1381
g6
I5443
sg7
S'Teutoni'
p1382
sg9
I0
sg10
I243
sg11
I39
sg12
g13
sg14
S'chandrica'
p1383
sba(itravian_raidmap
raid
p1384
(dp1385
g6
I4085
sg7
S'Romani'
p1386
sg9
I0
sg10
I196
sg11
I69
sg12
g13
sg14
S'Paso'
p1387
sba(itravian_raidmap
raid
p1388
(dp1389
g6
I2321
sg7
S'Romani'
p1390
sg9
I0
sg10
I269
sg11
I72
sg12
g13
sg14
S'onofois'
p1391
sba(itravian_raidmap
raid
p1392
(dp1393
g6
I5280
sg7
S'Teutoni'
p1394
sg9
I0
sg10
I247
sg11
I55
sg12
g13
sg14
S'arin'
p1395
sba(itravian_raidmap
raid
p1396
(dp1397
g6
I4085
sg7
S'Romani'
p1398
sg9
I0
sg10
I196
sg11
I70
sg12
g13
sg14
S'Paso'
p1399
sba(itravian_raidmap
raid
p1400
(dp1401
g6
I2321
sg7
S'Romani'
p1402
sg9
I0
sg10
I269
sg11
I73
sg12
g13
sg14
S'onofois'
p1403
sba(itravian_raidmap
raid
p1404
(dp1405
g6
I5443
sg7
S'Teutoni'
p1406
sg9
I0
sg10
I243
sg11
I44
sg12
g13
sg14
S'chandrica'
p1407
sba(itravian_raidmap
raid
p1408
(dp1409
g6
I4085
sg7
S'Romani'
p1410
sg9
I0
sg10
I196
sg11
I71
sg12
g13
sg14
S'Paso'
p1411
sba(itravian_raidmap
raid
p1412
(dp1413
g6
I3242
sg7
S'Romani'
p1414
sg9
I0
sg10
I217
sg11
I108
sg12
g13
sg14
S'Simplicio'
p1415
sba(itravian_raidmap
raid
p1416
(dp1417
g6
I5443
sg7
S'Teutoni'
p1418
sg9
I0
sg10
I243
sg11
I47
sg12
g13
sg14
S'chandrica'
p1419
sba(itravian_raidmap
raid
p1420
(dp1421
g6
I2321
sg7
S'Romani'
p1422
sg9
I0
sg10
I270
sg11
I73
sg12
g13
sg14
S'onofois'
p1423
sba(itravian_raidmap
raid
p1424
(dp1425
g6
I4085
sg7
S'Romani'
p1426
sg9
I0
sg10
I197
sg11
I74
sg12
g13
sg14
S'Paso'
p1427
sba(itravian_raidmap
raid
p1428
(dp1429
g6
I2855
sg7
S'Romani'
p1430
sg9
I0
sg10
I242
sg11
I100
sg12
g13
sg14
S'Hataru_74'
p1431
sba(itravian_raidmap
raid
p1432
(dp1433
g6
I2855
sg7
S'Romani'
p1434
sg9
I0
sg10
I243
sg11
I99
sg12
g13
sg14
S'Hataru_74'
p1435
sba(itravian_raidmap
raid
p1436
(dp1437
g6
I2855
sg7
S'Romani'
p1438
sg9
I0
sg10
I243
sg11
I100
sg12
g13
sg14
S'Hataru_74'
p1439
sba(itravian_raidmap
raid
p1440
(dp1441
g6
I2855
sg7
S'Romani'
p1442
sg9
I0
sg10
I243
sg11
I101
sg12
g13
sg14
S'Hataru_74'
p1443
sba(itravian_raidmap
raid
p1444
(dp1445
g6
I5143
sg7
S'Romani'
p1446
sg9
I0
sg10
I165
sg11
I48
sg12
g13
sg14
S'\xc3\x90\xc3\xa8 La PE\xc3\xb1a'
p1447
sba(itravian_raidmap
raid
p1448
(dp1449
g6
I5143
sg7
S'Romani'
p1450
sg9
I0
sg10
I166
sg11
I46
sg12
g13
sg14
S'\xc3\x90\xc3\xa8 La PE\xc3\xb1a'
p1451
sba(itravian_raidmap
raid
p1452
(dp1453
g6
I5143
sg7
S'Romani'
p1454
sg9
I0
sg10
I167
sg11
I46
sg12
g13
sg14
S'\xc3\x90\xc3\xa8 La PE\xc3\xb1a'
p1455
sba(itravian_raidmap
raid
p1456
(dp1457
g6
I1686
sg7
S'Galli'
p1458
sg9
I0
sg10
I218
sg11
I119
sg12
g13
sg14
S'mister bo'
p1459
sba(itravian_raidmap
raid
p1460
(dp1461
g6
I4269
sg7
S'Romani'
p1462
sg9
I0
sg10
I186
sg11
I94
sg12
g13
sg14
S'Wolf90'
p1463
sba(itravian_raidmap
raid
p1464
(dp1465
g6
I5143
sg7
S'Romani'
p1466
sg9
I0
sg10
I167
sg11
I47
sg12
g13
sg14
S'\xc3\x90\xc3\xa8 La PE\xc3\xb1a'
p1467
sba(itravian_raidmap
raid
p1468
(dp1469
g6
I5143
sg7
S'Romani'
p1470
sg9
I0
sg10
I167
sg11
I48
sg12
g13
sg14
S'\xc3\x90\xc3\xa8 La PE\xc3\xb1a'
p1471
sba(itravian_raidmap
raid
p1472
(dp1473
g6
I4269
sg7
S'Romani'
p1474
sg9
I0
sg10
I187
sg11
I93
sg12
g13
sg14
S'Wolf90'
p1475
sba(itravian_raidmap
raid
p1476
(dp1477
g6
I1686
sg7
S'Galli'
p1478
sg9
I0
sg10
I219
sg11
I119
sg12
g13
sg14
S'mister bo'
p1479
sba(itravian_raidmap
raid
p1480
(dp1481
g6
I4269
sg7
S'Romani'
p1482
sg9
I0
sg10
I187
sg11
I94
sg12
g13
sg14
S'Wolf90'
p1483
sba(itravian_raidmap
raid
p1484
(dp1485
g6
I4269
sg7
S'Romani'
p1486
sg9
I0
sg10
I186
sg11
I96
sg12
g13
sg14
S'Wolf90'
p1487
sba(itravian_raidmap
raid
p1488
(dp1489
g6
I5143
sg7
S'Romani'
p1490
sg9
I0
sg10
I168
sg11
I47
sg12
g13
sg14
S'\xc3\x90\xc3\xa8 La PE\xc3\xb1a'
p1491
sba(itravian_raidmap
raid
p1492
(dp1493
g6
I4269
sg7
S'Romani'
p1494
sg9
I0
sg10
I187
sg11
I95
sg12
g13
sg14
S'Wolf90'
p1495
sba(itravian_raidmap
raid
p1496
(dp1497
g6
I4269
sg7
S'Romani'
p1498
sg9
I0
sg10
I188
sg11
I94
sg12
g13
sg14
S'Wolf90'
p1499
sba(itravian_raidmap
raid
p1500
(dp1501
g6
I4269
sg7
S'Romani'
p1502
sg9
I0
sg10
I188
sg11
I95
sg12
g13
sg14
S'Wolf90'
p1503
sba(itravian_raidmap
raid
p1504
(dp1505
g6
I7449
sg7
S'Teutoni'
p1506
sg9
I0
sg10
I180
sg11
I39
sg12
g13
sg14
S'Marco guida'
p1507
sba(itravian_raidmap
raid
p1508
(dp1509
g6
I7449
sg7
S'Teutoni'
p1510
sg9
I0
sg10
I180
sg11
I40
sg12
g13
sg14
S'Marco guida'
p1511
sba(itravian_raidmap
raid
p1512
(dp1513
g6
I7103
sg7
S'Teutoni'
p1514
sg9
I0
sg10
I188
sg11
I63
sg12
g13
sg14
S'MILIZIADE'
p1515
sba(itravian_raidmap
raid
p1516
(dp1517
g6
I7449
sg7
S'Teutoni'
p1518
sg9
I0
sg10
I180
sg11
I44
sg12
g13
sg14
S'Marco guida'
p1519
sba(itravian_raidmap
raid
p1520
(dp1521
g6
I7449
sg7
S'Teutoni'
p1522
sg9
I0
sg10
I184
sg11
I27
sg12
g13
sg14
S'Marco guida'
p1523
sba(itravian_raidmap
raid
p1524
(dp1525
g6
I7103
sg7
S'Teutoni'
p1526
sg9
I0
sg10
I191
sg11
I60
sg12
g13
sg14
S'MILIZIADE'
p1527
sba(itravian_raidmap
raid
p1528
(dp1529
g6
I2941
sg7
S'Romani'
p1530
sg9
I0
sg10
I258
sg11
I79
sg12
g13
sg14
S'sandro'
p1531
sba(itravian_raidmap
raid
p1532
(dp1533
g6
I7103
sg7
S'Teutoni'
p1534
sg9
I0
sg10
I190
sg11
I64
sg12
g13
sg14
S'MILIZIADE'
p1535
sba(itravian_raidmap
raid
p1536
(dp1537
g6
I2941
sg7
S'Romani'
p1538
sg9
I0
sg10
I258
sg11
I80
sg12
g13
sg14
S'sandro'
p1539
sba(itravian_raidmap
raid
p1540
(dp1541
g6
I7103
sg7
S'Teutoni'
p1542
sg9
I0
sg10
I192
sg11
I60
sg12
g13
sg14
S'MILIZIADE'
p1543
sba(itravian_raidmap
raid
p1544
(dp1545
g6
I2941
sg7
S'Romani'
p1546
sg9
I0
sg10
I259
sg11
I79
sg12
g13
sg14
S'sandro'
p1547
sba(itravian_raidmap
raid
p1548
(dp1549
g6
I7103
sg7
S'Teutoni'
p1550
sg9
I0
sg10
I192
sg11
I61
sg12
g13
sg14
S'MILIZIADE'
p1551
sba(itravian_raidmap
raid
p1552
(dp1553
g6
I7103
sg7
S'Teutoni'
p1554
sg9
I0
sg10
I193
sg11
I58
sg12
g13
sg14
S'MILIZIADE'
p1555
sba(itravian_raidmap
raid
p1556
(dp1557
g6
I2941
sg7
S'Romani'
p1558
sg9
I0
sg10
I262
sg11
I80
sg12
g13
sg14
S'sandro'
p1559
sba(itravian_raidmap
raid
p1560
(dp1561
g6
I2941
sg7
S'Romani'
p1562
sg9
I0
sg10
I266
sg11
I70
sg12
g13
sg14
S'sandro'
p1563
sba(itravian_raidmap
raid
p1564
(dp1565
g6
I6639
sg7
S'Teutoni'
p1566
sg9
I0
sg10
I210
sg11
I94
sg12
g13
sg14
S'incamax'
p1567
sba(itravian_raidmap
raid
p1568
(dp1569
g6
I3728
sg7
S'Romani'
p1570
sg9
I0
sg10
I245
sg11
I67
sg12
g13
sg14
S'danyontheroad'
p1571
sba(itravian_raidmap
raid
p1572
(dp1573
g6
I3728
sg7
S'Romani'
p1574
sg9
I0
sg10
I244
sg11
I72
sg12
g13
sg14
S'danyontheroad'
p1575
sba(itravian_raidmap
raid
p1576
(dp1577
g6
I3728
sg7
S'Romani'
p1578
sg9
I0
sg10
I247
sg11
I70
sg12
g13
sg14
S'danyontheroad'
p1579
sba(itravian_raidmap
raid
p1580
(dp1581
g6
I3728
sg7
S'Romani'
p1582
sg9
I0
sg10
I247
sg11
I71
sg12
g13
sg14
S'danyontheroad'
p1583
sba(itravian_raidmap
raid
p1584
(dp1585
g6
I7449
sg7
S'Teutoni'
p1586
sg9
I0
sg10
I206
sg11
I45
sg12
g13
sg14
S'Marco guida'
p1587
sba(itravian_raidmap
raid
p1588
(dp1589
g6
I3728
sg7
S'Romani'
p1590
sg9
I0
sg10
I249
sg11
I70
sg12
g13
sg14
S'danyontheroad'
p1591
sba(itravian_raidmap
raid
p1592
(dp1593
g6
I7964
sg7
S'Teutoni'
p1594
sg9
I0
sg10
I171
sg11
I89
sg12
g13
sg14
S'mattarco'
p1595
sba(itravian_raidmap
raid
p1596
(dp1597
g6
I7964
sg7
S'Teutoni'
p1598
sg9
I0
sg10
I172
sg11
I89
sg12
g13
sg14
S'mattarco'
p1599
sba(itravian_raidmap
raid
p1600
(dp1601
g6
I5585
sg7
S'Romani'
p1602
sg9
I0
sg10
I167
sg11
I83
sg12
g13
sg14
S'damy73'
p1603
sba(itravian_raidmap
raid
p1604
(dp1605
g6
I7964
sg7
S'Teutoni'
p1606
sg9
I0
sg10
I174
sg11
I86
sg12
g13
sg14
S'mattarco'
p1607
sba(itravian_raidmap
raid
p1608
(dp1609
g6
I5585
sg7
S'Romani'
p1610
sg9
I0
sg10
I168
sg11
I82
sg12
g13
sg14
S'damy73'
p1611
sba(itravian_raidmap
raid
p1612
(dp1613
g6
I7964
sg7
S'Teutoni'
p1614
sg9
I0
sg10
I174
sg11
I87
sg12
g13
sg14
S'mattarco'
p1615
sba(itravian_raidmap
raid
p1616
(dp1617
g6
I7103
sg7
S'Teutoni'
p1618
sg9
I0
sg10
I221
sg11
I61
sg12
g13
sg14
S'MILIZIADE'
p1619
sba(itravian_raidmap
raid
p1620
(dp1621
g6
I5585
sg7
S'Romani'
p1622
sg9
I0
sg10
I169
sg11
I81
sg12
g13
sg14
S'damy73'
p1623
sba(itravian_raidmap
raid
p1624
(dp1625
g6
I7964
sg7
S'Teutoni'
p1626
sg9
I0
sg10
I175
sg11
I86
sg12
g13
sg14
S'mattarco'
p1627
sba(itravian_raidmap
raid
p1628
(dp1629
g6
I5714
sg7
S'Romani'
p1630
sg9
I0
sg10
I168
sg11
I71
sg12
g13
sg14
S'draka'
p1631
sba(itravian_raidmap
raid
p1632
(dp1633
g6
I7966
sg7
S'Teutoni'
p1634
sg9
I0
sg10
I170
sg11
I96
sg12
g13
sg14
S'mattarco'
p1635
sba(itravian_raidmap
raid
p1636
(dp1637
g6
I7964
sg7
S'Teutoni'
p1638
sg9
I0
sg10
I175
sg11
I87
sg12
g13
sg14
S'mattarco'
p1639
sba(itravian_raidmap
raid
p1640
(dp1641
g6
I7103
sg7
S'Teutoni'
p1642
sg9
I0
sg10
I222
sg11
I60
sg12
g13
sg14
S'MILIZIADE'
p1643
sba(itravian_raidmap
raid
p1644
(dp1645
g6
I5714
sg7
S'Romani'
p1646
sg9
I0
sg10
I169
sg11
I72
sg12
g13
sg14
S'draka'
p1647
sba(itravian_raidmap
raid
p1648
(dp1649
g6
I7103
sg7
S'Teutoni'
p1650
sg9
I0
sg10
I224
sg11
I60
sg12
g13
sg14
S'MILIZIADE'
p1651
sba(itravian_raidmap
raid
p1652
(dp1653
g6
I7964
sg7
S'Teutoni'
p1654
sg9
I0
sg10
I176
sg11
I90
sg12
g13
sg14
S'mattarco'
p1655
sba(itravian_raidmap
raid
p1656
(dp1657
g6
I1740
sg7
S'Galli'
p1658
sg9
I0
sg10
I266
sg11
I72
sg12
g13
sg14
S'UZAR'
p1659
sba(itravian_raidmap
raid
p1660
(dp1661
g6
I8353
sg7
S'Teutoni'
p1662
sg9
I0
sg10
I178
sg11
I46
sg12
g13
sg14
S'SNICH'
p1663
sba(itravian_raidmap
raid
p1664
(dp1665
g6
I7966
sg7
S'Teutoni'
p1666
sg9
I0
sg10
I174
sg11
I99
sg12
g13
sg14
S'mattarco'
p1667
sba(itravian_raidmap
raid
p1668
(dp1669
g6
I7960
sg7
S'Teutoni'
p1670
sg9
I0
sg10
I178
sg11
I94
sg12
g13
sg14
S'mattarco'
p1671
sba(itravian_raidmap
raid
p1672
(dp1673
g6
I1740
sg7
S'Galli'
p1674
sg9
I0
sg10
I267
sg11
I74
sg12
g13
sg14
S'UZAR'
p1675
sba(itravian_raidmap
raid
p1676
(dp1677
g6
I5585
sg7
S'Romani'
p1678
sg9
I0
sg10
I175
sg11
I82
sg12
g13
sg14
S'damy73'
p1679
sba(itravian_raidmap
raid
p1680
(dp1681
g6
I1740
sg7
S'Galli'
p1682
sg9
I0
sg10
I268
sg11
I73
sg12
g13
sg14
S'UZAR'
p1683
sba(itravian_raidmap
raid
p1684
(dp1685
g6
I5585
sg7
S'Romani'
p1686
sg9
I0
sg10
I175
sg11
I83
sg12
g13
sg14
S'damy73'
p1687
sba(itravian_raidmap
raid
p1688
(dp1689
g6
I2492
sg7
S'Galli'
p1690
sg9
I0
sg10
I240
sg11
I64
sg12
g13
sg14
S'Rodeano'
p1691
sba(itravian_raidmap
raid
p1692
(dp1693
g6
I5744
sg7
S'Romani'
p1694
sg9
I0
sg10
I186
sg11
I31
sg12
g13
sg14
S'Richard Neville'
p1695
sba(itravian_raidmap
raid
p1696
(dp1697
g6
I7964
sg7
S'Teutoni'
p1698
sg9
I0
sg10
I185
sg11
I88
sg12
g13
sg14
S'mattarco'
p1699
sba(itravian_raidmap
raid
p1700
(dp1701
g6
I2492
sg7
S'Galli'
p1702
sg9
I0
sg10
I241
sg11
I64
sg12
g13
sg14
S'Rodeano'
p1703
sba(itravian_raidmap
raid
p1704
(dp1705
g6
I2492
sg7
S'Galli'
p1706
sg9
I0
sg10
I243
sg11
I64
sg12
g13
sg14
S'Rodeano'
p1707
sba(itravian_raidmap
raid
p1708
(dp1709
g6
I5714
sg7
S'Romani'
p1710
sg9
I0
sg10
I179
sg11
I73
sg12
g13
sg14
S'draka'
p1711
sba(itravian_raidmap
raid
p1712
(dp1713
g6
I7103
sg7
S'Teutoni'
p1714
sg9
I0
sg10
I233
sg11
I71
sg12
g13
sg14
S'MILIZIADE'
p1715
sba(itravian_raidmap
raid
p1716
(dp1717
g6
I5585
sg7
S'Romani'
p1718
sg9
I0
sg10
I182
sg11
I82
sg12
g13
sg14
S'damy73'
p1719
sba(itravian_raidmap
raid
p1720
(dp1721
g6
I5714
sg7
S'Romani'
p1722
sg9
I0
sg10
I180
sg11
I74
sg12
g13
sg14
S'draka'
p1723
sba(itravian_raidmap
raid
p1724
(dp1725
g6
I2492
sg7
S'Galli'
p1726
sg9
I0
sg10
I245
sg11
I64
sg12
g13
sg14
S'Rodeano'
p1727
sba(itravian_raidmap
raid
p1728
(dp1729
g6
I5488
sg7
S'Romani'
p1730
sg9
I0
sg10
I204
sg11
I16
sg12
g13
sg14
S'gibbone'
p1731
sba(itravian_raidmap
raid
p1732
(dp1733
g6
I5488
sg7
S'Romani'
p1734
sg9
I0
sg10
I204
sg11
I17
sg12
g13
sg14
S'gibbone'
p1735
sba(itravian_raidmap
raid
p1736
(dp1737
g6
I5585
sg7
S'Romani'
p1738
sg9
I0
sg10
I183
sg11
I83
sg12
g13
sg14
S'damy73'
p1739
sba(itravian_raidmap
raid
p1740
(dp1741
g6
I5488
sg7
S'Romani'
p1742
sg9
I0
sg10
I205
sg11
I15
sg12
g13
sg14
S'gibbone'
p1743
sba(itravian_raidmap
raid
p1744
(dp1745
g6
I5488
sg7
S'Romani'
p1746
sg9
I0
sg10
I206
sg11
I13
sg12
g13
sg14
S'gibbone'
p1747
sba(itravian_raidmap
raid
p1748
(dp1749
g6
I5488
sg7
S'Romani'
p1750
sg9
I0
sg10
I206
sg11
I20
sg12
g13
sg14
S'gibbone'
p1751
sba(itravian_raidmap
raid
p1752
(dp1753
g6
I5585
sg7
S'Romani'
p1754
sg9
I0
sg10
I185
sg11
I84
sg12
g13
sg14
S'damy73'
p1755
sba(itravian_raidmap
raid
p1756
(dp1757
g6
I5585
sg7
S'Romani'
p1758
sg9
I0
sg10
I186
sg11
I82
sg12
g13
sg14
S'damy73'
p1759
sba(itravian_raidmap
raid
p1760
(dp1761
g6
I5585
sg7
S'Romani'
p1762
sg9
I0
sg10
I186
sg11
I83
sg12
g13
sg14
S'damy73'
p1763
sba(itravian_raidmap
raid
p1764
(dp1765
g6
I5488
sg7
S'Romani'
p1766
sg9
I0
sg10
I207
sg11
I16
sg12
g13
sg14
S'gibbone'
p1767
sba(itravian_raidmap
raid
p1768
(dp1769
g6
I5488
sg7
S'Romani'
p1770
sg9
I0
sg10
I207
sg11
I17
sg12
g13
sg14
S'gibbone'
p1771
sba(itravian_raidmap
raid
p1772
(dp1773
g6
I5488
sg7
S'Romani'
p1774
sg9
I0
sg10
I207
sg11
I20
sg12
g13
sg14
S'gibbone'
p1775
sba(itravian_raidmap
raid
p1776
(dp1777
g6
I5488
sg7
S'Romani'
p1778
sg9
I0
sg10
I208
sg11
I16
sg12
g13
sg14
S'gibbone'
p1779
sba(itravian_raidmap
raid
p1780
(dp1781
g6
I5714
sg7
S'Romani'
p1782
sg9
I0
sg10
I184
sg11
I84
sg12
g13
sg14
S'draka'
p1783
sba(itravian_raidmap
raid
p1784
(dp1785
g6
I5488
sg7
S'Romani'
p1786
sg9
I0
sg10
I211
sg11
I16
sg12
g13
sg14
S'gibbone'
p1787
sba(itravian_raidmap
raid
p1788
(dp1789
g6
I5488
sg7
S'Romani'
p1790
sg9
I0
sg10
I212
sg11
I15
sg12
g13
sg14
S'gibbone'
p1791
sba(itravian_raidmap
raid
p1792
(dp1793
g6
I3223
sg7
S'Galli'
p1794
sg9
I0
sg10
I215
sg11
I86
sg12
g13
sg14
S'Chris73'
p1795
sba(itravian_raidmap
raid
p1796
(dp1797
g6
I2841
sg7
S'Galli'
p1798
sg9
I0
sg10
I220
sg11
I112
sg12
g13
sg14
S'Martina Pigoni'
p1799
sba(itravian_raidmap
raid
p1800
(dp1801
g6
I4284
sg7
S'Galli'
p1802
sg9
I0
sg10
I171
sg11
I82
sg12
g13
sg14
S'kiara'
p1803
sba(itravian_raidmap
raid
p1804
(dp1805
g6
I4284
sg7
S'Galli'
p1806
sg9
I0
sg10
I172
sg11
I80
sg12
g13
sg14
S'kiara'
p1807
sba(itravian_raidmap
raid
p1808
(dp1809
g6
I8309
sg7
S'Teutoni'
p1810
sg9
I0
sg10
I209
sg11
I16
sg12
g13
sg14
S'supremo1'
p1811
sba(itravian_raidmap
raid
p1812
(dp1813
g6
I2492
sg7
S'Galli'
p1814
sg9
I0
sg10
I252
sg11
I74
sg12
g13
sg14
S'Rodeano'
p1815
sba(itravian_raidmap
raid
p1816
(dp1817
g6
I8309
sg7
S'Teutoni'
p1818
sg9
I0
sg10
I200
sg11
I68
sg12
g13
sg14
S'supremo1'
p1819
sba(itravian_raidmap
raid
p1820
(dp1821
g6
I3093
sg7
S'Galli'
p1822
sg9
I0
sg10
I224
sg11
I85
sg12
g13
sg14
S'flowergreg'
p1823
sba(itravian_raidmap
raid
p1824
(dp1825
g6
I9380
sg7
S'Teutoni'
p1826
sg9
I0
sg10
I157
sg11
I72
sg12
g13
sg14
S'maw'
p1827
sba(itravian_raidmap
raid
p1828
(dp1829
g6
I2492
sg7
S'Galli'
p1830
sg9
I0
sg10
I258
sg11
I64
sg12
g13
sg14
S'Rodeano'
p1831
sba(itravian_raidmap
raid
p1832
(dp1833
g6
I5744
sg7
S'Romani'
p1834
sg9
I0
sg10
I206
sg11
I35
sg12
g13
sg14
S'Richard Neville'
p1835
sba(itravian_raidmap
raid
p1836
(dp1837
g6
I5744
sg7
S'Romani'
p1838
sg9
I0
sg10
I206
sg11
I36
sg12
g13
sg14
S'Richard Neville'
p1839
sba(itravian_raidmap
raid
p1840
(dp1841
g6
I5744
sg7
S'Romani'
p1842
sg9
I0
sg10
I207
sg11
I36
sg12
g13
sg14
S'Richard Neville'
p1843
sba(itravian_raidmap
raid
p1844
(dp1845
g6
I5744
sg7
S'Romani'
p1846
sg9
I0
sg10
I207
sg11
I37
sg12
g13
sg14
S'Richard Neville'
p1847
sba(itravian_raidmap
raid
p1848
(dp1849
g6
I5744
sg7
S'Romani'
p1850
sg9
I0
sg10
I208
sg11
I36
sg12
g13
sg14
S'Richard Neville'
p1851
sba(itravian_raidmap
raid
p1852
(dp1853
g6
I5744
sg7
S'Romani'
p1854
sg9
I0
sg10
I209
sg11
I35
sg12
g13
sg14
S'Richard Neville'
p1855
sba(itravian_raidmap
raid
p1856
(dp1857
g6
I5744
sg7
S'Romani'
p1858
sg9
I0
sg10
I209
sg11
I36
sg12
g13
sg14
S'Richard Neville'
p1859
sba(itravian_raidmap
raid
p1860
(dp1861
g6
I5744
sg7
S'Romani'
p1862
sg9
I0
sg10
I210
sg11
I33
sg12
g13
sg14
S'Richard Neville'
p1863
sba(itravian_raidmap
raid
p1864
(dp1865
g6
I5744
sg7
S'Romani'
p1866
sg9
I0
sg10
I210
sg11
I35
sg12
g13
sg14
S'Richard Neville'
p1867
sba(itravian_raidmap
raid
p1868
(dp1869
g6
I5744
sg7
S'Romani'
p1870
sg9
I0
sg10
I210
sg11
I36
sg12
g13
sg14
S'Richard Neville'
p1871
sba(itravian_raidmap
raid
p1872
(dp1873
g6
I8353
sg7
S'Teutoni'
p1874
sg9
I0
sg10
I209
sg11
I75
sg12
g13
sg14
S'SNICH'
p1875
sba(itravian_raidmap
raid
p1876
(dp1877
g6
I9653
sg7
S'Teutoni'
p1878
sg9
I0
sg10
I165
sg11
I46
sg12
g13
sg14
S'Patavium'
p1879
sba(itravian_raidmap
raid
p1880
(dp1881
g6
I6261
sg7
S'Romani'
p1882
sg9
I0
sg10
I173
sg11
I93
sg12
g13
sg14
S'grande demone'
p1883
sba(itravian_raidmap
raid
p1884
(dp1885
g6
I8353
sg7
S'Teutoni'
p1886
sg9
I0
sg10
I208
sg11
I86
sg12
g13
sg14
S'SNICH'
p1887
sba(itravian_raidmap
raid
p1888
(dp1889
g6
I9653
sg7
S'Teutoni'
p1890
sg9
I0
sg10
I177
sg11
I32
sg12
g13
sg14
S'Patavium'
p1891
sba(itravian_raidmap
raid
p1892
(dp1893
g6
I6261
sg7
S'Romani'
p1894
sg9
I0
sg10
I177
sg11
I102
sg12
g13
sg14
S'grande demone'
p1895
sba(itravian_raidmap
raid
p1896
(dp1897
g6
I6261
sg7
S'Romani'
p1898
sg9
I0
sg10
I182
sg11
I100
sg12
g13
sg14
S'grande demone'
p1899
sba(itravian_raidmap
raid
p1900
(dp1901
g6
I6116
sg7
S'Romani'
p1902
sg9
I0
sg10
I205
sg11
I63
sg12
g13
sg14
S'scavesdude'
p1903
sba(itravian_raidmap
raid
p1904
(dp1905
g6
I6116
sg7
S'Romani'
p1906
sg9
I0
sg10
I205
sg11
I64
sg12
g13
sg14
S'scavesdude'
p1907
sba(itravian_raidmap
raid
p1908
(dp1909
g6
I3325
sg7
S'Galli'
p1910
sg9
I0
sg10
I241
sg11
I67
sg12
g13
sg14
S'Lucya'
p1911
sba(itravian_raidmap
raid
p1912
(dp1913
g6
I6261
sg7
S'Romani'
p1914
sg9
I0
sg10
I184
sg11
I100
sg12
g13
sg14
S'grande demone'
p1915
sba(itravian_raidmap
raid
p1916
(dp1917
g6
I6116
sg7
S'Romani'
p1918
sg9
I0
sg10
I205
sg11
I66
sg12
g13
sg14
S'scavesdude'
p1919
sba(itravian_raidmap
raid
p1920
(dp1921
g6
I6116
sg7
S'Romani'
p1922
sg9
I0
sg10
I206
sg11
I63
sg12
g13
sg14
S'scavesdude'
p1923
sba(itravian_raidmap
raid
p1924
(dp1925
g6
I3325
sg7
S'Galli'
p1926
sg9
I0
sg10
I241
sg11
I68
sg12
g13
sg14
S'Lucya'
p1927
sba(itravian_raidmap
raid
p1928
(dp1929
g6
I6261
sg7
S'Romani'
p1930
sg9
I0
sg10
I184
sg11
I104
sg12
g13
sg14
S'grande demone'
p1931
sba(itravian_raidmap
raid
p1932
(dp1933
g6
I6116
sg7
S'Romani'
p1934
sg9
I0
sg10
I203
sg11
I84
sg12
g13
sg14
S'scavesdude'
p1935
sba(itravian_raidmap
raid
p1936
(dp1937
g6
I6116
sg7
S'Romani'
p1938
sg9
I0
sg10
I204
sg11
I83
sg12
g13
sg14
S'scavesdude'
p1939
sba(itravian_raidmap
raid
p1940
(dp1941
g6
I6116
sg7
S'Romani'
p1942
sg9
I0
sg10
I204
sg11
I84
sg12
g13
sg14
S'scavesdude'
p1943
sba(itravian_raidmap
raid
p1944
(dp1945
g6
I6116
sg7
S'Romani'
p1946
sg9
I0
sg10
I208
sg11
I75
sg12
g13
sg14
S'scavesdude'
p1947
sba(itravian_raidmap
raid
p1948
(dp1949
g6
I8353
sg7
S'Teutoni'
p1950
sg9
I0
sg10
I232
sg11
I88
sg12
g13
sg14
S'SNICH'
p1951
sba(itravian_raidmap
raid
p1952
(dp1953
g6
I8353
sg7
S'Teutoni'
p1954
sg9
I0
sg10
I233
sg11
I91
sg12
g13
sg14
S'SNICH'
p1955
sba(itravian_raidmap
raid
p1956
(dp1957
g6
I3701
sg7
S'Galli'
p1958
sg9
I0
sg10
I237
sg11
I59
sg12
g13
sg14
S'Rickythedragon'
p1959
sba(itravian_raidmap
raid
p1960
(dp1961
g6
I3325
sg7
S'Galli'
p1962
sg9
I0
sg10
I251
sg11
I66
sg12
g13
sg14
S'Lucya'
p1963
sba(itravian_raidmap
raid
p1964
(dp1965
g6
I3701
sg7
S'Galli'
p1966
sg9
I0
sg10
I238
sg11
I59
sg12
g13
sg14
S'Rickythedragon'
p1967
sba(itravian_raidmap
raid
p1968
(dp1969
g6
I3325
sg7
S'Galli'
p1970
sg9
I0
sg10
I253
sg11
I66
sg12
g13
sg14
S'Lucya'
p1971
sba(itravian_raidmap
raid
p1972
(dp1973
g6
I3701
sg7
S'Galli'
p1974
sg9
I0
sg10
I241
sg11
I55
sg12
g13
sg14
S'Rickythedragon'
p1975
sba(itravian_raidmap
raid
p1976
(dp1977
g6
I3701
sg7
S'Galli'
p1978
sg9
I0
sg10
I242
sg11
I54
sg12
g13
sg14
S'Rickythedragon'
p1979
sba(itravian_raidmap
raid
p1980
(dp1981
g6
I3325
sg7
S'Galli'
p1982
sg9
I0
sg10
I253
sg11
I72
sg12
g13
sg14
S'Lucya'
p1983
sba(itravian_raidmap
raid
p1984
(dp1985
g6
I9391
sg7
S'Teutoni'
p1986
sg9
I0
sg10
I219
sg11
I26
sg12
g13
sg14
S'dejan'
p1987
sba(itravian_raidmap
raid
p1988
(dp1989
g6
I9391
sg7
S'Teutoni'
p1990
sg9
I0
sg10
I219
sg11
I28
sg12
g13
sg14
S'dejan'
p1991
sba(itravian_raidmap
raid
p1992
(dp1993
g6
I9391
sg7
S'Teutoni'
p1994
sg9
I0
sg10
I220
sg11
I28
sg12
g13
sg14
S'dejan'
p1995
sba(itravian_raidmap
raid
p1996
(dp1997
g6
I9391
sg7
S'Teutoni'
p1998
sg9
I0
sg10
I220
sg11
I29
sg12
g13
sg14
S'dejan'
p1999
sba(itravian_raidmap
raid
p2000
(dp2001
g6
I9391
sg7
S'Teutoni'
p2002
sg9
I0
sg10
I221
sg11
I29
sg12
g13
sg14
S'dejan'
p2003
sba(itravian_raidmap
raid
p2004
(dp2005
g6
I9391
sg7
S'Teutoni'
p2006
sg9
I0
sg10
I223
sg11
I28
sg12
g13
sg14
S'dejan'
p2007
sba(itravian_raidmap
raid
p2008
(dp2009
g6
I9391
sg7
S'Teutoni'
p2010
sg9
I0
sg10
I224
sg11
I29
sg12
g13
sg14
S'dejan'
p2011
sba(itravian_raidmap
raid
p2012
(dp2013
g6
I9391
sg7
S'Teutoni'
p2014
sg9
I0
sg10
I230
sg11
I37
sg12
g13
sg14
S'dejan'
p2015
sba(itravian_raidmap
raid
p2016
(dp2017
g6
I9391
sg7
S'Teutoni'
p2018
sg9
I0
sg10
I232
sg11
I34
sg12
g13
sg14
S'dejan'
p2019
sba(itravian_raidmap
raid
p2020
(dp2021
g6
I11112
sg7
S'Teutoni'
p2022
sg9
I0
sg10
I159
sg11
I57
sg12
g13
sg14
S'TEUTONICMAN'
p2023
sba(itravian_raidmap
raid
p2024
(dp2025
g6
I11112
sg7
S'Teutoni'
p2026
sg9
I0
sg10
I158
sg11
I60
sg12
g13
sg14
S'TEUTONICMAN'
p2027
sba(itravian_raidmap
raid
p2028
(dp2029
g6
I11112
sg7
S'Teutoni'
p2030
sg9
I0
sg10
I158
sg11
I61
sg12
g13
sg14
S'TEUTONICMAN'
p2031
sba(itravian_raidmap
raid
p2032
(dp2033
g6
I3701
sg7
S'Galli'
p2034
sg9
I0
sg10
I255
sg11
I58
sg12
g13
sg14
S'Rickythedragon'
p2035
sba(itravian_raidmap
raid
p2036
(dp2037
g6
I11112
sg7
S'Teutoni'
p2038
sg9
I0
sg10
I159
sg11
I60
sg12
g13
sg14
S'TEUTONICMAN'
p2039
sba(itravian_raidmap
raid
p2040
(dp2041
g6
I11112
sg7
S'Teutoni'
p2042
sg9
I0
sg10
I159
sg11
I61
sg12
g13
sg14
S'TEUTONICMAN'
p2043
sba(itravian_raidmap
raid
p2044
(dp2045
g6
I11112
sg7
S'Teutoni'
p2046
sg9
I0
sg10
I160
sg11
I60
sg12
g13
sg14
S'TEUTONICMAN'
p2047
sba(itravian_raidmap
raid
p2048
(dp2049
g6
I11112
sg7
S'Teutoni'
p2050
sg9
I0
sg10
I160
sg11
I61
sg12
g13
sg14
S'TEUTONICMAN'
p2051
sba(itravian_raidmap
raid
p2052
(dp2053
g6
I3701
sg7
S'Galli'
p2054
sg9
I0
sg10
I256
sg11
I58
sg12
g13
sg14
S'Rickythedragon'
p2055
sba(itravian_raidmap
raid
p2056
(dp2057
g6
I11112
sg7
S'Teutoni'
p2058
sg9
I0
sg10
I161
sg11
I59
sg12
g13
sg14
S'TEUTONICMAN'
p2059
sba(itravian_raidmap
raid
p2060
(dp2061
g6
I3701
sg7
S'Galli'
p2062
sg9
I0
sg10
I256
sg11
I59
sg12
g13
sg14
S'Rickythedragon'
p2063
sba(itravian_raidmap
raid
p2064
(dp2065
g6
I11112
sg7
S'Teutoni'
p2066
sg9
I0
sg10
I161
sg11
I62
sg12
g13
sg14
S'TEUTONICMAN'
p2067
sba(itravian_raidmap
raid
p2068
(dp2069
g6
I11112
sg7
S'Teutoni'
p2070
sg9
I0
sg10
I162
sg11
I60
sg12
g13
sg14
S'TEUTONICMAN'
p2071
sba(itravian_raidmap
raid
p2072
(dp2073
g6
I11112
sg7
S'Teutoni'
p2074
sg9
I0
sg10
I162
sg11
I63
sg12
g13
sg14
S'TEUTONICMAN'
p2075
sba(itravian_raidmap
raid
p2076
(dp2077
g6
I11112
sg7
S'Teutoni'
p2078
sg9
I0
sg10
I162
sg11
I65
sg12
g13
sg14
S'TEUTONICMAN'
p2079
sba(itravian_raidmap
raid
p2080
(dp2081
g6
I6115
sg7
S'Romani'
p2082
sg9
I0
sg10
I231
sg11
I100
sg12
g13
sg14
S'scavesdude'
p2083
sba(itravian_raidmap
raid
p2084
(dp2085
g6
I6115
sg7
S'Romani'
p2086
sg9
I0
sg10
I232
sg11
I100
sg12
g13
sg14
S'scavesdude'
p2087
sba(itravian_raidmap
raid
p2088
(dp2089
g6
I7914
sg7
S'Romani'
p2090
sg9
I0
sg10
I164
sg11
I84
sg12
g13
sg14
S'noire!'
p2091
sba(itravian_raidmap
raid
p2092
(dp2093
g6
I10017
sg7
S'Teutoni'
p2094
sg9
I0
sg10
I205
sg11
I94
sg12
g13
sg14
S'Mastck'
p2095
sba(itravian_raidmap
raid
p2096
(dp2097
g6
I7914
sg7
S'Romani'
p2098
sg9
I0
sg10
I163
sg11
I87
sg12
g13
sg14
S'noire!'
p2099
sba(itravian_raidmap
raid
p2100
(dp2101
g6
I9619
sg7
S'Teutoni'
p2102
sg9
I0
sg10
I207
sg11
I128
sg12
g13
sg14
S'Archimede'
p2103
sba(itravian_raidmap
raid
p2104
(dp2105
g6
I7914
sg7
S'Romani'
p2106
sg9
I0
sg10
I164
sg11
I88
sg12
g13
sg14
S'noire!'
p2107
sba(itravian_raidmap
raid
p2108
(dp2109
g6
I11112
sg7
S'Teutoni'
p2110
sg9
I0
sg10
I179
sg11
I45
sg12
g13
sg14
S'TEUTONICMAN'
p2111
sba(itravian_raidmap
raid
p2112
(dp2113
g6
I9619
sg7
S'Teutoni'
p2114
sg9
I0
sg10
I207
sg11
I130
sg12
g13
sg14
S'Archimede'
p2115
sba(itravian_raidmap
raid
p2116
(dp2117
g6
I7914
sg7
S'Romani'
p2118
sg9
I0
sg10
I163
sg11
I93
sg12
g13
sg14
S'noire!'
p2119
sba(itravian_raidmap
raid
p2120
(dp2121
g6
I7914
sg7
S'Romani'
p2122
sg9
I0
sg10
I167
sg11
I88
sg12
g13
sg14
S'noire!'
p2123
sba(itravian_raidmap
raid
p2124
(dp2125
g6
I8389
sg7
S'Romani'
p2126
sg9
I0
sg10
I164
sg11
I47
sg12
g13
sg14
S'rusty'
p2127
sba(itravian_raidmap
raid
p2128
(dp2129
g6
I11963
sg7
S'Teutoni'
p2130
sg9
I0
sg10
I142
sg11
I69
sg12
g13
sg14
S'Teutomania'
p2131
sba(itravian_raidmap
raid
p2132
(dp2133
g6
I11963
sg7
S'Teutoni'
p2134
sg9
I0
sg10
I142
sg11
I70
sg12
g13
sg14
S'Teutomania'
p2135
sba(itravian_raidmap
raid
p2136
(dp2137
g6
I11963
sg7
S'Teutoni'
p2138
sg9
I0
sg10
I143
sg11
I69
sg12
g13
sg14
S'Teutomania'
p2139
sba(itravian_raidmap
raid
p2140
(dp2141
g6
I11963
sg7
S'Teutoni'
p2142
sg9
I0
sg10
I143
sg11
I70
sg12
g13
sg14
S'Teutomania'
p2143
sba(itravian_raidmap
raid
p2144
(dp2145
g6
I8389
sg7
S'Romani'
p2146
sg9
I0
sg10
I170
sg11
I41
sg12
g13
sg14
S'rusty'
p2147
sba(itravian_raidmap
raid
p2148
(dp2149
g6
I11963
sg7
S'Teutoni'
p2150
sg9
I0
sg10
I143
sg11
I71
sg12
g13
sg14
S'Teutomania'
p2151
sba(itravian_raidmap
raid
p2152
(dp2153
g6
I11963
sg7
S'Teutoni'
p2154
sg9
I0
sg10
I144
sg11
I69
sg12
g13
sg14
S'Teutomania'
p2155
sba(itravian_raidmap
raid
p2156
(dp2157
g6
I11963
sg7
S'Teutoni'
p2158
sg9
I0
sg10
I144
sg11
I70
sg12
g13
sg14
S'Teutomania'
p2159
sba(itravian_raidmap
raid
p2160
(dp2161
g6
I10017
sg7
S'Teutoni'
p2162
sg9
I0
sg10
I209
sg11
I115
sg12
g13
sg14
S'Mastck'
p2163
sba(itravian_raidmap
raid
p2164
(dp2165
g6
I10017
sg7
S'Teutoni'
p2166
sg9
I0
sg10
I208
sg11
I117
sg12
g13
sg14
S'Mastck'
p2167
sba(itravian_raidmap
raid
p2168
(dp2169
g6
I10017
sg7
S'Teutoni'
p2170
sg9
I0
sg10
I210
sg11
I114
sg12
g13
sg14
S'Mastck'
p2171
sba(itravian_raidmap
raid
p2172
(dp2173
g6
I10017
sg7
S'Teutoni'
p2174
sg9
I0
sg10
I210
sg11
I115
sg12
g13
sg14
S'Mastck'
p2175
sba(itravian_raidmap
raid
p2176
(dp2177
g6
I10017
sg7
S'Teutoni'
p2178
sg9
I0
sg10
I209
sg11
I117
sg12
g13
sg14
S'Mastck'
p2179
sba(itravian_raidmap
raid
p2180
(dp2181
g6
I11963
sg7
S'Teutoni'
p2182
sg9
I0
sg10
I147
sg11
I72
sg12
g13
sg14
S'Teutomania'
p2183
sba(itravian_raidmap
raid
p2184
(dp2185
g6
I6663
sg7
S'Galli'
p2186
sg9
I0
sg10
I149
sg11
I63
sg12
g13
sg14
S'marcopancio'
p2187
sba(itravian_raidmap
raid
p2188
(dp2189
g6
I8535
sg7
S'Romani'
p2190
sg9
I0
sg10
I161
sg11
I74
sg12
g13
sg14
S'homerxxx'
p2191
sba(itravian_raidmap
raid
p2192
(dp2193
g6
I3829
sg7
S'Galli'
p2194
sg9
I0
sg10
I271
sg11
I73
sg12
g13
sg14
S'mauroilgallo'
p2195
sba(itravian_raidmap
raid
p2196
(dp2197
g6
I3829
sg7
S'Galli'
p2198
sg9
I0
sg10
I272
sg11
I73
sg12
g13
sg14
S'mauroilgallo'
p2199
sba(itravian_raidmap
raid
p2200
(dp2201
g6
I8535
sg7
S'Romani'
p2202
sg9
I0
sg10
I167
sg11
I82
sg12
g13
sg14
S'homerxxx'
p2203
sba(itravian_raidmap
raid
p2204
(dp2205
g6
I8535
sg7
S'Romani'
p2206
sg9
I0
sg10
I168
sg11
I80
sg12
g13
sg14
S'homerxxx'
p2207
sba(itravian_raidmap
raid
p2208
(dp2209
g6
I8535
sg7
S'Romani'
p2210
sg9
I0
sg10
I168
sg11
I81
sg12
g13
sg14
S'homerxxx'
p2211
sba(itravian_raidmap
raid
p2212
(dp2213
g6
I8535
sg7
S'Romani'
p2214
sg9
I0
sg10
I163
sg11
I91
sg12
g13
sg14
S'homerxxx'
p2215
sba(itravian_raidmap
raid
p2216
(dp2217
g6
I8535
sg7
S'Romani'
p2218
sg9
I0
sg10
I164
sg11
I91
sg12
g13
sg14
S'homerxxx'
p2219
sba(itravian_raidmap
raid
p2220
(dp2221
g6
I5222
sg7
S'Galli'
p2222
sg9
I0
sg10
I229
sg11
I53
sg12
g13
sg14
S'mikelanzi'
p2223
sba(itravian_raidmap
raid
p2224
(dp2225
g6
I5222
sg7
S'Galli'
p2226
sg9
I0
sg10
I230
sg11
I53
sg12
g13
sg14
S'mikelanzi'
p2227
sba(itravian_raidmap
raid
p2228
(dp2229
g6
I12317
sg7
S'Teutoni'
p2230
sg9
I0
sg10
I184
sg11
I30
sg12
g13
sg14
S'Dom89'
p2231
sba(itravian_raidmap
raid
p2232
(dp2233
g6
I12317
sg7
S'Teutoni'
p2234
sg9
I0
sg10
I185
sg11
I30
sg12
g13
sg14
S'Dom89'
p2235
sba(itravian_raidmap
raid
p2236
(dp2237
g6
I9054
sg7
S'Romani'
p2238
sg9
I0
sg10
I176
sg11
I48
sg12
g13
sg14
S'livio71'
p2239
sba(itravian_raidmap
raid
p2240
(dp2241
g6
I9054
sg7
S'Romani'
p2242
sg9
I0
sg10
I175
sg11
I53
sg12
g13
sg14
S'livio71'
p2243
sba(itravian_raidmap
raid
p2244
(dp2245
g6
I9054
sg7
S'Romani'
p2246
sg9
I0
sg10
I177
sg11
I48
sg12
g13
sg14
S'livio71'
p2247
sba(itravian_raidmap
raid
p2248
(dp2249
g6
I9054
sg7
S'Romani'
p2250
sg9
I0
sg10
I178
sg11
I47
sg12
g13
sg14
S'livio71'
p2251
sba(itravian_raidmap
raid
p2252
(dp2253
g6
I9054
sg7
S'Romani'
p2254
sg9
I0
sg10
I178
sg11
I49
sg12
g13
sg14
S'livio71'
p2255
sba(itravian_raidmap
raid
p2256
(dp2257
g6
I8389
sg7
S'Romani'
p2258
sg9
I0
sg10
I204
sg11
I55
sg12
g13
sg14
S'rusty'
p2259
sba(itravian_raidmap
raid
p2260
(dp2261
g6
I12317
sg7
S'Teutoni'
p2262
sg9
I0
sg10
I189
sg11
I29
sg12
g13
sg14
S'Dom89'
p2263
sba(itravian_raidmap
raid
p2264
(dp2265
g6
I8389
sg7
S'Romani'
p2266
sg9
I0
sg10
I205
sg11
I54
sg12
g13
sg14
S'rusty'
p2267
sba(itravian_raidmap
raid
p2268
(dp2269
g6
I8389
sg7
S'Romani'
p2270
sg9
I0
sg10
I205
sg11
I55
sg12
g13
sg14
S'rusty'
p2271
sba(itravian_raidmap
raid
p2272
(dp2273
g6
I9054
sg7
S'Romani'
p2274
sg9
I0
sg10
I179
sg11
I50
sg12
g13
sg14
S'livio71'
p2275
sba(itravian_raidmap
raid
p2276
(dp2277
g6
I9054
sg7
S'Romani'
p2278
sg9
I0
sg10
I179
sg11
I52
sg12
g13
sg14
S'livio71'
p2279
sba(itravian_raidmap
raid
p2280
(dp2281
g6
I12317
sg7
S'Teutoni'
p2282
sg9
I0
sg10
I190
sg11
I38
sg12
g13
sg14
S'Dom89'
p2283
sba(itravian_raidmap
raid
p2284
(dp2285
g6
I12317
sg7
S'Teutoni'
p2286
sg9
I0
sg10
I191
sg11
I36
sg12
g13
sg14
S'Dom89'
p2287
sba(itravian_raidmap
raid
p2288
(dp2289
g6
I8389
sg7
S'Romani'
p2290
sg9
I0
sg10
I208
sg11
I51
sg12
g13
sg14
S'rusty'
p2291
sba(itravian_raidmap
raid
p2292
(dp2293
g6
I12317
sg7
S'Teutoni'
p2294
sg9
I0
sg10
I191
sg11
I38
sg12
g13
sg14
S'Dom89'
p2295
sba(itravian_raidmap
raid
p2296
(dp2297
g6
I12317
sg7
S'Teutoni'
p2298
sg9
I0
sg10
I192
sg11
I36
sg12
g13
sg14
S'Dom89'
p2299
sba(itravian_raidmap
raid
p2300
(dp2301
g6
I9054
sg7
S'Romani'
p2302
sg9
I0
sg10
I180
sg11
I56
sg12
g13
sg14
S'livio71'
p2303
sba(itravian_raidmap
raid
p2304
(dp2305
g6
I12317
sg7
S'Teutoni'
p2306
sg9
I0
sg10
I193
sg11
I34
sg12
g13
sg14
S'Dom89'
p2307
sba(itravian_raidmap
raid
p2308
(dp2309
g6
I12317
sg7
S'Teutoni'
p2310
sg9
I0
sg10
I192
sg11
I40
sg12
g13
sg14
S'Dom89'
p2311
sba(itravian_raidmap
raid
p2312
(dp2313
g6
I8389
sg7
S'Romani'
p2314
sg9
I0
sg10
I210
sg11
I49
sg12
g13
sg14
S'rusty'
p2315
sba(itravian_raidmap
raid
p2316
(dp2317
g6
I12317
sg7
S'Teutoni'
p2318
sg9
I0
sg10
I193
sg11
I36
sg12
g13
sg14
S'Dom89'
p2319
sba(itravian_raidmap
raid
p2320
(dp2321
g6
I12317
sg7
S'Teutoni'
p2322
sg9
I0
sg10
I193
sg11
I37
sg12
g13
sg14
S'Dom89'
p2323
sba(itravian_raidmap
raid
p2324
(dp2325
g6
I8389
sg7
S'Romani'
p2326
sg9
I0
sg10
I211
sg11
I48
sg12
g13
sg14
S'rusty'
p2327
sba(itravian_raidmap
raid
p2328
(dp2329
g6
I12317
sg7
S'Teutoni'
p2330
sg9
I0
sg10
I194
sg11
I38
sg12
g13
sg14
S'Dom89'
p2331
sba(itravian_raidmap
raid
p2332
(dp2333
g6
I9054
sg7
S'Romani'
p2334
sg9
I0
sg10
I182
sg11
I56
sg12
g13
sg14
S'livio71'
p2335
sba(itravian_raidmap
raid
p2336
(dp2337
g6
I8389
sg7
S'Romani'
p2338
sg9
I0
sg10
I212
sg11
I49
sg12
g13
sg14
S'rusty'
p2339
sba(itravian_raidmap
raid
p2340
(dp2341
g6
I9054
sg7
S'Romani'
p2342
sg9
I0
sg10
I186
sg11
I45
sg12
g13
sg14
S'livio71'
p2343
sba(itravian_raidmap
raid
p2344
(dp2345
g6
I5804
sg7
S'Galli'
p2346
sg9
I0
sg10
I207
sg11
I100
sg12
g13
sg14
S'yuma'
p2347
sba(itravian_raidmap
raid
p2348
(dp2349
g6
I5804
sg7
S'Galli'
p2350
sg9
I0
sg10
I208
sg11
I99
sg12
g13
sg14
S'yuma'
p2351
sba(itravian_raidmap
raid
p2352
(dp2353
g6
I12317
sg7
S'Teutoni'
p2354
sg9
I0
sg10
I198
sg11
I36
sg12
g13
sg14
S'Dom89'
p2355
sba(itravian_raidmap
raid
p2356
(dp2357
g6
I12317
sg7
S'Teutoni'
p2358
sg9
I0
sg10
I199
sg11
I40
sg12
g13
sg14
S'Dom89'
p2359
sba(itravian_raidmap
raid
p2360
(dp2361
g6
I13392
sg7
S'Teutoni'
p2362
sg9
I0
sg10
I144
sg11
I71
sg12
g13
sg14
S'artemisia'
p2363
sba(itravian_raidmap
raid
p2364
(dp2365
g6
I9054
sg7
S'Romani'
p2366
sg9
I0
sg10
I189
sg11
I63
sg12
g13
sg14
S'livio71'
p2367
sba(itravian_raidmap
raid
p2368
(dp2369
g6
I5804
sg7
S'Galli'
p2370
sg9
I0
sg10
I212
sg11
I103
sg12
g13
sg14
S'yuma'
p2371
sba(itravian_raidmap
raid
p2372
(dp2373
g6
I5804
sg7
S'Galli'
p2374
sg9
I0
sg10
I213
sg11
I103
sg12
g13
sg14
S'yuma'
p2375
sba(itravian_raidmap
raid
p2376
(dp2377
g6
I7751
sg7
S'Romani'
p2378
sg9
I0
sg10
I239
sg11
I90
sg12
g13
sg14
S'brodway'
p2379
sba(itravian_raidmap
raid
p2380
(dp2381
g6
I13390
sg7
S'Teutoni'
p2382
sg9
I0
sg10
I160
sg11
I73
sg12
g13
sg14
S'artemisia'
p2383
sba(itravian_raidmap
raid
p2384
(dp2385
g6
I9450
sg7
S'Romani'
p2386
sg9
I0
sg10
I191
sg11
I19
sg12
g13
sg14
S'Tetris'
p2387
sba(itravian_raidmap
raid
p2388
(dp2389
g6
I9450
sg7
S'Romani'
p2390
sg9
I0
sg10
I191
sg11
I20
sg12
g13
sg14
S'Tetris'
p2391
sba(itravian_raidmap
raid
p2392
(dp2393
g6
I9450
sg7
S'Romani'
p2394
sg9
I0
sg10
I191
sg11
I21
sg12
g13
sg14
S'Tetris'
p2395
sba(itravian_raidmap
raid
p2396
(dp2397
g6
I13390
sg7
S'Teutoni'
p2398
sg9
I0
sg10
I163
sg11
I73
sg12
g13
sg14
S'artemisia'
p2399
sba(itravian_raidmap
raid
p2400
(dp2401
g6
I7751
sg7
S'Romani'
p2402
sg9
I0
sg10
I247
sg11
I88
sg12
g13
sg14
S'brodway'
p2403
sba(itravian_raidmap
raid
p2404
(dp2405
g6
I9979
sg7
S'Romani'
p2406
sg9
I0
sg10
I168
sg11
I46
sg12
g13
sg14
S'binik'
p2407
sba(itravian_raidmap
raid
p2408
(dp2409
g6
I7751
sg7
S'Romani'
p2410
sg9
I0
sg10
I252
sg11
I82
sg12
g13
sg14
S'brodway'
p2411
sba(itravian_raidmap
raid
p2412
(dp2413
g6
I7751
sg7
S'Romani'
p2414
sg9
I0
sg10
I251
sg11
I86
sg12
g13
sg14
S'brodway'
p2415
sba(itravian_raidmap
raid
p2416
(dp2417
g6
I7751
sg7
S'Romani'
p2418
sg9
I0
sg10
I260
sg11
I81
sg12
g13
sg14
S'brodway'
p2419
sba(itravian_raidmap
raid
p2420
(dp2421
g6
I12354
sg7
S'Teutoni'
p2422
sg9
I0
sg10
I226
sg11
I82
sg12
g13
sg14
S'aglianico'
p2423
sba(itravian_raidmap
raid
p2424
(dp2425
g6
I12354
sg7
S'Teutoni'
p2426
sg9
I0
sg10
I227
sg11
I82
sg12
g13
sg14
S'aglianico'
p2427
sba(itravian_raidmap
raid
p2428
(dp2429
g6
I9979
sg7
S'Romani'
p2430
sg9
I0
sg10
I185
sg11
I40
sg12
g13
sg14
S'binik'
p2431
sba(itravian_raidmap
raid
p2432
(dp2433
g6
I14465
sg7
S'Teutoni'
p2434
sg9
I0
sg10
I149
sg11
I60
sg12
g13
sg14
S'lanpizva'
p2435
sba(itravian_raidmap
raid
p2436
(dp2437
g6
I14465
sg7
S'Teutoni'
p2438
sg9
I0
sg10
I150
sg11
I60
sg12
g13
sg14
S'lanpizva'
p2439
sba(itravian_raidmap
raid
p2440
(dp2441
g6
I9979
sg7
S'Romani'
p2442
sg9
I0
sg10
I188
sg11
I48
sg12
g13
sg14
S'binik'
p2443
sba(itravian_raidmap
raid
p2444
(dp2445
g6
I9979
sg7
S'Romani'
p2446
sg9
I0
sg10
I189
sg11
I46
sg12
g13
sg14
S'binik'
p2447
sba(itravian_raidmap
raid
p2448
(dp2449
g6
I9979
sg7
S'Romani'
p2450
sg9
I0
sg10
I189
sg11
I47
sg12
g13
sg14
S'binik'
p2451
sba(itravian_raidmap
raid
p2452
(dp2453
g6
I9979
sg7
S'Romani'
p2454
sg9
I0
sg10
I189
sg11
I48
sg12
g13
sg14
S'binik'
p2455
sba(itravian_raidmap
raid
p2456
(dp2457
g6
I9979
sg7
S'Romani'
p2458
sg9
I0
sg10
I189
sg11
I49
sg12
g13
sg14
S'binik'
p2459
sba(itravian_raidmap
raid
p2460
(dp2461
g6
I9979
sg7
S'Romani'
p2462
sg9
I0
sg10
I190
sg11
I48
sg12
g13
sg14
S'binik'
p2463
sba(itravian_raidmap
raid
p2464
(dp2465
g6
I9979
sg7
S'Romani'
p2466
sg9
I0
sg10
I190
sg11
I49
sg12
g13
sg14
S'binik'
p2467
sba(itravian_raidmap
raid
p2468
(dp2469
g6
I9979
sg7
S'Romani'
p2470
sg9
I0
sg10
I191
sg11
I46
sg12
g13
sg14
S'binik'
p2471
sba(itravian_raidmap
raid
p2472
(dp2473
g6
I9979
sg7
S'Romani'
p2474
sg9
I0
sg10
I191
sg11
I48
sg12
g13
sg14
S'binik'
p2475
sba(itravian_raidmap
raid
p2476
(dp2477
g6
I14465
sg7
S'Teutoni'
p2478
sg9
I0
sg10
I156
sg11
I62
sg12
g13
sg14
S'lanpizva'
p2479
sba(itravian_raidmap
raid
p2480
(dp2481
g6
I9054
sg7
S'Romani'
p2482
sg9
I0
sg10
I218
sg11
I88
sg12
g13
sg14
S'livio71'
p2483
sba(itravian_raidmap
raid
p2484
(dp2485
g6
I13000
sg7
S'Teutoni'
p2486
sg9
I0
sg10
I193
sg11
I120
sg12
g13
sg14
S'avetowrc'
p2487
sba(itravian_raidmap
raid
p2488
(dp2489
g6
I9979
sg7
S'Romani'
p2490
sg9
I0
sg10
I193
sg11
I50
sg12
g13
sg14
S'binik'
p2491
sba(itravian_raidmap
raid
p2492
(dp2493
g6
I9979
sg7
S'Romani'
p2494
sg9
I0
sg10
I195
sg11
I45
sg12
g13
sg14
S'binik'
p2495
sba(itravian_raidmap
raid
p2496
(dp2497
g6
I9979
sg7
S'Romani'
p2498
sg9
I0
sg10
I190
sg11
I65
sg12
g13
sg14
S'binik'
p2499
sba(itravian_raidmap
raid
p2500
(dp2501
g6
I9979
sg7
S'Romani'
p2502
sg9
I0
sg10
I192
sg11
I62
sg12
g13
sg14
S'binik'
p2503
sba(itravian_raidmap
raid
p2504
(dp2505
g6
I9979
sg7
S'Romani'
p2506
sg9
I0
sg10
I190
sg11
I70
sg12
g13
sg14
S'binik'
p2507
sba(itravian_raidmap
raid
p2508
(dp2509
g6
I9979
sg7
S'Romani'
p2510
sg9
I0
sg10
I193
sg11
I62
sg12
g13
sg14
S'binik'
p2511
sba(itravian_raidmap
raid
p2512
(dp2513
g6
I9321
sg7
S'Romani'
p2514
sg9
I0
sg10
I225
sg11
I48
sg12
g13
sg14
S'THC'
p2515
sba(itravian_raidmap
raid
p2516
(dp2517
g6
I9321
sg7
S'Romani'
p2518
sg9
I0
sg10
I225
sg11
I49
sg12
g13
sg14
S'THC'
p2519
sba(itravian_raidmap
raid
p2520
(dp2521
g6
I9321
sg7
S'Romani'
p2522
sg9
I0
sg10
I225
sg11
I51
sg12
g13
sg14
S'THC'
p2523
sba(itravian_raidmap
raid
p2524
(dp2525
g6
I9321
sg7
S'Romani'
p2526
sg9
I0
sg10
I226
sg11
I47
sg12
g13
sg14
S'THC'
p2527
sba(itravian_raidmap
raid
p2528
(dp2529
g6
I9321
sg7
S'Romani'
p2530
sg9
I0
sg10
I226
sg11
I49
sg12
g13
sg14
S'THC'
p2531
sba(itravian_raidmap
raid
p2532
(dp2533
g6
I14465
sg7
S'Teutoni'
p2534
sg9
I0
sg10
I167
sg11
I58
sg12
g13
sg14
S'lanpizva'
p2535
sba(itravian_raidmap
raid
p2536
(dp2537
g6
I9321
sg7
S'Romani'
p2538
sg9
I0
sg10
I227
sg11
I47
sg12
g13
sg14
S'THC'
p2539
sba(itravian_raidmap
raid
p2540
(dp2541
g6
I9321
sg7
S'Romani'
p2542
sg9
I0
sg10
I227
sg11
I49
sg12
g13
sg14
S'THC'
p2543
sba(itravian_raidmap
raid
p2544
(dp2545
g6
I9321
sg7
S'Romani'
p2546
sg9
I0
sg10
I227
sg11
I50
sg12
g13
sg14
S'THC'
p2547
sba(itravian_raidmap
raid
p2548
(dp2549
g6
I9321
sg7
S'Romani'
p2550
sg9
I0
sg10
I227
sg11
I51
sg12
g13
sg14
S'THC'
p2551
sba(itravian_raidmap
raid
p2552
(dp2553
g6
I9321
sg7
S'Romani'
p2554
sg9
I0
sg10
I228
sg11
I47
sg12
g13
sg14
S'THC'
p2555
sba(itravian_raidmap
raid
p2556
(dp2557
g6
I9321
sg7
S'Romani'
p2558
sg9
I0
sg10
I228
sg11
I49
sg12
g13
sg14
S'THC'
p2559
sba(itravian_raidmap
raid
p2560
(dp2561
g6
I9321
sg7
S'Romani'
p2562
sg9
I0
sg10
I228
sg11
I50
sg12
g13
sg14
S'THC'
p2563
sba(itravian_raidmap
raid
p2564
(dp2565
g6
I9321
sg7
S'Romani'
p2566
sg9
I0
sg10
I228
sg11
I51
sg12
g13
sg14
S'THC'
p2567
sba(itravian_raidmap
raid
p2568
(dp2569
g6
I9321
sg7
S'Romani'
p2570
sg9
I0
sg10
I229
sg11
I48
sg12
g13
sg14
S'THC'
p2571
sba(itravian_raidmap
raid
p2572
(dp2573
g6
I8361
sg7
S'Galli'
p2574
sg9
I0
sg10
I168
sg11
I48
sg12
g13
sg14
S'carroarmato'
p2575
sba(itravian_raidmap
raid
p2576
(dp2577
g6
I8361
sg7
S'Galli'
p2578
sg9
I0
sg10
I167
sg11
I52
sg12
g13
sg14
S'carroarmato'
p2579
sba(itravian_raidmap
raid
p2580
(dp2581
g6
I8361
sg7
S'Galli'
p2582
sg9
I0
sg10
I169
sg11
I52
sg12
g13
sg14
S'carroarmato'
p2583
sba(itravian_raidmap
raid
p2584
(dp2585
g6
I8361
sg7
S'Galli'
p2586
sg9
I0
sg10
I169
sg11
I53
sg12
g13
sg14
S'carroarmato'
p2587
sba(itravian_raidmap
raid
p2588
(dp2589
g6
I14356
sg7
S'Teutoni'
p2590
sg9
I0
sg10
I173
sg11
I87
sg12
g13
sg14
S'_HeLlLaS_'
p2591
sba(itravian_raidmap
raid
p2592
(dp2593
g6
I8361
sg7
S'Galli'
p2594
sg9
I0
sg10
I171
sg11
I50
sg12
g13
sg14
S'carroarmato'
p2595
sba(itravian_raidmap
raid
p2596
(dp2597
g6
I8361
sg7
S'Galli'
p2598
sg9
I0
sg10
I171
sg11
I51
sg12
g13
sg14
S'carroarmato'
p2599
sba(itravian_raidmap
raid
p2600
(dp2601
g6
I8361
sg7
S'Galli'
p2602
sg9
I0
sg10
I171
sg11
I52
sg12
g13
sg14
S'carroarmato'
p2603
sba(itravian_raidmap
raid
p2604
(dp2605
g6
I8361
sg7
S'Galli'
p2606
sg9
I0
sg10
I172
sg11
I50
sg12
g13
sg14
S'carroarmato'
p2607
sba(itravian_raidmap
raid
p2608
(dp2609
g6
I8361
sg7
S'Galli'
p2610
sg9
I0
sg10
I172
sg11
I51
sg12
g13
sg14
S'carroarmato'
p2611
sba(itravian_raidmap
raid
p2612
(dp2613
g6
I8361
sg7
S'Galli'
p2614
sg9
I0
sg10
I173
sg11
I52
sg12
g13
sg14
S'carroarmato'
p2615
sba(itravian_raidmap
raid
p2616
(dp2617
g6
I8361
sg7
S'Galli'
p2618
sg9
I0
sg10
I173
sg11
I56
sg12
g13
sg14
S'carroarmato'
p2619
sba(itravian_raidmap
raid
p2620
(dp2621
g6
I14356
sg7
S'Teutoni'
p2622
sg9
I0
sg10
I179
sg11
I98
sg12
g13
sg14
S'_HeLlLaS_'
p2623
sba(itravian_raidmap
raid
p2624
(dp2625
g6
I14356
sg7
S'Teutoni'
p2626
sg9
I0
sg10
I179
sg11
I99
sg12
g13
sg14
S'_HeLlLaS_'
p2627
sba(itravian_raidmap
raid
p2628
(dp2629
g6
I6663
sg7
S'Galli'
p2630
sg9
I0
sg10
I244
sg11
I70
sg12
g13
sg14
S'marcopancio'
p2631
sba(itravian_raidmap
raid
p2632
(dp2633
g6
I14356
sg7
S'Teutoni'
p2634
sg9
I0
sg10
I189
sg11
I94
sg12
g13
sg14
S'_HeLlLaS_'
p2635
sba(itravian_raidmap
raid
p2636
(dp2637
g6
I7710
sg7
S'Galli'
p2638
sg9
I0
sg10
I196
sg11
I89
sg12
g13
sg14
S'valer x'
p2639
sba(itravian_raidmap
raid
p2640
(dp2641
g6
I14356
sg7
S'Teutoni'
p2642
sg9
I0
sg10
I189
sg11
I97
sg12
g13
sg14
S'_HeLlLaS_'
p2643
sba(itravian_raidmap
raid
p2644
(dp2645
g6
I6663
sg7
S'Galli'
p2646
sg9
I0
sg10
I251
sg11
I61
sg12
g13
sg14
S'marcopancio'
p2647
sba(itravian_raidmap
raid
p2648
(dp2649
g6
I14356
sg7
S'Teutoni'
p2650
sg9
I0
sg10
I192
sg11
I96
sg12
g13
sg14
S'_HeLlLaS_'
p2651
sba(itravian_raidmap
raid
p2652
(dp2653
g6
I14356
sg7
S'Teutoni'
p2654
sg9
I0
sg10
I194
sg11
I96
sg12
g13
sg14
S'_HeLlLaS_'
p2655
sba(itravian_raidmap
raid
p2656
(dp2657
g6
I14356
sg7
S'Teutoni'
p2658
sg9
I0
sg10
I184
sg11
I114
sg12
g13
sg14
S'_HeLlLaS_'
p2659
sba(itravian_raidmap
raid
p2660
(dp2661
g6
I14356
sg7
S'Teutoni'
p2662
sg9
I0
sg10
I192
sg11
I100
sg12
g13
sg14
S'_HeLlLaS_'
p2663
sba(itravian_raidmap
raid
p2664
(dp2665
g6
I14356
sg7
S'Teutoni'
p2666
sg9
I0
sg10
I192
sg11
I103
sg12
g13
sg14
S'_HeLlLaS_'
p2667
sba(itravian_raidmap
raid
p2668
(dp2669
g6
I7710
sg7
S'Galli'
p2670
sg9
I0
sg10
I200
sg11
I91
sg12
g13
sg14
S'valer x'
p2671
sba(itravian_raidmap
raid
p2672
(dp2673
g6
I14356
sg7
S'Teutoni'
p2674
sg9
I0
sg10
I191
sg11
I106
sg12
g13
sg14
S'_HeLlLaS_'
p2675
sba(itravian_raidmap
raid
p2676
(dp2677
g6
I14356
sg7
S'Teutoni'
p2678
sg9
I0
sg10
I199
sg11
I98
sg12
g13
sg14
S'_HeLlLaS_'
p2679
sba(itravian_raidmap
raid
p2680
(dp2681
g6
I14356
sg7
S'Teutoni'
p2682
sg9
I0
sg10
I195
sg11
I111
sg12
g13
sg14
S'_HeLlLaS_'
p2683
sba(itravian_raidmap
raid
p2684
(dp2685
g6
I14356
sg7
S'Teutoni'
p2686
sg9
I0
sg10
I197
sg11
I108
sg12
g13
sg14
S'_HeLlLaS_'
p2687
sba(itravian_raidmap
raid
p2688
(dp2689
g6
I14356
sg7
S'Teutoni'
p2690
sg9
I0
sg10
I205
sg11
I95
sg12
g13
sg14
S'_HeLlLaS_'
p2691
sba(itravian_raidmap
raid
p2692
(dp2693
g6
I14356
sg7
S'Teutoni'
p2694
sg9
I0
sg10
I205
sg11
I96
sg12
g13
sg14
S'_HeLlLaS_'
p2695
sba(itravian_raidmap
raid
p2696
(dp2697
g6
I8167
sg7
S'Galli'
p2698
sg9
I0
sg10
I178
sg11
I108
sg12
g13
sg14
S'fuvin'
p2699
sba(itravian_raidmap
raid
p2700
(dp2701
g6
I10871
sg7
S'Romani'
p2702
sg9
I0
sg10
I185
sg11
I96
sg12
g13
sg14
S'Stomoxys'
p2703
sba(itravian_raidmap
raid
p2704
(dp2705
g6
I14356
sg7
S'Teutoni'
p2706
sg9
I0
sg10
I204
sg11
I106
sg12
g13
sg14
S'_HeLlLaS_'
p2707
sba(itravian_raidmap
raid
p2708
(dp2709
g6
I8167
sg7
S'Galli'
p2710
sg9
I0
sg10
I182
sg11
I105
sg12
g13
sg14
S'fuvin'
p2711
sba(itravian_raidmap
raid
p2712
(dp2713
g6
I15249
sg7
S'Teutoni'
p2714
sg9
I0
sg10
I199
sg11
I11
sg12
g13
sg14
S'-M-'
p2715
sba(itravian_raidmap
raid
p2716
(dp2717
g6
I15249
sg7
S'Teutoni'
p2718
sg9
I0
sg10
I199
sg11
I12
sg12
g13
sg14
S'-M-'
p2719
sba(itravian_raidmap
raid
p2720
(dp2721
g6
I15249
sg7
S'Teutoni'
p2722
sg9
I0
sg10
I199
sg11
I19
sg12
g13
sg14
S'-M-'
p2723
sba(itravian_raidmap
raid
p2724
(dp2725
g6
I10871
sg7
S'Romani'
p2726
sg9
I0
sg10
I185
sg11
I108
sg12
g13
sg14
S'Stomoxys'
p2727
sba(itravian_raidmap
raid
p2728
(dp2729
g6
I15249
sg7
S'Teutoni'
p2730
sg9
I0
sg10
I202
sg11
I13
sg12
g13
sg14
S'-M-'
p2731
sba(itravian_raidmap
raid
p2732
(dp2733
g6
I10871
sg7
S'Romani'
p2734
sg9
I0
sg10
I187
sg11
I113
sg12
g13
sg14
S'Stomoxys'
p2735
sba(itravian_raidmap
raid
p2736
(dp2737
g6
I15249
sg7
S'Teutoni'
p2738
sg9
I0
sg10
I210
sg11
I13
sg12
g13
sg14
S'-M-'
p2739
sba(itravian_raidmap
raid
p2740
(dp2741
g6
I10871
sg7
S'Romani'
p2742
sg9
I0
sg10
I207
sg11
I95
sg12
g13
sg14
S'Stomoxys'
p2743
sba(itravian_raidmap
raid
p2744
(dp2745
g6
I8167
sg7
S'Galli'
p2746
sg9
I0
sg10
I203
sg11
I103
sg12
g13
sg14
S'fuvin'
p2747
sba(itravian_raidmap
raid
p2748
(dp2749
g6
I8167
sg7
S'Galli'
p2750
sg9
I0
sg10
I203
sg11
I109
sg12
g13
sg14
S'fuvin'
p2751
sba(itravian_raidmap
raid
p2752
(dp2753
g6
I8167
sg7
S'Galli'
p2754
sg9
I0
sg10
I211
sg11
I97
sg12
g13
sg14
S'fuvin'
p2755
sba(itravian_raidmap
raid
p2756
(dp2757
g6
I8167
sg7
S'Galli'
p2758
sg9
I0
sg10
I224
sg11
I98
sg12
g13
sg14
S'fuvin'
p2759
sba(itravian_raidmap
raid
p2760
(dp2761
g6
I9147
sg7
S'Galli'
p2762
sg9
I0
sg10
I213
sg11
I24
sg12
g13
sg14
S'Tosondoro'
p2763
sba(itravian_raidmap
raid
p2764
(dp2765
g6
I12777
sg7
S'Romani'
p2766
sg9
I0
sg10
I185
sg11
I38
sg12
g13
sg14
S'kanaki'
p2767
sba(itravian_raidmap
raid
p2768
(dp2769
g6
I9147
sg7
S'Galli'
p2770
sg9
I0
sg10
I218
sg11
I23
sg12
g13
sg14
S'Tosondoro'
p2771
sba(itravian_raidmap
raid
p2772
(dp2773
g6
I9147
sg7
S'Galli'
p2774
sg9
I0
sg10
I218
sg11
I24
sg12
g13
sg14
S'Tosondoro'
p2775
sba(itravian_raidmap
raid
p2776
(dp2777
g6
I9147
sg7
S'Galli'
p2778
sg9
I0
sg10
I219
sg11
I19
sg12
g13
sg14
S'Tosondoro'
p2779
sba(itravian_raidmap
raid
p2780
(dp2781
g6
I9147
sg7
S'Galli'
p2782
sg9
I0
sg10
I219
sg11
I23
sg12
g13
sg14
S'Tosondoro'
p2783
sba(itravian_raidmap
raid
p2784
(dp2785
g6
I9147
sg7
S'Galli'
p2786
sg9
I0
sg10
I220
sg11
I18
sg12
g13
sg14
S'Tosondoro'
p2787
sba(itravian_raidmap
raid
p2788
(dp2789
g6
I10061
sg7
S'Galli'
p2790
sg9
I0
sg10
I180
sg11
I78
sg12
g13
sg14
S'gianox'
p2791
sba(itravian_raidmap
raid
p2792
(dp2793
g6
I13838
sg7
S'Romani'
p2794
sg9
I0
sg10
I171
sg11
I48
sg12
g13
sg14
S'dinamite'
p2795
sba(itravian_raidmap
raid
p2796
(dp2797
g6
I9372
sg7
S'Galli'
p2798
sg9
I0
sg10
I201
sg11
I121
sg12
g13
sg14
S'Thomas Magno'
p2799
sba(itravian_raidmap
raid
p2800
(dp2801
g6
I13838
sg7
S'Romani'
p2802
sg9
I0
sg10
I174
sg11
I43
sg12
g13
sg14
S'dinamite'
p2803
sba(itravian_raidmap
raid
p2804
(dp2805
g6
I9372
sg7
S'Galli'
p2806
sg9
I0
sg10
I207
sg11
I117
sg12
g13
sg14
S'Thomas Magno'
p2807
sba(itravian_raidmap
raid
p2808
(dp2809
g6
I13838
sg7
S'Romani'
p2810
sg9
I0
sg10
I179
sg11
I33
sg12
g13
sg14
S'dinamite'
p2811
sba(itravian_raidmap
raid
p2812
(dp2813
g6
I13838
sg7
S'Romani'
p2814
sg9
I0
sg10
I180
sg11
I35
sg12
g13
sg14
S'dinamite'
p2815
sba(itravian_raidmap
raid
p2816
(dp2817
g6
I9372
sg7
S'Galli'
p2818
sg9
I0
sg10
I204
sg11
I126
sg12
g13
sg14
S'Thomas Magno'
p2819
sba(itravian_raidmap
raid
p2820
(dp2821
g6
I9372
sg7
S'Galli'
p2822
sg9
I0
sg10
I213
sg11
I113
sg12
g13
sg14
S'Thomas Magno'
p2823
sba(itravian_raidmap
raid
p2824
(dp2825
g6
I13838
sg7
S'Romani'
p2826
sg9
I0
sg10
I180
sg11
I46
sg12
g13
sg14
S'dinamite'
p2827
sba(itravian_raidmap
raid
p2828
(dp2829
g6
I13838
sg7
S'Romani'
p2830
sg9
I0
sg10
I185
sg11
I32
sg12
g13
sg14
S'dinamite'
p2831
sba(itravian_raidmap
raid
p2832
(dp2833
g6
I13838
sg7
S'Romani'
p2834
sg9
I0
sg10
I186
sg11
I33
sg12
g13
sg14
S'dinamite'
p2835
sba(itravian_raidmap
raid
p2836
(dp2837
g6
I13838
sg7
S'Romani'
p2838
sg9
I0
sg10
I179
sg11
I62
sg12
g13
sg14
S'dinamite'
p2839
sba(itravian_raidmap
raid
p2840
(dp2841
g6
I13838
sg7
S'Romani'
p2842
sg9
I0
sg10
I181
sg11
I62
sg12
g13
sg14
S'dinamite'
p2843
sba(itravian_raidmap
raid
p2844
(dp2845
g6
I13838
sg7
S'Romani'
p2846
sg9
I0
sg10
I192
sg11
I25
sg12
g13
sg14
S'dinamite'
p2847
sba(itravian_raidmap
raid
p2848
(dp2849
g6
I18731
sg7
S'Teutoni'
p2850
sg9
I0
sg10
I176
sg11
I59
sg12
g13
sg14
S'S4RGON'
p2851
sba(itravian_raidmap
raid
p2852
(dp2853
g6
I18731
sg7
S'Teutoni'
p2854
sg9
I0
sg10
I176
sg11
I63
sg12
g13
sg14
S'S4RGON'
p2855
sba(itravian_raidmap
raid
p2856
(dp2857
g6
I13838
sg7
S'Romani'
p2858
sg9
I0
sg10
I194
sg11
I26
sg12
g13
sg14
S'dinamite'
p2859
sba(itravian_raidmap
raid
p2860
(dp2861
g6
I18731
sg7
S'Teutoni'
p2862
sg9
I0
sg10
I172
sg11
I75
sg12
g13
sg14
S'S4RGON'
p2863
sba(itravian_raidmap
raid
p2864
(dp2865
g6
I18731
sg7
S'Teutoni'
p2866
sg9
I0
sg10
I175
sg11
I71
sg12
g13
sg14
S'S4RGON'
p2867
sba(itravian_raidmap
raid
p2868
(dp2869
g6
I18731
sg7
S'Teutoni'
p2870
sg9
I0
sg10
I173
sg11
I77
sg12
g13
sg14
S'S4RGON'
p2871
sba(itravian_raidmap
raid
p2872
(dp2873
g6
I18731
sg7
S'Teutoni'
p2874
sg9
I0
sg10
I179
sg11
I64
sg12
g13
sg14
S'S4RGON'
p2875
sba(itravian_raidmap
raid
p2876
(dp2877
g6
I18731
sg7
S'Teutoni'
p2878
sg9
I0
sg10
I173
sg11
I80
sg12
g13
sg14
S'S4RGON'
p2879
sba(itravian_raidmap
raid
p2880
(dp2881
g6
I18731
sg7
S'Teutoni'
p2882
sg9
I0
sg10
I179
sg11
I66
sg12
g13
sg14
S'S4RGON'
p2883
sba(itravian_raidmap
raid
p2884
(dp2885
g6
I18731
sg7
S'Teutoni'
p2886
sg9
I0
sg10
I177
sg11
I73
sg12
g13
sg14
S'S4RGON'
p2887
sba(itravian_raidmap
raid
p2888
(dp2889
g6
I18731
sg7
S'Teutoni'
p2890
sg9
I0
sg10
I182
sg11
I60
sg12
g13
sg14
S'S4RGON'
p2891
sba(itravian_raidmap
raid
p2892
(dp2893
g6
I18731
sg7
S'Teutoni'
p2894
sg9
I0
sg10
I181
sg11
I64
sg12
g13
sg14
S'S4RGON'
p2895
sba(itravian_raidmap
raid
p2896
(dp2897
g6
I14692
sg7
S'Romani'
p2898
sg9
I0
sg10
I152
sg11
I65
sg12
g13
sg14
S'Ganja Lover'
p2899
sba(itravian_raidmap
raid
p2900
(dp2901
g6
I14692
sg7
S'Romani'
p2902
sg9
I0
sg10
I153
sg11
I63
sg12
g13
sg14
S'Ganja Lover'
p2903
sba(itravian_raidmap
raid
p2904
(dp2905
g6
I18731
sg7
S'Teutoni'
p2906
sg9
I0
sg10
I183
sg11
I63
sg12
g13
sg14
S'S4RGON'
p2907
sba(itravian_raidmap
raid
p2908
(dp2909
g6
I14692
sg7
S'Romani'
p2910
sg9
I0
sg10
I154
sg11
I64
sg12
g13
sg14
S'Ganja Lover'
p2911
sba(itravian_raidmap
raid
p2912
(dp2913
g6
I18731
sg7
S'Teutoni'
p2914
sg9
I0
sg10
I183
sg11
I64
sg12
g13
sg14
S'S4RGON'
p2915
sba(itravian_raidmap
raid
p2916
(dp2917
g6
I18731
sg7
S'Teutoni'
p2918
sg9
I0
sg10
I181
sg11
I70
sg12
g13
sg14
S'S4RGON'
p2919
sba(itravian_raidmap
raid
p2920
(dp2921
g6
I18731
sg7
S'Teutoni'
p2922
sg9
I0
sg10
I183
sg11
I65
sg12
g13
sg14
S'S4RGON'
p2923
sba(itravian_raidmap
raid
p2924
(dp2925
g6
I14692
sg7
S'Romani'
p2926
sg9
I0
sg10
I152
sg11
I74
sg12
g13
sg14
S'Ganja Lover'
p2927
sba(itravian_raidmap
raid
p2928
(dp2929
g6
I14692
sg7
S'Romani'
p2930
sg9
I0
sg10
I157
sg11
I64
sg12
g13
sg14
S'Ganja Lover'
p2931
sba(itravian_raidmap
raid
p2932
(dp2933
g6
I14692
sg7
S'Romani'
p2934
sg9
I0
sg10
I160
sg11
I57
sg12
g13
sg14
S'Ganja Lover'
p2935
sba(itravian_raidmap
raid
p2936
(dp2937
g6
I18731
sg7
S'Teutoni'
p2938
sg9
I0
sg10
I186
sg11
I69
sg12
g13
sg14
S'S4RGON'
p2939
sba(itravian_raidmap
raid
p2940
(dp2941
g6
I18731
sg7
S'Teutoni'
p2942
sg9
I0
sg10
I189
sg11
I64
sg12
g13
sg14
S'S4RGON'
p2943
sba(itravian_raidmap
raid
p2944
(dp2945
g6
I18731
sg7
S'Teutoni'
p2946
sg9
I0
sg10
I184
sg11
I78
sg12
g13
sg14
S'S4RGON'
p2947
sba(itravian_raidmap
raid
p2948
(dp2949
g6
I14692
sg7
S'Romani'
p2950
sg9
I0
sg10
I166
sg11
I60
sg12
g13
sg14
S'Ganja Lover'
p2951
sba(itravian_raidmap
raid
p2952
(dp2953
g6
I10061
sg7
S'Galli'
p2954
sg9
I0
sg10
I232
sg11
I41
sg12
g13
sg14
S'gianox'
p2955
sba(itravian_raidmap
raid
p2956
(dp2957
g6
I14692
sg7
S'Romani'
p2958
sg9
I0
sg10
I167
sg11
I63
sg12
g13
sg14
S'Ganja Lover'
p2959
sba(itravian_raidmap
raid
p2960
(dp2961
g6
I18731
sg7
S'Teutoni'
p2962
sg9
I0
sg10
I195
sg11
I92
sg12
g13
sg14
S'S4RGON'
p2963
sba(itravian_raidmap
raid
p2964
(dp2965
g6
I14692
sg7
S'Romani'
p2966
sg9
I0
sg10
I167
sg11
I80
sg12
g13
sg14
S'Ganja Lover'
p2967
sba(itravian_raidmap
raid
p2968
(dp2969
g6
I14692
sg7
S'Romani'
p2970
sg9
I0
sg10
I182
sg11
I48
sg12
g13
sg14
S'Ganja Lover'
p2971
sba(itravian_raidmap
raid
p2972
(dp2973
g6
I18731
sg7
S'Teutoni'
p2974
sg9
I0
sg10
I215
sg11
I62
sg12
g13
sg14
S'S4RGON'
p2975
sba(itravian_raidmap
raid
p2976
(dp2977
g6
I18731
sg7
S'Teutoni'
p2978
sg9
I0
sg10
I207
sg11
I89
sg12
g13
sg14
S'S4RGON'
p2979
sba(itravian_raidmap
raid
p2980
(dp2981
g6
I14692
sg7
S'Romani'
p2982
sg9
I0
sg10
I186
sg11
I68
sg12
g13
sg14
S'Ganja Lover'
p2983
sba(itravian_raidmap
raid
p2984
(dp2985
g6
I13515
sg7
S'Romani'
p2986
sg9
I0
sg10
I223
sg11
I119
sg12
g13
sg14
S'ga-ste'
p2987
sba(itravian_raidmap
raid
p2988
(dp2989
g6
I10061
sg7
S'Galli'
p2990
sg9
I0
sg10
I245
sg11
I84
sg12
g13
sg14
S'gianox'
p2991
sba(itravian_raidmap
raid
p2992
(dp2993
g6
I10061
sg7
S'Galli'
p2994
sg9
I0
sg10
I251
sg11
I77
sg12
g13
sg14
S'gianox'
p2995
sba(itravian_raidmap
raid
p2996
(dp2997
g6
I10061
sg7
S'Galli'
p2998
sg9
I0
sg10
I256
sg11
I87
sg12
g13
sg14
S'gianox'
p2999
sba(itravian_raidmap
raid
p3000
(dp3001
g6
I10061
sg7
S'Galli'
p3002
sg9
I0
sg10
I264
sg11
I73
sg12
g13
sg14
S'gianox'
p3003
sba(itravian_raidmap
raid
p3004
(dp3005
g6
I12464
sg7
S'Galli'
p3006
sg9
I0
sg10
I198
sg11
I83
sg12
g13
sg14
S'Mighel'
p3007
sba(itravian_raidmap
raid
p3008
(dp3009
g6
I12464
sg7
S'Galli'
p3010
sg9
I0
sg10
I202
sg11
I77
sg12
g13
sg14
S'Mighel'
p3011
sba(itravian_raidmap
raid
p3012
(dp3013
g6
I12464
sg7
S'Galli'
p3014
sg9
I0
sg10
I202
sg11
I81
sg12
g13
sg14
S'Mighel'
p3015
sba(itravian_raidmap
raid
p3016
(dp3017
g6
I17975
sg7
S'Romani'
p3018
sg9
I0
sg10
I196
sg11
I36
sg12
g13
sg14
S'KiRaG'
p3019
sba(itravian_raidmap
raid
p3020
(dp3021
g6
I17975
sg7
S'Romani'
p3022
sg9
I0
sg10
I202
sg11
I29
sg12
g13
sg14
S'KiRaG'
p3023
sba(itravian_raidmap
raid
p3024
(dp3025
g6
I17975
sg7
S'Romani'
p3026
sg9
I0
sg10
I208
sg11
I28
sg12
g13
sg14
S'KiRaG'
p3027
sba(itravian_raidmap
raid
p3028
(dp3029
g6
I17975
sg7
S'Romani'
p3030
sg9
I0
sg10
I210
sg11
I24
sg12
g13
sg14
S'KiRaG'
p3031
sba(itravian_raidmap
raid
p3032
(dp3033
g6
I17975
sg7
S'Romani'
p3034
sg9
I0
sg10
I210
sg11
I30
sg12
g13
sg14
S'KiRaG'
p3035
sba(itravian_raidmap
raid
p3036
(dp3037
g6
I24868
sg7
S'Teutoni'
p3038
sg9
I0
sg10
I161
sg11
I57
sg12
g13
sg14
S'mezzodestro'
p3039
sba(itravian_raidmap
raid
p3040
(dp3041
g6
I17975
sg7
S'Romani'
p3042
sg9
I0
sg10
I212
sg11
I30
sg12
g13
sg14
S'KiRaG'
p3043
sba(itravian_raidmap
raid
p3044
(dp3045
g6
I24868
sg7
S'Teutoni'
p3046
sg9
I0
sg10
I162
sg11
I57
sg12
g13
sg14
S'mezzodestro'
p3047
sba(itravian_raidmap
raid
p3048
(dp3049
g6
I17975
sg7
S'Romani'
p3050
sg9
I0
sg10
I212
sg11
I32
sg12
g13
sg14
S'KiRaG'
p3051
sba(itravian_raidmap
raid
p3052
(dp3053
g6
I17975
sg7
S'Romani'
p3054
sg9
I0
sg10
I213
sg11
I26
sg12
g13
sg14
S'KiRaG'
p3055
sba(itravian_raidmap
raid
p3056
(dp3057
g6
I17975
sg7
S'Romani'
p3058
sg9
I0
sg10
I213
sg11
I30
sg12
g13
sg14
S'KiRaG'
p3059
sba(itravian_raidmap
raid
p3060
(dp3061
g6
I17975
sg7
S'Romani'
p3062
sg9
I0
sg10
I213
sg11
I32
sg12
g13
sg14
S'KiRaG'
p3063
sba(itravian_raidmap
raid
p3064
(dp3065
g6
I24870
sg7
S'Teutoni'
p3066
sg9
I0
sg10
I166
sg11
I50
sg12
g13
sg14
S'mezzodestro'
p3067
sba(itravian_raidmap
raid
p3068
(dp3069
g6
I17975
sg7
S'Romani'
p3070
sg9
I0
sg10
I213
sg11
I33
sg12
g13
sg14
S'KiRaG'
p3071
sba(itravian_raidmap
raid
p3072
(dp3073
g6
I24870
sg7
S'Teutoni'
p3074
sg9
I0
sg10
I166
sg11
I51
sg12
g13
sg14
S'mezzodestro'
p3075
sba(itravian_raidmap
raid
p3076
(dp3077
g6
I17975
sg7
S'Romani'
p3078
sg9
I0
sg10
I214
sg11
I31
sg12
g13
sg14
S'KiRaG'
p3079
sba(itravian_raidmap
raid
p3080
(dp3081
g6
I24868
sg7
S'Teutoni'
p3082
sg9
I0
sg10
I161
sg11
I67
sg12
g13
sg14
S'mezzodestro'
p3083
sba(itravian_raidmap
raid
p3084
(dp3085
g6
I24868
sg7
S'Teutoni'
p3086
sg9
I0
sg10
I167
sg11
I53
sg12
g13
sg14
S'mezzodestro'
p3087
sba(itravian_raidmap
raid
p3088
(dp3089
g6
I24870
sg7
S'Teutoni'
p3090
sg9
I0
sg10
I168
sg11
I51
sg12
g13
sg14
S'mezzodestro'
p3091
sba(itravian_raidmap
raid
p3092
(dp3093
g6
I24868
sg7
S'Teutoni'
p3094
sg9
I0
sg10
I168
sg11
I53
sg12
g13
sg14
S'mezzodestro'
p3095
sba(itravian_raidmap
raid
p3096
(dp3097
g6
I24868
sg7
S'Teutoni'
p3098
sg9
I0
sg10
I161
sg11
I73
sg12
g13
sg14
S'mezzodestro'
p3099
sba(itravian_raidmap
raid
p3100
(dp3101
g6
I24868
sg7
S'Teutoni'
p3102
sg9
I0
sg10
I173
sg11
I48
sg12
g13
sg14
S'mezzodestro'
p3103
sba(itravian_raidmap
raid
p3104
(dp3105
g6
I17975
sg7
S'Romani'
p3106
sg9
I0
sg10
I220
sg11
I24
sg12
g13
sg14
S'KiRaG'
p3107
sba(itravian_raidmap
raid
p3108
(dp3109
g6
I17975
sg7
S'Romani'
p3110
sg9
I0
sg10
I218
sg11
I39
sg12
g13
sg14
S'KiRaG'
p3111
sba(itravian_raidmap
raid
p3112
(dp3113
g6
I24868
sg7
S'Teutoni'
p3114
sg9
I0
sg10
I166
sg11
I72
sg12
g13
sg14
S'mezzodestro'
p3115
sba(itravian_raidmap
raid
p3116
(dp3117
g6
I24868
sg7
S'Teutoni'
p3118
sg9
I0
sg10
I179
sg11
I43
sg12
g13
sg14
S'mezzodestro'
p3119
sba(itravian_raidmap
raid
p3120
(dp3121
g6
I17975
sg7
S'Romani'
p3122
sg9
I0
sg10
I225
sg11
I20
sg12
g13
sg14
S'KiRaG'
p3123
sba(itravian_raidmap
raid
p3124
(dp3125
g6
I24868
sg7
S'Teutoni'
p3126
sg9
I0
sg10
I164
sg11
I92
sg12
g13
sg14
S'mezzodestro'
p3127
sba(itravian_raidmap
raid
p3128
(dp3129
g6
I24868
sg7
S'Teutoni'
p3130
sg9
I0
sg10
I185
sg11
I50
sg12
g13
sg14
S'mezzodestro'
p3131
sba(itravian_raidmap
raid
p3132
(dp3133
g6
I17975
sg7
S'Romani'
p3134
sg9
I0
sg10
I229
sg11
I34
sg12
g13
sg14
S'KiRaG'
p3135
sba(itravian_raidmap
raid
p3136
(dp3137
g6
I24868
sg7
S'Teutoni'
p3138
sg9
I0
sg10
I191
sg11
I71
sg12
g13
sg14
S'mezzodestro'
p3139
sba(itravian_raidmap
raid
p3140
(dp3141
g6
I24868
sg7
S'Teutoni'
p3142
sg9
I0
sg10
I197
sg11
I69
sg12
g13
sg14
S'mezzodestro'
p3143
sba(itravian_raidmap
raid
p3144
(dp3145
g6
I24868
sg7
S'Teutoni'
p3146
sg9
I0
sg10
I206
sg11
I67
sg12
g13
sg14
S'mezzodestro'
p3147
sba(itravian_raidmap
raid
p3148
(dp3149
g6
I24868
sg7
S'Teutoni'
p3150
sg9
I0
sg10
I209
sg11
I89
sg12
g13
sg14
S'mezzodestro'
p3151
sba(itravian_raidmap
raid
p3152
(dp3153
g6
I16877
sg7
S'Galli'
p3154
sg9
I0
sg10
I170
sg11
I40
sg12
g13
sg14
S'Pitois'
p3155
sba(itravian_raidmap
raid
p3156
(dp3157
g6
I16877
sg7
S'Galli'
p3158
sg9
I0
sg10
I171
sg11
I41
sg12
g13
sg14
S'Pitois'
p3159
sba(itravian_raidmap
raid
p3160
(dp3161
g6
I16877
sg7
S'Galli'
p3162
sg9
I0
sg10
I172
sg11
I42
sg12
g13
sg14
S'Pitois'
p3163
sba(itravian_raidmap
raid
p3164
(dp3165
g6
I16877
sg7
S'Galli'
p3166
sg9
I0
sg10
I171
sg11
I47
sg12
g13
sg14
S'Pitois'
p3167
sba(itravian_raidmap
raid
p3168
(dp3169
g6
I16877
sg7
S'Galli'
p3170
sg9
I0
sg10
I173
sg11
I40
sg12
g13
sg14
S'Pitois'
p3171
sba(itravian_raidmap
raid
p3172
(dp3173
g6
I16877
sg7
S'Galli'
p3174
sg9
I0
sg10
I173
sg11
I41
sg12
g13
sg14
S'Pitois'
p3175
sba(itravian_raidmap
raid
p3176
(dp3177
g6
I16877
sg7
S'Galli'
p3178
sg9
I0
sg10
I173
sg11
I42
sg12
g13
sg14
S'Pitois'
p3179
sba(itravian_raidmap
raid
p3180
(dp3181
g6
I16877
sg7
S'Galli'
p3182
sg9
I0
sg10
I173
sg11
I43
sg12
g13
sg14
S'Pitois'
p3183
sba(itravian_raidmap
raid
p3184
(dp3185
g6
I16877
sg7
S'Galli'
p3186
sg9
I0
sg10
I174
sg11
I40
sg12
g13
sg14
S'Pitois'
p3187
sba(itravian_raidmap
raid
p3188
(dp3189
g6
I16877
sg7
S'Galli'
p3190
sg9
I0
sg10
I174
sg11
I42
sg12
g13
sg14
S'Pitois'
p3191
sba(itravian_raidmap
raid
p3192
(dp3193
g6
I16877
sg7
S'Galli'
p3194
sg9
I0
sg10
I173
sg11
I51
sg12
g13
sg14
S'Pitois'
p3195
sba(itravian_raidmap
raid
p3196
(dp3197
g6
I16877
sg7
S'Galli'
p3198
sg9
I0
sg10
I175
sg11
I48
sg12
g13
sg14
S'Pitois'
p3199
sba(itravian_raidmap
raid
p3200
(dp3201
g6
I29517
sg7
S'Teutoni'
p3202
sg9
I0
sg10
I158
sg11
I67
sg12
g13
sg14
S'damicabi'
p3203
sba(itravian_raidmap
raid
p3204
(dp3205
g6
I16877
sg7
S'Galli'
p3206
sg9
I0
sg10
I210
sg11
I89
sg12
g13
sg14
S'Pitois'
p3207
sba(itravian_raidmap
raid
p3208
(dp3209
g6
I29519
sg7
S'Teutoni'
p3210
sg9
I0
sg10
I172
sg11
I64
sg12
g13
sg14
S'damicabi'
p3211
sba(itravian_raidmap
raid
p3212
(dp3213
g6
I29520
sg7
S'Teutoni'
p3214
sg9
I0
sg10
I174
sg11
I67
sg12
g13
sg14
S'damicabi'
p3215
sba(itravian_raidmap
raid
p3216
(dp3217
g6
I29520
sg7
S'Teutoni'
p3218
sg9
I0
sg10
I191
sg11
I37
sg12
g13
sg14
S'damicabi'
p3219
sba(itravian_raidmap
raid
p3220
(dp3221
g6
I29520
sg7
S'Teutoni'
p3222
sg9
I0
sg10
I192
sg11
I38
sg12
g13
sg14
S'damicabi'
p3223
sba(itravian_raidmap
raid
p3224
(dp3225
g6
I29520
sg7
S'Teutoni'
p3226
sg9
I0
sg10
I193
sg11
I35
sg12
g13
sg14
S'damicabi'
p3227
sba(itravian_raidmap
raid
p3228
(dp3229
g6
I29517
sg7
S'Teutoni'
p3230
sg9
I0
sg10
I193
sg11
I45
sg12
g13
sg14
S'damicabi'
p3231
sba(itravian_raidmap
raid
p3232
(dp3233
g6
I29517
sg7
S'Teutoni'
p3234
sg9
I0
sg10
I191
sg11
I54
sg12
g13
sg14
S'damicabi'
p3235
sba(itravian_raidmap
raid
p3236
(dp3237
g6
I29517
sg7
S'Teutoni'
p3238
sg9
I0
sg10
I196
sg11
I40
sg12
g13
sg14
S'damicabi'
p3239
sba(itravian_raidmap
raid
p3240
(dp3241
g6
I29517
sg7
S'Teutoni'
p3242
sg9
I0
sg10
I192
sg11
I58
sg12
g13
sg14
S'damicabi'
p3243
sba(itravian_raidmap
raid
p3244
(dp3245
g6
I29519
sg7
S'Teutoni'
p3246
sg9
I0
sg10
I199
sg11
I25
sg12
g13
sg14
S'damicabi'
p3247
sba(itravian_raidmap
raid
p3248
(dp3249
g6
I29517
sg7
S'Teutoni'
p3250
sg9
I0
sg10
I194
sg11
I56
sg12
g13
sg14
S'damicabi'
p3251
sba(itravian_raidmap
raid
p3252
(dp3253
g6
I29517
sg7
S'Teutoni'
p3254
sg9
I0
sg10
I199
sg11
I50
sg12
g13
sg14
S'damicabi'
p3255
sba(itravian_raidmap
raid
p3256
(dp3257
g6
I29517
sg7
S'Teutoni'
p3258
sg9
I0
sg10
I199
sg11
I51
sg12
g13
sg14
S'damicabi'
p3259
sba(itravian_raidmap
raid
p3260
(dp3261
g6
I29517
sg7
S'Teutoni'
p3262
sg9
I0
sg10
I201
sg11
I49
sg12
g13
sg14
S'damicabi'
p3263
sba(itravian_raidmap
raid
p3264
(dp3265
g6
I29517
sg7
S'Teutoni'
p3266
sg9
I0
sg10
I203
sg11
I50
sg12
g13
sg14
S'damicabi'
p3267
sba(itravian_raidmap
raid
p3268
(dp3269
g6
I29519
sg7
S'Teutoni'
p3270
sg9
I0
sg10
I197
sg11
I70
sg12
g13
sg14
S'damicabi'
p3271
sba(itravian_raidmap
raid
p3272
(dp3273
g6
I29520
sg7
S'Teutoni'
p3274
sg9
I0
sg10
I210
sg11
I42
sg12
g13
sg14
S'damicabi'
p3275
sba(itravian_raidmap
raid
p3276
(dp3277
g6
I29520
sg7
S'Teutoni'
p3278
sg9
I0
sg10
I212
sg11
I38
sg12
g13
sg14
S'damicabi'
p3279
sba(itravian_raidmap
raid
p3280
(dp3281
g6
I29520
sg7
S'Teutoni'
p3282
sg9
I0
sg10
I213
sg11
I38
sg12
g13
sg14
S'damicabi'
p3283
sba(itravian_raidmap
raid
p3284
(dp3285
g6
I29519
sg7
S'Teutoni'
p3286
sg9
I0
sg10
I207
sg11
I66
sg12
g13
sg14
S'damicabi'
p3287
sba(itravian_raidmap
raid
p3288
(dp3289
g6
I29517
sg7
S'Teutoni'
p3290
sg9
I0
sg10
I207
sg11
I67
sg12
g13
sg14
S'damicabi'
p3291
sba(itravian_raidmap
raid
p3292
(dp3293
g6
I29517
sg7
S'Teutoni'
p3294
sg9
I0
sg10
I207
sg11
I70
sg12
g13
sg14
S'damicabi'
p3295
sba(itravian_raidmap
raid
p3296
(dp3297
g6
I29517
sg7
S'Teutoni'
p3298
sg9
I0
sg10
I208
sg11
I70
sg12
g13
sg14
S'damicabi'
p3299
sba(itravian_raidmap
raid
p3300
(dp3301
g6
I29519
sg7
S'Teutoni'
p3302
sg9
I0
sg10
I207
sg11
I76
sg12
g13
sg14
S'damicabi'
p3303
sba(itravian_raidmap
raid
p3304
(dp3305
g6
I29517
sg7
S'Teutoni'
p3306
sg9
I0
sg10
I210
sg11
I69
sg12
g13
sg14
S'damicabi'
p3307
sba(itravian_raidmap
raid
p3308
(dp3309
g6
I29519
sg7
S'Teutoni'
p3310
sg9
I0
sg10
I208
sg11
I76
sg12
g13
sg14
S'damicabi'
p3311
sba(itravian_raidmap
raid
p3312
(dp3313
g6
I29519
sg7
S'Teutoni'
p3314
sg9
I0
sg10
I208
sg11
I77
sg12
g13
sg14
S'damicabi'
p3315
sba(itravian_raidmap
raid
p3316
(dp3317
g6
I29519
sg7
S'Teutoni'
p3318
sg9
I0
sg10
I210
sg11
I75
sg12
g13
sg14
S'damicabi'
p3319
sba(itravian_raidmap
raid
p3320
(dp3321
g6
I29519
sg7
S'Teutoni'
p3322
sg9
I0
sg10
I214
sg11
I65
sg12
g13
sg14
S'damicabi'
p3323
sba(itravian_raidmap
raid
p3324
(dp3325
g6
I29519
sg7
S'Teutoni'
p3326
sg9
I0
sg10
I218
sg11
I57
sg12
g13
sg14
S'damicabi'
p3327
sba(itravian_raidmap
raid
p3328
(dp3329
g6
I29517
sg7
S'Teutoni'
p3330
sg9
I0
sg10
I208
sg11
I89
sg12
g13
sg14
S'damicabi'
p3331
sba(itravian_raidmap
raid
p3332
(dp3333
g6
I29516
sg7
S'Teutoni'
p3334
sg9
I0
sg10
I230
sg11
I42
sg12
g13
sg14
S'damicabi'
p3335
sba(itravian_raidmap
raid
p3336
(dp3337
g6
I26944
sg7
S'Romani'
p3338
sg9
I0
sg10
I179
sg11
I78
sg12
g13
sg14
S'durbans2'
p3339
sbasb.